
dm9000_elf:     file format elf32-littlearm


Disassembly of section .init:

00000000 <_start>:
   0:	ea000006 	b	20 <Reset>

00000004 <Undefined_Handler>:
   4:	eafffffe 	b	4 <Undefined_Handler>
   8:	ea000022 	b	98 <SWI_Handler>

0000000c <Prefetch_Handler>:
   c:	eafffffe 	b	c <Prefetch_Handler>

00000010 <Abort_Handler>:
  10:	eafffffe 	b	10 <Abort_Handler>
  14:	e1a00000 	nop			(mov r0,r0)
  18:	ea000019 	b	84 <IRQ_Handler>

0000001c <FIQ_Handler>:
  1c:	eafffffe 	b	1c <FIQ_Handler>

00000020 <Reset>:
  20:	e3a0da01 	mov	sp, #4096	; 0x1000
  24:	eb000160 	bl	5ac <disable_watch_dog>
  28:	eb0001a8 	bl	6d0 <clock_init>
  2c:	eb000166 	bl	5cc <memsetup>
  30:	eb00011b 	bl	4a4 <nand_driver>
  34:	eb000077 	bl	218 <nand_init>
  38:	e321f0d3 	msr	CPSR_c, #211	; 0xd3
  3c:	e3a0da01 	mov	sp, #4096	; 0x1000
  40:	e321f0d2 	msr	CPSR_c, #210	; 0xd2
  44:	e3a0db03 	mov	sp, #3072	; 0xc00
  48:	e321f01f 	msr	CPSR_c, #31	; 0x1f
  4c:	e3a00203 	mov	r0, #805306368	; 0x30000000
  50:	e3a01a01 	mov	r1, #4096	; 0x1000
  54:	e59f2084 	ldr	r2, [pc, #132]	; e0 <bad_call+0x4>
  58:	e59f3084 	ldr	r3, [pc, #132]	; e4 <bad_call+0x8>
  5c:	e0432002 	sub	r2, r3, r2
  60:	e2822b02 	add	r2, r2, #2048	; 0x800
  64:	e3a03000 	mov	r3, #0	; 0x0
  68:	e08335a2 	add	r3, r3, r2, lsr #11
  6c:	e1a02583 	lsl	r2, r3, #11
  70:	eb000083 	bl	284 <nand_read>
  74:	e59fe06c 	ldr	lr, [pc, #108]	; e8 <bad_call+0xc>
  78:	e3a0d30d 	mov	sp, #872415232	; 0x34000000
  7c:	e59ff068 	ldr	pc, [pc, #104]	; ec <bad_call+0x10>

00000080 <halt_loop>:
  80:	eafffffe 	b	80 <halt_loop>

00000084 <IRQ_Handler>:
  84:	e24ee004 	sub	lr, lr, #4	; 0x4
  88:	e92d5fff 	push	{r0, r1, r2, r3, r4, r5, r6, r7, r8, r9, sl, fp, ip, lr}
  8c:	e59fe05c 	ldr	lr, [pc, #92]	; f0 <bad_call+0x14>
  90:	e59ff05c 	ldr	pc, [pc, #92]	; f4 <bad_call+0x18>

00000094 <int_return>:
  94:	e8fd9fff 	ldm	sp!, {r0, r1, r2, r3, r4, r5, r6, r7, r8, r9, sl, fp, ip, pc}^

00000098 <SWI_Handler>:
  98:	e92d5ff0 	push	{r4, r5, r6, r7, r8, r9, sl, fp, ip, lr}
  9c:	e1a02000 	mov	r2, r0
  a0:	e51e0004 	ldr	r0, [lr, #-4]
  a4:	e3c004ff 	bic	r0, r0, #-16777216	; 0xff000000
  a8:	e3500000 	cmp	r0, #0	; 0x0
  ac:	e59fe044 	ldr	lr, [pc, #68]	; f8 <bad_call+0x1c>
  b0:	e59ff044 	ldr	pc, [pc, #68]	; fc <bad_call+0x20>
  b4:	1b000000 	blne	bc <SysCallEntry>

000000b8 <SWI_RETURN>:
  b8:	e8fd9ff0 	ldm	sp!, {r4, r5, r6, r7, r8, r9, sl, fp, ip, pc}^

000000bc <SysCallEntry>:
  bc:	e92d4000 	push	{lr}
  c0:	e352000a 	cmp	r2, #10	; 0xa
  c4:	cb000004 	blgt	dc <bad_call>
  c8:	e1a00001 	mov	r0, r1
  cc:	e1a0100d 	mov	r1, sp
  d0:	e59f4028 	ldr	r4, [pc, #40]	; 100 <bad_call+0x24>
  d4:	e59fe028 	ldr	lr, [pc, #40]	; 104 <bad_call+0x28>
  d8:	e794f102 	ldr	pc, [r4, r2, lsl #2]

000000dc <bad_call>:
  dc:	e8bd8000 	pop	{pc}
  e0:	30000000 	.word	0x30000000
  e4:	3000d00e 	.word	0x3000d00e
  e8:	00000080 	.word	0x00000080
  ec:	3000bed8 	.word	0x3000bed8
  f0:	00000094 	.word	0x00000094
  f4:	30007890 	.word	0x30007890
  f8:	000000b8 	.word	0x000000b8
  fc:	3000007c 	.word	0x3000007c
 100:	3000d010 	.word	0x3000d010
 104:	000000dc 	.word	0x000000dc
 108:	00001941 	.word	0x00001941
 10c:	61656100 	.word	0x61656100
 110:	01006962 	.word	0x01006962
 114:	0000000f 	.word	0x0000000f
 118:	00543405 	.word	0x00543405
 11c:	01080206 	.word	0x01080206
 120:	00690109 	.word	0x00690109
 124:	00020000 	.word	0x00020000
 128:	0000001d 	.word	0x0000001d
 12c:	0efb0102 	.word	0x0efb0102
 130:	0101000d 	.word	0x0101000d
 134:	00000101 	.word	0x00000101
 138:	00000100 	.word	0x00000100
 13c:	72630001 	.word	0x72630001
 140:	732e3074 	.word	0x732e3074
 144:	00000000 	.word	0x00000000
 148:	02050000 	.word	0x02050000
 14c:	00000000 	.word	0x00000000
 150:	30010c03 	.word	0x30010c03
 154:	2f30302f 	.word	0x2f30302f
 158:	2f          	.byte	0x2f
 159:	30          	.byte	0x30
 15a:	2f32      	.short	0x2f32
 15c:	2f2f2f2f 	.word	0x2f2f2f2f
 160:	2f302f31 	.word	0x2f302f31
 164:	2f2f3030 	.word	0x2f2f3030
 168:	2f2f2f2f 	.word	0x2f2f2f2f
 16c:	2f2f2f2f 	.word	0x2f2f2f2f
 170:	32302f2f 	.word	0x32302f2f
 174:	302f2f2f 	.word	0x302f2f2f
 178:	302f3231 	.word	0x302f3231
 17c:	2f2f2f2f 	.word	0x2f2f2f2f
 180:	2f2f3130 	.word	0x2f2f3130
 184:	312f2f31 	.word	0x312f2f31
 188:	1602302f 	.word	0x1602302f
 18c:	4a010100 	.word	0x4a010100
 190:	02000000 	.word	0x02000000
 194:	0001dd00 	.word	0x0001dd00
 198:	22010400 	.word	0x22010400
 19c:	00000001 	.word	0x00000001
 1a0:	08000000 	.word	0x08000000
 1a4:	63000001 	.word	0x63000001
 1a8:	2e307472 	.word	0x2e307472
 1ac:	0073      	.short	0x0073
 1ae:	2f          	.byte	0x2f
 1af:	68          	.byte	0x68
 1b0:	2f656d6f 	.word	0x2f656d6f
 1b4:	6b696168 	.word	0x6b696168
 1b8:	2f676e6f 	.word	0x2f676e6f
 1bc:	2f707061 	.word	0x2f707061
 1c0:	30396d64 	.word	0x30396d64
 1c4:	632f3030 	.word	0x632f3030
 1c8:	00307472 	.word	0x00307472
 1cc:	20554e47 	.word	0x20554e47
 1d0:	32205341 	.word	0x32205341
 1d4:	2e39312e 	.word	0x2e39312e
 1d8:	3135      	.short	0x3135
 1da:	0100      	.short	0x0100
 1dc:	00110180 	.word	0x00110180
 1e0:	01110610 	.word	0x01110610
 1e4:	08030112 	.word	0x08030112
 1e8:	0825081b 	.word	0x0825081b
 1ec:	00000513 	.word	0x00000513
	...
 1f8:	0000001c 	.word	0x0000001c
 1fc:	018f0002 	.word	0x018f0002
 200:	00040000 	.word	0x00040000
	...
 20c:	00000108 	.word	0x00000108
	...

00000218 <nand_init>:
 218:	e92d4010 	push	{r4, lr}
 21c:	e59f2058 	ldr	r2, [pc, #88]	; 27c <nand_init+0x64>
 220:	e08f2002 	add	r2, pc, r2
 224:	e59f3054 	ldr	r3, [pc, #84]	; 280 <nand_init+0x68>
 228:	e7923003 	ldr	r3, [r2, r3]
 22c:	e5933000 	ldr	r3, [r3]
 230:	e3530000 	cmp	r3, #0	; 0x0
 234:	0a00000e 	beq	274 <nand_init+0x5c>
 238:	e5931000 	ldr	r1, [r3]
 23c:	e3510000 	cmp	r1, #0	; 0x0
 240:	0a00000b 	beq	274 <nand_init+0x5c>
 244:	e3a03c03 	mov	r3, #768	; 0x300
 248:	e5813000 	str	r3, [r1]
 24c:	e59f302c 	ldr	r3, [pc, #44]	; 280 <nand_init+0x68>
 250:	e7921003 	ldr	r1, [r2, r3]
 254:	e5913000 	ldr	r3, [r1]
 258:	e5932000 	ldr	r2, [r3]
 25c:	e3a03013 	mov	r3, #19	; 0x13
 260:	e5823004 	str	r3, [r2, #4]
 264:	e5913000 	ldr	r3, [r1]
 268:	e593c004 	ldr	ip, [r3, #4]
 26c:	e1a0e00f 	mov	lr, pc
 270:	e12fff1c 	bx	ip
 274:	e8bd4010 	pop	{r4, lr}
 278:	e12fff1e 	bx	lr
 27c:	fffffdd8 	.word	0xfffffdd8
 280:	0000057c 	.word	0x0000057c

00000284 <nand_read>:
 284:	e92d4ff8 	push	{r3, r4, r5, r6, r7, r8, r9, sl, fp, lr}
 288:	e59f8104 	ldr	r8, [pc, #260]	; 394 <nand_read+0x110>
 28c:	e08f8008 	add	r8, pc, r8
 290:	e1a06000 	mov	r6, r0
 294:	e1a04001 	mov	r4, r1
 298:	e1a05002 	mov	r5, r2
 29c:	e1a03a81 	lsl	r3, r1, #21
 2a0:	e1a03aa3 	lsr	r3, r3, #21
 2a4:	e3530000 	cmp	r3, #0	; 0x0
 2a8:	1a000037 	bne	38c <nand_read+0x108>
 2ac:	e1a03a82 	lsl	r3, r2, #21
 2b0:	e1a03aa3 	lsr	r3, r3, #21
 2b4:	e3530000 	cmp	r3, #0	; 0x0
 2b8:	1a000033 	bne	38c <nand_read+0x108>
 2bc:	e59f30d4 	ldr	r3, [pc, #212]	; 398 <nand_read+0x114>
 2c0:	e7983003 	ldr	r3, [r8, r3]
 2c4:	e5933000 	ldr	r3, [r3]
 2c8:	e593c00c 	ldr	ip, [r3, #12]
 2cc:	e1a0e00f 	mov	lr, pc
 2d0:	e12fff1c 	bx	ip
 2d4:	e1a07004 	mov	r7, r4
 2d8:	e085a004 	add	sl, r5, r4
 2dc:	e59f90b4 	ldr	r9, [pc, #180]	; 398 <nand_read+0x114>
 2e0:	e3a0b000 	mov	fp, #0	; 0x0
 2e4:	ea00001f 	b	368 <nand_read+0xe4>
 2e8:	e7984009 	ldr	r4, [r8, r9]
 2ec:	e5943000 	ldr	r3, [r4]
 2f0:	e1a0000b 	mov	r0, fp
 2f4:	e593c014 	ldr	ip, [r3, #20]
 2f8:	e1a0e00f 	mov	lr, pc
 2fc:	e12fff1c 	bx	ip
 300:	e5943000 	ldr	r3, [r4]
 304:	e1a00005 	mov	r0, r5
 308:	e593c018 	ldr	ip, [r3, #24]
 30c:	e1a0e00f 	mov	lr, pc
 310:	e12fff1c 	bx	ip
 314:	e5943000 	ldr	r3, [r4]
 318:	e3a00030 	mov	r0, #48	; 0x30
 31c:	e593c014 	ldr	ip, [r3, #20]
 320:	e1a0e00f 	mov	lr, pc
 324:	e12fff1c 	bx	ip
 328:	e5943000 	ldr	r3, [r4]
 32c:	e593c008 	ldr	ip, [r3, #8]
 330:	e1a0e00f 	mov	lr, pc
 334:	e12fff1c 	bx	ip
 338:	e1a0400b 	mov	r4, fp
 33c:	e7985009 	ldr	r5, [r8, r9]
 340:	e5953000 	ldr	r3, [r5]
 344:	e593c01c 	ldr	ip, [r3, #28]
 348:	e1a0e00f 	mov	lr, pc
 34c:	e12fff1c 	bx	ip
 350:	e7c60004 	strb	r0, [r6, r4]
 354:	e2844001 	add	r4, r4, #1	; 0x1
 358:	e3540b02 	cmp	r4, #2048	; 0x800
 35c:	1afffff7 	bne	340 <nand_read+0xbc>
 360:	e2877b02 	add	r7, r7, #2048	; 0x800
 364:	e2866b02 	add	r6, r6, #2048	; 0x800
 368:	e1a05007 	mov	r5, r7
 36c:	e15a0007 	cmp	sl, r7
 370:	8affffdc 	bhi	2e8 <nand_read+0x64>
 374:	e59f301c 	ldr	r3, [pc, #28]	; 398 <nand_read+0x114>
 378:	e7983003 	ldr	r3, [r8, r3]
 37c:	e5933000 	ldr	r3, [r3]
 380:	e593c010 	ldr	ip, [r3, #16]
 384:	e1a0e00f 	mov	lr, pc
 388:	e12fff1c 	bx	ip
 38c:	e8bd4ff8 	pop	{r3, r4, r5, r6, r7, r8, r9, sl, fp, lr}
 390:	e12fff1e 	bx	lr
 394:	fffffd6c 	.word	0xfffffd6c
 398:	0000057c 	.word	0x0000057c

0000039c <RegisterNandOpr>:
 39c:	e59f2030 	ldr	r2, [pc, #48]	; 3d4 <RegisterNandOpr+0x38>
 3a0:	e08f2002 	add	r2, pc, r2
 3a4:	e59f302c 	ldr	r3, [pc, #44]	; 3d8 <RegisterNandOpr+0x3c>
 3a8:	e7923003 	ldr	r3, [r2, r3]
 3ac:	e5933000 	ldr	r3, [r3]
 3b0:	e2733001 	rsbs	r3, r3, #1	; 0x1
 3b4:	33a03000 	movcc	r3, #0	; 0x0
 3b8:	e3500000 	cmp	r0, #0	; 0x0
 3bc:	03a03000 	moveq	r3, #0	; 0x0
 3c0:	e3530000 	cmp	r3, #0	; 0x0
 3c4:	159f300c 	ldrne	r3, [pc, #12]	; 3d8 <RegisterNandOpr+0x3c>
 3c8:	17923003 	ldrne	r3, [r2, r3]
 3cc:	15830000 	strne	r0, [r3]
 3d0:	e12fff1e 	bx	lr
 3d4:	fffffc58 	.word	0xfffffc58
 3d8:	0000057c 	.word	0x0000057c

000003dc <s3c2440_wait_idle>:
 3dc:	e3a0244e 	mov	r2, #1308622848	; 0x4e000000
 3e0:	e2822020 	add	r2, r2, #32	; 0x20
 3e4:	e5d23000 	ldrb	r3, [r2]
 3e8:	e3130001 	tst	r3, #1	; 0x1
 3ec:	0afffffc 	beq	3e4 <s3c2440_wait_idle+0x8>
 3f0:	e12fff1e 	bx	lr

000003f4 <s3c2440_nand_select_chip>:
 3f4:	e3a0244e 	mov	r2, #1308622848	; 0x4e000000
 3f8:	e5923004 	ldr	r3, [r2, #4]
 3fc:	e3c33002 	bic	r3, r3, #2	; 0x2
 400:	e5823004 	str	r3, [r2, #4]
 404:	e12fff1e 	bx	lr

00000408 <s3c2440_nand_deselect_chip>:
 408:	e3a0244e 	mov	r2, #1308622848	; 0x4e000000
 40c:	e5923004 	ldr	r3, [r2, #4]
 410:	e3833002 	orr	r3, r3, #2	; 0x2
 414:	e5823004 	str	r3, [r2, #4]
 418:	e12fff1e 	bx	lr

0000041c <s3c2440_write_cmd>:
 41c:	e3a0344e 	mov	r3, #1308622848	; 0x4e000000
 420:	e2833008 	add	r3, r3, #8	; 0x8
 424:	e20000ff 	and	r0, r0, #255	; 0xff
 428:	e5c30000 	strb	r0, [r3]
 42c:	e12fff1e 	bx	lr

00000430 <s3c2440_nand_reset>:
 430:	e92d4010 	push	{r4, lr}
 434:	ebffffee 	bl	3f4 <s3c2440_nand_select_chip>
 438:	e3a000ff 	mov	r0, #255	; 0xff
 43c:	ebfffff6 	bl	41c <s3c2440_write_cmd>
 440:	ebffffe5 	bl	3dc <s3c2440_wait_idle>
 444:	ebffffef 	bl	408 <s3c2440_nand_deselect_chip>
 448:	e8bd4010 	pop	{r4, lr}
 44c:	e12fff1e 	bx	lr

00000450 <s3c2440_write_addr>:
 450:	e3a0144e 	mov	r1, #1308622848	; 0x4e000000
 454:	e1a03a80 	lsl	r3, r0, #21
 458:	e1a03aa3 	lsr	r3, r3, #21
 45c:	e1a025a0 	lsr	r2, r0, #11
 460:	e20000ff 	and	r0, r0, #255	; 0xff
 464:	e5e1000c 	strb	r0, [r1, #12]!
 468:	e1a03423 	lsr	r3, r3, #8
 46c:	e5c13000 	strb	r3, [r1]
 470:	e20230ff 	and	r3, r2, #255	; 0xff
 474:	e5c13000 	strb	r3, [r1]
 478:	e1a03442 	asr	r3, r2, #8
 47c:	e20330ff 	and	r3, r3, #255	; 0xff
 480:	e5c13000 	strb	r3, [r1]
 484:	e1a02842 	asr	r2, r2, #16
 488:	e2022001 	and	r2, r2, #1	; 0x1
 48c:	e5c12000 	strb	r2, [r1]
 490:	e12fff1e 	bx	lr

00000494 <s3c2440_read_data>:
 494:	e3a0344e 	mov	r3, #1308622848	; 0x4e000000
 498:	e2833010 	add	r3, r3, #16	; 0x10
 49c:	e5d30000 	ldrb	r0, [r3]
 4a0:	e12fff1e 	bx	lr

000004a4 <nand_driver>:
 4a4:	e92d4010 	push	{r4, lr}
 4a8:	e59f0014 	ldr	r0, [pc, #20]	; 4c4 <nand_driver+0x20>
 4ac:	e08f0000 	add	r0, pc, r0
 4b0:	e59f3010 	ldr	r3, [pc, #16]	; 4c8 <nand_driver+0x24>
 4b4:	e0800003 	add	r0, r0, r3
 4b8:	ebffffb7 	bl	39c <RegisterNandOpr>
 4bc:	e8bd4010 	pop	{r4, lr}
 4c0:	e12fff1e 	bx	lr
 4c4:	fffffb4c 	.word	0xfffffb4c
 4c8:	000004cc 	.word	0x000004cc

000004cc <nand_chip>:
 4cc:	4e000000 	.word	0x4e000000
 4d0:	00000430 	.word	0x00000430
 4d4:	000003dc 	.word	0x000003dc
 4d8:	000003f4 	.word	0x000003f4
 4dc:	00000408 	.word	0x00000408
 4e0:	0000041c 	.word	0x0000041c
 4e4:	00000450 	.word	0x00000450
 4e8:	00000494 	.word	0x00000494

000004ec <g_Nand_Chip_op>:
 4ec:	00000000 	.word	0x00000000
 4f0:	00002941 	.word	0x00002941
 4f4:	61656100 	.word	0x61656100
 4f8:	01006962 	.word	0x01006962
 4fc:	0000001f 	.word	0x0000001f
 500:	00543405 	.word	0x00543405
 504:	01080206 	.word	0x01080206
 508:	04120109 	.word	0x04120109
 50c:	01150114 	.word	0x01150114
 510:	01180317 	.word	0x01180317
 514:	021a0119 	.word	0x021a0119
 518:	4700011e 	.word	0x4700011e
 51c:	203a4343 	.word	0x203a4343
 520:	756f5328 	.word	0x756f5328
 524:	72656372 	.word	0x72656372
 528:	2b472079 	.word	0x2b472079
 52c:	694c202b 	.word	0x694c202b
 530:	32206574 	.word	0x32206574
 534:	71393030 	.word	0x71393030
 538:	37312d31 	.word	0x37312d31
 53c:	34202936 	.word	0x34202936
 540:	332e332e 	.word	0x332e332e
 544:	43470000 	.word	0x43470000
 548:	28203a43 	.word	0x28203a43
 54c:	72756f53 	.word	0x72756f53
 550:	79726563 	.word	0x79726563
 554:	2b2b4720 	.word	0x2b2b4720
 558:	74694c20 	.word	0x74694c20
 55c:	30322065 	.word	0x30322065
 560:	31713930 	.word	0x31713930
 564:	3637312d 	.word	0x3637312d
 568:	2e342029 	.word	0x2e342029
 56c:	00332e33 	.word	0x00332e33
 570:	3000dac8 	.word	0x3000dac8
 574:	3000b7d4 	.word	0x3000b7d4
 578:	3000d00e 	.word	0x3000d00e
 57c:	000004ec 	.word	0x000004ec
 580:	3000d00c 	.word	0x3000d00c
 584:	30006d50 	.word	0x30006d50
 588:	3000dacc 	.word	0x3000dacc
 58c:	3000cecc 	.word	0x3000cecc
 590:	30009858 	.word	0x30009858
 594:	3000dac4 	.word	0x3000dac4
 598:	3000d00a 	.word	0x3000d00a
 59c:	3000a1d8 	.word	0x3000a1d8

000005a0 <_GLOBAL_OFFSET_TABLE_>:
	...

000005ac <disable_watch_dog>:
 5ac:	e52db004 	push	{fp}		; (str fp, [sp, #-4]!)
 5b0:	e28db000 	add	fp, sp, #0	; 0x0
 5b4:	e3a02453 	mov	r2, #1392508928	; 0x53000000
 5b8:	e3a03000 	mov	r3, #0	; 0x0
 5bc:	e5823000 	str	r3, [r2]
 5c0:	e28bd000 	add	sp, fp, #0	; 0x0
 5c4:	e8bd0800 	pop	{fp}
 5c8:	e12fff1e 	bx	lr

000005cc <memsetup>:
 5cc:	e52db004 	push	{fp}		; (str fp, [sp, #-4]!)
 5d0:	e28db000 	add	fp, sp, #0	; 0x0
 5d4:	e24dd00c 	sub	sp, sp, #12	; 0xc
 5d8:	e3a03312 	mov	r3, #1207959552	; 0x48000000
 5dc:	e50b3008 	str	r3, [fp, #-8]
 5e0:	e51b2008 	ldr	r2, [fp, #-8]
 5e4:	e3a03422 	mov	r3, #570425344	; 0x22000000
 5e8:	e2833a11 	add	r3, r3, #69632	; 0x11000
 5ec:	e2833e11 	add	r3, r3, #272	; 0x110
 5f0:	e5823000 	str	r3, [r2]
 5f4:	e51b3008 	ldr	r3, [fp, #-8]
 5f8:	e2832004 	add	r2, r3, #4	; 0x4
 5fc:	e3a03c07 	mov	r3, #1792	; 0x700
 600:	e5823000 	str	r3, [r2]
 604:	e51b3008 	ldr	r3, [fp, #-8]
 608:	e2832008 	add	r2, r3, #8	; 0x8
 60c:	e3a03c07 	mov	r3, #1792	; 0x700
 610:	e5823000 	str	r3, [r2]
 614:	e51b3008 	ldr	r3, [fp, #-8]
 618:	e283200c 	add	r2, r3, #12	; 0xc
 61c:	e3a03c07 	mov	r3, #1792	; 0x700
 620:	e5823000 	str	r3, [r2]
 624:	e51b3008 	ldr	r3, [fp, #-8]
 628:	e2832010 	add	r2, r3, #16	; 0x10
 62c:	e3a03c07 	mov	r3, #1792	; 0x700
 630:	e5823000 	str	r3, [r2]
 634:	e51b3008 	ldr	r3, [fp, #-8]
 638:	e2832014 	add	r2, r3, #20	; 0x14
 63c:	e3a03c07 	mov	r3, #1792	; 0x700
 640:	e5823000 	str	r3, [r2]
 644:	e51b3008 	ldr	r3, [fp, #-8]
 648:	e2832018 	add	r2, r3, #24	; 0x18
 64c:	e3a03c07 	mov	r3, #1792	; 0x700
 650:	e5823000 	str	r3, [r2]
 654:	e51b3008 	ldr	r3, [fp, #-8]
 658:	e283201c 	add	r2, r3, #28	; 0x1c
 65c:	e3a03906 	mov	r3, #98304	; 0x18000
 660:	e2833005 	add	r3, r3, #5	; 0x5
 664:	e5823000 	str	r3, [r2]
 668:	e51b3008 	ldr	r3, [fp, #-8]
 66c:	e2832020 	add	r2, r3, #32	; 0x20
 670:	e3a03906 	mov	r3, #98304	; 0x18000
 674:	e2833005 	add	r3, r3, #5	; 0x5
 678:	e5823000 	str	r3, [r2]
 67c:	e51b3008 	ldr	r3, [fp, #-8]
 680:	e2832024 	add	r2, r3, #36	; 0x24
 684:	e3a03723 	mov	r3, #9175040	; 0x8c0000
 688:	e2833e4f 	add	r3, r3, #1264	; 0x4f0
 68c:	e2833004 	add	r3, r3, #4	; 0x4
 690:	e5823000 	str	r3, [r2]
 694:	e51b3008 	ldr	r3, [fp, #-8]
 698:	e2832028 	add	r2, r3, #40	; 0x28
 69c:	e3a030b1 	mov	r3, #177	; 0xb1
 6a0:	e5823000 	str	r3, [r2]
 6a4:	e51b3008 	ldr	r3, [fp, #-8]
 6a8:	e283202c 	add	r2, r3, #44	; 0x2c
 6ac:	e3a03030 	mov	r3, #48	; 0x30
 6b0:	e5823000 	str	r3, [r2]
 6b4:	e51b3008 	ldr	r3, [fp, #-8]
 6b8:	e2832030 	add	r2, r3, #48	; 0x30
 6bc:	e3a03030 	mov	r3, #48	; 0x30
 6c0:	e5823000 	str	r3, [r2]
 6c4:	e28bd000 	add	sp, fp, #0	; 0x0
 6c8:	e8bd0800 	pop	{fp}
 6cc:	e12fff1e 	bx	lr

000006d0 <clock_init>:
 6d0:	e52db004 	push	{fp}		; (str fp, [sp, #-4]!)
 6d4:	e28db000 	add	fp, sp, #0	; 0x0
 6d8:	e3a03313 	mov	r3, #1275068416	; 0x4c000000
 6dc:	e2833014 	add	r3, r3, #20	; 0x14
 6e0:	e3a02003 	mov	r2, #3	; 0x3
 6e4:	e5832000 	str	r2, [r3]
 6e8:	ee111f10 	mrc	15, 0, r1, cr1, cr0, {0}
 6ec:	e3811103 	orr	r1, r1, #-1073741824	; 0xc0000000
 6f0:	ee011f10 	mcr	15, 0, r1, cr1, cr0, {0}
 6f4:	e3a02313 	mov	r2, #1275068416	; 0x4c000000
 6f8:	e2822004 	add	r2, r2, #4	; 0x4
 6fc:	e3a03917 	mov	r3, #376832	; 0x5c000
 700:	e2833012 	add	r3, r3, #18	; 0x12
 704:	e5823000 	str	r3, [r2]
 708:	e28bd000 	add	sp, fp, #0	; 0x0
 70c:	e8bd0800 	pop	{fp}
 710:	e12fff1e 	bx	lr

00000714 <copy_steppingstone_to_sdram>:
 714:	e52db004 	push	{fp}		; (str fp, [sp, #-4]!)
 718:	e28db000 	add	fp, sp, #0	; 0x0
 71c:	e24dd00c 	sub	sp, sp, #12	; 0xc
 720:	e3a03000 	mov	r3, #0	; 0x0
 724:	e50b300c 	str	r3, [fp, #-12]
 728:	e3a03203 	mov	r3, #805306368	; 0x30000000
 72c:	e2833901 	add	r3, r3, #16384	; 0x4000
 730:	e50b3008 	str	r3, [fp, #-8]
 734:	ea000009 	b	760 <copy_steppingstone_to_sdram+0x4c>
 738:	e51b300c 	ldr	r3, [fp, #-12]
 73c:	e5932000 	ldr	r2, [r3]
 740:	e51b3008 	ldr	r3, [fp, #-8]
 744:	e5832000 	str	r2, [r3]
 748:	e51b3008 	ldr	r3, [fp, #-8]
 74c:	e2833004 	add	r3, r3, #4	; 0x4
 750:	e50b3008 	str	r3, [fp, #-8]
 754:	e51b300c 	ldr	r3, [fp, #-12]
 758:	e2833004 	add	r3, r3, #4	; 0x4
 75c:	e50b300c 	str	r3, [fp, #-12]
 760:	e51b200c 	ldr	r2, [fp, #-12]
 764:	e3a03eff 	mov	r3, #4080	; 0xff0
 768:	e283300f 	add	r3, r3, #15	; 0xf
 76c:	e1520003 	cmp	r2, r3
 770:	9afffff0 	bls	738 <copy_steppingstone_to_sdram+0x24>
 774:	e28bd000 	add	sp, fp, #0	; 0x0
 778:	e8bd0800 	pop	{fp}
 77c:	e12fff1e 	bx	lr

00000780 <mmu_init>:
 780:	e52db004 	push	{fp}		; (str fp, [sp, #-4]!)
 784:	e28db000 	add	fp, sp, #0	; 0x0
 788:	e24dd00c 	sub	sp, sp, #12	; 0xc
 78c:	e3a03203 	mov	r3, #805306368	; 0x30000000
 790:	e50b3008 	str	r3, [fp, #-8]
 794:	e51b3008 	ldr	r3, [fp, #-8]
 798:	e3a00000 	mov	r0, #0	; 0x0
 79c:	ee070f17 	mcr	15, 0, r0, cr7, cr7, {0}
 7a0:	ee070f9a 	mcr	15, 0, r0, cr7, cr10, {4}
 7a4:	ee080f17 	mcr	15, 0, r0, cr8, cr7, {0}
 7a8:	e1a04003 	mov	r4, r3
 7ac:	ee024f10 	mcr	15, 0, r4, cr2, cr0, {0}
 7b0:	e3e00000 	mvn	r0, #0	; 0x0
 7b4:	ee030f10 	mcr	15, 0, r0, cr3, cr0, {0}
 7b8:	ee110f10 	mrc	15, 0, r0, cr1, cr0, {0}
 7bc:	e3c00a03 	bic	r0, r0, #12288	; 0x3000
 7c0:	e3c00c03 	bic	r0, r0, #768	; 0x300
 7c4:	e3c00087 	bic	r0, r0, #135	; 0x87
 7c8:	e3800002 	orr	r0, r0, #2	; 0x2
 7cc:	e3800004 	orr	r0, r0, #4	; 0x4
 7d0:	e3800a01 	orr	r0, r0, #4096	; 0x1000
 7d4:	e3800001 	orr	r0, r0, #1	; 0x1
 7d8:	ee010f10 	mcr	15, 0, r0, cr1, cr0, {0}
 7dc:	e28bd000 	add	sp, fp, #0	; 0x0
 7e0:	e8bd0800 	pop	{fp}
 7e4:	e12fff1e 	bx	lr

000007e8 <create_page_table>:
 7e8:	e52db004 	push	{fp}		; (str fp, [sp, #-4]!)
 7ec:	e28db000 	add	fp, sp, #0	; 0x0
 7f0:	e24dd014 	sub	sp, sp, #20	; 0x14
 7f4:	e3a03203 	mov	r3, #805306368	; 0x30000000
 7f8:	e50b3008 	str	r3, [fp, #-8]
 7fc:	e3a03000 	mov	r3, #0	; 0x0
 800:	e50b3010 	str	r3, [fp, #-16]
 804:	e3a03000 	mov	r3, #0	; 0x0
 808:	e50b300c 	str	r3, [fp, #-12]
 80c:	e51b3010 	ldr	r3, [fp, #-16]
 810:	e1a03a23 	lsr	r3, r3, #20
 814:	e1a02103 	lsl	r2, r3, #2
 818:	e51b3008 	ldr	r3, [fp, #-8]
 81c:	e0832002 	add	r2, r3, r2
 820:	e51b300c 	ldr	r3, [fp, #-12]
 824:	e1a03a23 	lsr	r3, r3, #20
 828:	e1a03a03 	lsl	r3, r3, #20
 82c:	e3833ec1 	orr	r3, r3, #3088	; 0xc10
 830:	e383300e 	orr	r3, r3, #14	; 0xe
 834:	e5823000 	str	r3, [r2]
 838:	e3a0320a 	mov	r3, #-1610612736	; 0xa0000000
 83c:	e50b3010 	str	r3, [fp, #-16]
 840:	e3a03456 	mov	r3, #1442840576	; 0x56000000
 844:	e50b300c 	str	r3, [fp, #-12]
 848:	e51b3010 	ldr	r3, [fp, #-16]
 84c:	e1a03a23 	lsr	r3, r3, #20
 850:	e1a02103 	lsl	r2, r3, #2
 854:	e51b3008 	ldr	r3, [fp, #-8]
 858:	e0832002 	add	r2, r3, r2
 85c:	e51b300c 	ldr	r3, [fp, #-12]
 860:	e1a03a23 	lsr	r3, r3, #20
 864:	e1a03a03 	lsl	r3, r3, #20
 868:	e3833ec1 	orr	r3, r3, #3088	; 0xc10
 86c:	e3833002 	orr	r3, r3, #2	; 0x2
 870:	e5823000 	str	r3, [r2]
 874:	e3a0320b 	mov	r3, #-1342177280	; 0xb0000000
 878:	e50b3010 	str	r3, [fp, #-16]
 87c:	e3a03203 	mov	r3, #805306368	; 0x30000000
 880:	e50b300c 	str	r3, [fp, #-12]
 884:	ea000010 	b	8cc <create_page_table+0xe4>
 888:	e51b3010 	ldr	r3, [fp, #-16]
 88c:	e1a03a23 	lsr	r3, r3, #20
 890:	e1a02103 	lsl	r2, r3, #2
 894:	e51b3008 	ldr	r3, [fp, #-8]
 898:	e0832002 	add	r2, r3, r2
 89c:	e51b300c 	ldr	r3, [fp, #-12]
 8a0:	e1a03a23 	lsr	r3, r3, #20
 8a4:	e1a03a03 	lsl	r3, r3, #20
 8a8:	e3833ec1 	orr	r3, r3, #3088	; 0xc10
 8ac:	e383300e 	orr	r3, r3, #14	; 0xe
 8b0:	e5823000 	str	r3, [r2]
 8b4:	e51b3010 	ldr	r3, [fp, #-16]
 8b8:	e2833601 	add	r3, r3, #1048576	; 0x100000
 8bc:	e50b3010 	str	r3, [fp, #-16]
 8c0:	e51b300c 	ldr	r3, [fp, #-12]
 8c4:	e2833601 	add	r3, r3, #1048576	; 0x100000
 8c8:	e50b300c 	str	r3, [fp, #-12]
 8cc:	e51b3010 	ldr	r3, [fp, #-16]
 8d0:	e3730353 	cmn	r3, #1275068417	; 0x4c000001
 8d4:	9affffeb 	bls	888 <create_page_table+0xa0>
 8d8:	e28bd000 	add	sp, fp, #0	; 0x0
 8dc:	e8bd0800 	pop	{fp}
 8e0:	e12fff1e 	bx	lr

Disassembly of section .text:

30000000 <Delay_ms>:
30000000:	e52db004 	push	{fp}		; (str fp, [sp, #-4]!)
30000004:	e28db000 	add	fp, sp, #0	; 0x0
30000008:	e24dd014 	sub	sp, sp, #20	; 0x14
3000000c:	e50b0010 	str	r0, [fp, #-16]
30000010:	e3a03000 	mov	r3, #0	; 0x0
30000014:	e50b3008 	str	r3, [fp, #-8]
30000018:	ea00000a 	b	30000048 <Delay_ms+0x48>
3000001c:	e3a03000 	mov	r3, #0	; 0x0
30000020:	e50b3008 	str	r3, [fp, #-8]
30000024:	ea000002 	b	30000034 <Delay_ms+0x34>
30000028:	e51b3008 	ldr	r3, [fp, #-8]
3000002c:	e2833001 	add	r3, r3, #1	; 0x1
30000030:	e50b3008 	str	r3, [fp, #-8]
30000034:	e51b2008 	ldr	r2, [fp, #-8]
30000038:	e3a03dab 	mov	r3, #10944	; 0x2ac0
3000003c:	e2833037 	add	r3, r3, #55	; 0x37
30000040:	e1520003 	cmp	r2, r3
30000044:	dafffff7 	ble	30000028 <Delay_ms+0x28>
30000048:	e51b3010 	ldr	r3, [fp, #-16]
3000004c:	e3530000 	cmp	r3, #0	; 0x0
30000050:	03a03000 	moveq	r3, #0	; 0x0
30000054:	13a03001 	movne	r3, #1	; 0x1
30000058:	e20320ff 	and	r2, r3, #255	; 0xff
3000005c:	e51b3010 	ldr	r3, [fp, #-16]
30000060:	e2433001 	sub	r3, r3, #1	; 0x1
30000064:	e50b3010 	str	r3, [fp, #-16]
30000068:	e3520000 	cmp	r2, #0	; 0x0
3000006c:	1affffea 	bne	3000001c <Delay_ms+0x1c>
30000070:	e28bd000 	add	sp, fp, #0	; 0x0
30000074:	e8bd0800 	pop	{fp}
30000078:	e12fff1e 	bx	lr

3000007c <C_SWI_Handler>:
3000007c:	e92d4800 	push	{fp, lr}
30000080:	e28db004 	add	fp, sp, #4	; 0x4
30000084:	e24dd010 	sub	sp, sp, #16	; 0x10
30000088:	e50b0010 	str	r0, [fp, #-16]
3000008c:	e50b1014 	str	r1, [fp, #-20]
30000090:	e3a03000 	mov	r3, #0	; 0x0
30000094:	e50b3008 	str	r3, [fp, #-8]
30000098:	e51b3010 	ldr	r3, [fp, #-16]
3000009c:	e3530003 	cmp	r3, #3	; 0x3
300000a0:	908ff103 	addls	pc, pc, r3, lsl #2
300000a4:	ea000037 	b	30000188 <C_SWI_Handler+0x10c>
300000a8:	ea000002 	b	300000b8 <C_SWI_Handler+0x3c>
300000ac:	ea00001d 	b	30000128 <C_SWI_Handler+0xac>
300000b0:	ea000024 	b	30000148 <C_SWI_Handler+0xcc>
300000b4:	ea00002b 	b	30000168 <C_SWI_Handler+0xec>
300000b8:	e3a03000 	mov	r3, #0	; 0x0
300000bc:	e50b3008 	str	r3, [fp, #-8]
300000c0:	ea000014 	b	30000118 <C_SWI_Handler+0x9c>
300000c4:	e3a02456 	mov	r2, #1442840576	; 0x56000000
300000c8:	e2822014 	add	r2, r2, #20	; 0x14
300000cc:	e3a03456 	mov	r3, #1442840576	; 0x56000000
300000d0:	e2833014 	add	r3, r3, #20	; 0x14
300000d4:	e5933000 	ldr	r3, [r3]
300000d8:	e3833020 	orr	r3, r3, #32	; 0x20
300000dc:	e5823000 	str	r3, [r2]
300000e0:	e3a00ffa 	mov	r0, #1000	; 0x3e8
300000e4:	ebffffc5 	bl	30000000 <Delay_ms>
300000e8:	e3a02456 	mov	r2, #1442840576	; 0x56000000
300000ec:	e2822014 	add	r2, r2, #20	; 0x14
300000f0:	e3a03456 	mov	r3, #1442840576	; 0x56000000
300000f4:	e2833014 	add	r3, r3, #20	; 0x14
300000f8:	e5933000 	ldr	r3, [r3]
300000fc:	e3c33020 	bic	r3, r3, #32	; 0x20
30000100:	e5823000 	str	r3, [r2]
30000104:	e3a00ffa 	mov	r0, #1000	; 0x3e8
30000108:	ebffffbc 	bl	30000000 <Delay_ms>
3000010c:	e51b3008 	ldr	r3, [fp, #-8]
30000110:	e2833001 	add	r3, r3, #1	; 0x1
30000114:	e50b3008 	str	r3, [fp, #-8]
30000118:	e51b3008 	ldr	r3, [fp, #-8]
3000011c:	e3530009 	cmp	r3, #9	; 0x9
30000120:	daffffe7 	ble	300000c4 <C_SWI_Handler+0x48>
30000124:	ea00001b 	b	30000198 <C_SWI_Handler+0x11c>
30000128:	e3a02456 	mov	r2, #1442840576	; 0x56000000
3000012c:	e2822014 	add	r2, r2, #20	; 0x14
30000130:	e3a03456 	mov	r3, #1442840576	; 0x56000000
30000134:	e2833014 	add	r3, r3, #20	; 0x14
30000138:	e5933000 	ldr	r3, [r3]
3000013c:	e3c33040 	bic	r3, r3, #64	; 0x40
30000140:	e5823000 	str	r3, [r2]
30000144:	ea000013 	b	30000198 <C_SWI_Handler+0x11c>
30000148:	e3a02456 	mov	r2, #1442840576	; 0x56000000
3000014c:	e2822014 	add	r2, r2, #20	; 0x14
30000150:	e3a03456 	mov	r3, #1442840576	; 0x56000000
30000154:	e2833014 	add	r3, r3, #20	; 0x14
30000158:	e5933000 	ldr	r3, [r3]
3000015c:	e3c33080 	bic	r3, r3, #128	; 0x80
30000160:	e5823000 	str	r3, [r2]
30000164:	ea00000b 	b	30000198 <C_SWI_Handler+0x11c>
30000168:	e3a02456 	mov	r2, #1442840576	; 0x56000000
3000016c:	e2822014 	add	r2, r2, #20	; 0x14
30000170:	e3a03456 	mov	r3, #1442840576	; 0x56000000
30000174:	e2833014 	add	r3, r3, #20	; 0x14
30000178:	e5933000 	ldr	r3, [r3]
3000017c:	e3c33c01 	bic	r3, r3, #256	; 0x100
30000180:	e5823000 	str	r3, [r2]
30000184:	ea000003 	b	30000198 <C_SWI_Handler+0x11c>
30000188:	e3a03456 	mov	r3, #1442840576	; 0x56000000
3000018c:	e2833014 	add	r3, r3, #20	; 0x14
30000190:	e3e02000 	mvn	r2, #0	; 0x0
30000194:	e5832000 	str	r2, [r3]
30000198:	e24bd004 	sub	sp, fp, #4	; 0x4
3000019c:	e8bd4800 	pop	{fp, lr}
300001a0:	e12fff1e 	bx	lr

300001a4 <myswi>:
300001a4:	e52db004 	push	{fp}		; (str fp, [sp, #-4]!)
300001a8:	e28db000 	add	fp, sp, #0	; 0x0
300001ac:	ef000000 	svc	0x00000000
300001b0:	e28bd000 	add	sp, fp, #0	; 0x0
300001b4:	e8bd0800 	pop	{fp}
300001b8:	e12fff1e 	bx	lr

300001bc <__led_on>:
300001bc:	e52db004 	push	{fp}		; (str fp, [sp, #-4]!)
300001c0:	e28db000 	add	fp, sp, #0	; 0x0
300001c4:	e24dd00c 	sub	sp, sp, #12	; 0xc
300001c8:	e50b0008 	str	r0, [fp, #-8]
300001cc:	e3a02456 	mov	r2, #1442840576	; 0x56000000
300001d0:	e2822014 	add	r2, r2, #20	; 0x14
300001d4:	e3a03801 	mov	r3, #65536	; 0x10000
300001d8:	e2433001 	sub	r3, r3, #1	; 0x1
300001dc:	e5823000 	str	r3, [r2]
300001e0:	e3a02456 	mov	r2, #1442840576	; 0x56000000
300001e4:	e2822014 	add	r2, r2, #20	; 0x14
300001e8:	e51b3008 	ldr	r3, [fp, #-8]
300001ec:	e203300f 	and	r3, r3, #15	; 0xf
300001f0:	e1a03283 	lsl	r3, r3, #5
300001f4:	e1e03003 	mvn	r3, r3
300001f8:	e5823000 	str	r3, [r2]
300001fc:	e3a03000 	mov	r3, #0	; 0x0
30000200:	e1a00003 	mov	r0, r3
30000204:	e28bd000 	add	sp, fp, #0	; 0x0
30000208:	e8bd0800 	pop	{fp}
3000020c:	e12fff1e 	bx	lr

30000210 <__led_off>:
30000210:	e52db004 	push	{fp}		; (str fp, [sp, #-4]!)
30000214:	e28db000 	add	fp, sp, #0	; 0x0
30000218:	e24dd00c 	sub	sp, sp, #12	; 0xc
3000021c:	e50b0008 	str	r0, [fp, #-8]
30000220:	e3a02456 	mov	r2, #1442840576	; 0x56000000
30000224:	e2822014 	add	r2, r2, #20	; 0x14
30000228:	e3a03456 	mov	r3, #1442840576	; 0x56000000
3000022c:	e2833014 	add	r3, r3, #20	; 0x14
30000230:	e5931000 	ldr	r1, [r3]
30000234:	e51b3008 	ldr	r3, [fp, #-8]
30000238:	e203300f 	and	r3, r3, #15	; 0xf
3000023c:	e1a03283 	lsl	r3, r3, #5
30000240:	e1813003 	orr	r3, r1, r3
30000244:	e5823000 	str	r3, [r2]
30000248:	e3a03000 	mov	r3, #0	; 0x0
3000024c:	e1a00003 	mov	r0, r3
30000250:	e28bd000 	add	sp, fp, #0	; 0x0
30000254:	e8bd0800 	pop	{fp}
30000258:	e12fff1e 	bx	lr

3000025c <__read>:
3000025c:	e52db004 	push	{fp}		; (str fp, [sp, #-4]!)
30000260:	e28db000 	add	fp, sp, #0	; 0x0
30000264:	e24dd00c 	sub	sp, sp, #12	; 0xc
30000268:	e50b0008 	str	r0, [fp, #-8]
3000026c:	e3a03000 	mov	r3, #0	; 0x0
30000270:	e1a00003 	mov	r0, r3
30000274:	e28bd000 	add	sp, fp, #0	; 0x0
30000278:	e8bd0800 	pop	{fp}
3000027c:	e12fff1e 	bx	lr

30000280 <__write>:
30000280:	e52db004 	push	{fp}		; (str fp, [sp, #-4]!)
30000284:	e28db000 	add	fp, sp, #0	; 0x0
30000288:	e24dd00c 	sub	sp, sp, #12	; 0xc
3000028c:	e50b0008 	str	r0, [fp, #-8]
30000290:	e3a03000 	mov	r3, #0	; 0x0
30000294:	e1a00003 	mov	r0, r3
30000298:	e28bd000 	add	sp, fp, #0	; 0x0
3000029c:	e8bd0800 	pop	{fp}
300002a0:	e12fff1e 	bx	lr

300002a4 <__lock>:
300002a4:	e52db004 	push	{fp}		; (str fp, [sp, #-4]!)
300002a8:	e28db000 	add	fp, sp, #0	; 0x0
300002ac:	e3a03000 	mov	r3, #0	; 0x0
300002b0:	e1a00003 	mov	r0, r3
300002b4:	e28bd000 	add	sp, fp, #0	; 0x0
300002b8:	e8bd0800 	pop	{fp}
300002bc:	e12fff1e 	bx	lr

300002c0 <__key_on>:
300002c0:	e52db004 	push	{fp}		; (str fp, [sp, #-4]!)
300002c4:	e28db000 	add	fp, sp, #0	; 0x0
300002c8:	e24dd00c 	sub	sp, sp, #12	; 0xc
300002cc:	e50b0008 	str	r0, [fp, #-8]
300002d0:	e3a03000 	mov	r3, #0	; 0x0
300002d4:	e1a00003 	mov	r0, r3
300002d8:	e28bd000 	add	sp, fp, #0	; 0x0
300002dc:	e8bd0800 	pop	{fp}
300002e0:	e12fff1e 	bx	lr

300002e4 <__key_off>:
300002e4:	e52db004 	push	{fp}		; (str fp, [sp, #-4]!)
300002e8:	e28db000 	add	fp, sp, #0	; 0x0
300002ec:	e24dd00c 	sub	sp, sp, #12	; 0xc
300002f0:	e50b0008 	str	r0, [fp, #-8]
300002f4:	e3a03000 	mov	r3, #0	; 0x0
300002f8:	e1a00003 	mov	r0, r3
300002fc:	e28bd000 	add	sp, fp, #0	; 0x0
30000300:	e8bd0800 	pop	{fp}
30000304:	e12fff1e 	bx	lr

30000308 <__test>:
30000308:	e52db004 	push	{fp}		; (str fp, [sp, #-4]!)
3000030c:	e28db000 	add	fp, sp, #0	; 0x0
30000310:	e3a03000 	mov	r3, #0	; 0x0
30000314:	e1a00003 	mov	r0, r3
30000318:	e28bd000 	add	sp, fp, #0	; 0x0
3000031c:	e8bd0800 	pop	{fp}
30000320:	e12fff1e 	bx	lr

30000324 <__printf>:
30000324:	e52db004 	push	{fp}		; (str fp, [sp, #-4]!)
30000328:	e28db000 	add	fp, sp, #0	; 0x0
3000032c:	e24dd00c 	sub	sp, sp, #12	; 0xc
30000330:	e50b0008 	str	r0, [fp, #-8]
30000334:	e3a03000 	mov	r3, #0	; 0x0
30000338:	e1a00003 	mov	r0, r3
3000033c:	e28bd000 	add	sp, fp, #0	; 0x0
30000340:	e8bd0800 	pop	{fp}
30000344:	e12fff1e 	bx	lr

30000348 <__putchar>:
30000348:	e52db004 	push	{fp}		; (str fp, [sp, #-4]!)
3000034c:	e28db000 	add	fp, sp, #0	; 0x0
30000350:	e24dd00c 	sub	sp, sp, #12	; 0xc
30000354:	e1a03000 	mov	r3, r0
30000358:	e54b3005 	strb	r3, [fp, #-5]
3000035c:	e3a03000 	mov	r3, #0	; 0x0
30000360:	e1a00003 	mov	r0, r3
30000364:	e28bd000 	add	sp, fp, #0	; 0x0
30000368:	e8bd0800 	pop	{fp}
3000036c:	e12fff1e 	bx	lr

30000370 <lock>:
30000370:	e52db004 	push	{fp}		; (str fp, [sp, #-4]!)
30000374:	e28db000 	add	fp, sp, #0	; 0x0
30000378:	e24dd00c 	sub	sp, sp, #12	; 0xc
3000037c:	e3a03004 	mov	r3, #4	; 0x4
30000380:	ef000001 	svc	0x00000001
30000384:	e50b3008 	str	r3, [fp, #-8]
30000388:	e51b3008 	ldr	r3, [fp, #-8]
3000038c:	e1a00003 	mov	r0, r3
30000390:	e28bd000 	add	sp, fp, #0	; 0x0
30000394:	e8bd0800 	pop	{fp}
30000398:	e12fff1e 	bx	lr

3000039c <test>:
3000039c:	e52db004 	push	{fp}		; (str fp, [sp, #-4]!)
300003a0:	e28db000 	add	fp, sp, #0	; 0x0
300003a4:	e24dd00c 	sub	sp, sp, #12	; 0xc
300003a8:	e3a03007 	mov	r3, #7	; 0x7
300003ac:	ef000001 	svc	0x00000001
300003b0:	e50b3008 	str	r3, [fp, #-8]
300003b4:	e51b3008 	ldr	r3, [fp, #-8]
300003b8:	e1a00003 	mov	r0, r3
300003bc:	e28bd000 	add	sp, fp, #0	; 0x0
300003c0:	e8bd0800 	pop	{fp}
300003c4:	e12fff1e 	bx	lr

300003c8 <led_on>:
300003c8:	e52db004 	push	{fp}		; (str fp, [sp, #-4]!)
300003cc:	e28db000 	add	fp, sp, #0	; 0x0
300003d0:	e24dd014 	sub	sp, sp, #20	; 0x14
300003d4:	e50b0010 	str	r0, [fp, #-16]
300003d8:	e3a02000 	mov	r2, #0	; 0x0
300003dc:	e51b3010 	ldr	r3, [fp, #-16]
300003e0:	e1a00002 	mov	r0, r2
300003e4:	e1a01003 	mov	r1, r3
300003e8:	ef000001 	svc	0x00000001
300003ec:	e50b3008 	str	r3, [fp, #-8]
300003f0:	e51b3008 	ldr	r3, [fp, #-8]
300003f4:	e1a00003 	mov	r0, r3
300003f8:	e28bd000 	add	sp, fp, #0	; 0x0
300003fc:	e8bd0800 	pop	{fp}
30000400:	e12fff1e 	bx	lr

30000404 <led_off>:
30000404:	e52db004 	push	{fp}		; (str fp, [sp, #-4]!)
30000408:	e28db000 	add	fp, sp, #0	; 0x0
3000040c:	e24dd014 	sub	sp, sp, #20	; 0x14
30000410:	e50b0010 	str	r0, [fp, #-16]
30000414:	e3a02001 	mov	r2, #1	; 0x1
30000418:	e51b3010 	ldr	r3, [fp, #-16]
3000041c:	e1a00002 	mov	r0, r2
30000420:	e1a01003 	mov	r1, r3
30000424:	ef000001 	svc	0x00000001
30000428:	e50b3008 	str	r3, [fp, #-8]
3000042c:	e51b3008 	ldr	r3, [fp, #-8]
30000430:	e1a00003 	mov	r0, r3
30000434:	e28bd000 	add	sp, fp, #0	; 0x0
30000438:	e8bd0800 	pop	{fp}
3000043c:	e12fff1e 	bx	lr

30000440 <read>:
30000440:	e52db004 	push	{fp}		; (str fp, [sp, #-4]!)
30000444:	e28db000 	add	fp, sp, #0	; 0x0
30000448:	e24dd014 	sub	sp, sp, #20	; 0x14
3000044c:	e50b0010 	str	r0, [fp, #-16]
30000450:	e3a02002 	mov	r2, #2	; 0x2
30000454:	e51b3010 	ldr	r3, [fp, #-16]
30000458:	e1a00002 	mov	r0, r2
3000045c:	e1a01003 	mov	r1, r3
30000460:	ef000001 	svc	0x00000001
30000464:	e50b3008 	str	r3, [fp, #-8]
30000468:	e51b3008 	ldr	r3, [fp, #-8]
3000046c:	e1a00003 	mov	r0, r3
30000470:	e28bd000 	add	sp, fp, #0	; 0x0
30000474:	e8bd0800 	pop	{fp}
30000478:	e12fff1e 	bx	lr

3000047c <write>:
3000047c:	e52db004 	push	{fp}		; (str fp, [sp, #-4]!)
30000480:	e28db000 	add	fp, sp, #0	; 0x0
30000484:	e24dd014 	sub	sp, sp, #20	; 0x14
30000488:	e50b0010 	str	r0, [fp, #-16]
3000048c:	e3a02003 	mov	r2, #3	; 0x3
30000490:	e51b3010 	ldr	r3, [fp, #-16]
30000494:	e1a00002 	mov	r0, r2
30000498:	e1a01003 	mov	r1, r3
3000049c:	ef000001 	svc	0x00000001
300004a0:	e50b3008 	str	r3, [fp, #-8]
300004a4:	e51b3008 	ldr	r3, [fp, #-8]
300004a8:	e1a00003 	mov	r0, r3
300004ac:	e28bd000 	add	sp, fp, #0	; 0x0
300004b0:	e8bd0800 	pop	{fp}
300004b4:	e12fff1e 	bx	lr

300004b8 <key_off>:
300004b8:	e52db004 	push	{fp}		; (str fp, [sp, #-4]!)
300004bc:	e28db000 	add	fp, sp, #0	; 0x0
300004c0:	e24dd014 	sub	sp, sp, #20	; 0x14
300004c4:	e50b0010 	str	r0, [fp, #-16]
300004c8:	e3a02006 	mov	r2, #6	; 0x6
300004cc:	e51b3010 	ldr	r3, [fp, #-16]
300004d0:	e1a00002 	mov	r0, r2
300004d4:	e1a01003 	mov	r1, r3
300004d8:	ef000001 	svc	0x00000001
300004dc:	e50b3008 	str	r3, [fp, #-8]
300004e0:	e51b3008 	ldr	r3, [fp, #-8]
300004e4:	e1a00003 	mov	r0, r3
300004e8:	e28bd000 	add	sp, fp, #0	; 0x0
300004ec:	e8bd0800 	pop	{fp}
300004f0:	e12fff1e 	bx	lr

300004f4 <myprintf>:
300004f4:	e52db004 	push	{fp}		; (str fp, [sp, #-4]!)
300004f8:	e28db000 	add	fp, sp, #0	; 0x0
300004fc:	e24dd014 	sub	sp, sp, #20	; 0x14
30000500:	e50b0010 	str	r0, [fp, #-16]
30000504:	e3a02008 	mov	r2, #8	; 0x8
30000508:	e51b3010 	ldr	r3, [fp, #-16]
3000050c:	e1a00002 	mov	r0, r2
30000510:	e1a01003 	mov	r1, r3
30000514:	ef000001 	svc	0x00000001
30000518:	e50b3008 	str	r3, [fp, #-8]
3000051c:	e51b3008 	ldr	r3, [fp, #-8]
30000520:	e1a00003 	mov	r0, r3
30000524:	e28bd000 	add	sp, fp, #0	; 0x0
30000528:	e8bd0800 	pop	{fp}
3000052c:	e12fff1e 	bx	lr

30000530 <myputchar>:
30000530:	e52db004 	push	{fp}		; (str fp, [sp, #-4]!)
30000534:	e28db000 	add	fp, sp, #0	; 0x0
30000538:	e24dd014 	sub	sp, sp, #20	; 0x14
3000053c:	e1a03000 	mov	r3, r0
30000540:	e54b300d 	strb	r3, [fp, #-13]
30000544:	e3a02009 	mov	r2, #9	; 0x9
30000548:	e55b300d 	ldrb	r3, [fp, #-13]
3000054c:	e1a00002 	mov	r0, r2
30000550:	e1a01003 	mov	r1, r3
30000554:	ef000001 	svc	0x00000001
30000558:	e50b3008 	str	r3, [fp, #-8]
3000055c:	e51b3008 	ldr	r3, [fp, #-8]
30000560:	e1a00003 	mov	r0, r3
30000564:	e28bd000 	add	sp, fp, #0	; 0x0
30000568:	e8bd0800 	pop	{fp}
3000056c:	e12fff1e 	bx	lr

30000570 <uart0_init>:
30000570:	e52db004 	push	{fp}		; (str fp, [sp, #-4]!)
30000574:	e28db000 	add	fp, sp, #0	; 0x0
30000578:	e3a02456 	mov	r2, #1442840576	; 0x56000000
3000057c:	e2822070 	add	r2, r2, #112	; 0x70
30000580:	e3a03456 	mov	r3, #1442840576	; 0x56000000
30000584:	e2833070 	add	r3, r3, #112	; 0x70
30000588:	e5933000 	ldr	r3, [r3]
3000058c:	e38330a0 	orr	r3, r3, #160	; 0xa0
30000590:	e5823000 	str	r3, [r2]
30000594:	e3a03456 	mov	r3, #1442840576	; 0x56000000
30000598:	e2833078 	add	r3, r3, #120	; 0x78
3000059c:	e3a0200c 	mov	r2, #12	; 0xc
300005a0:	e5832000 	str	r2, [r3]
300005a4:	e3a02205 	mov	r2, #1342177280	; 0x50000000
300005a8:	e3a03003 	mov	r3, #3	; 0x3
300005ac:	e5823000 	str	r3, [r2]
300005b0:	e3a02245 	mov	r2, #1342177284	; 0x50000004
300005b4:	e3a03005 	mov	r3, #5	; 0x5
300005b8:	e5823000 	str	r3, [r2]
300005bc:	e3a02285 	mov	r2, #1342177288	; 0x50000008
300005c0:	e3a03000 	mov	r3, #0	; 0x0
300005c4:	e5823000 	str	r3, [r2]
300005c8:	e3a022c5 	mov	r2, #1342177292	; 0x5000000c
300005cc:	e3a03000 	mov	r3, #0	; 0x0
300005d0:	e5823000 	str	r3, [r2]
300005d4:	e3a03205 	mov	r3, #1342177280	; 0x50000000
300005d8:	e2833028 	add	r3, r3, #40	; 0x28
300005dc:	e3a0201a 	mov	r2, #26	; 0x1a
300005e0:	e5832000 	str	r2, [r3]
300005e4:	e28bd000 	add	sp, fp, #0	; 0x0
300005e8:	e8bd0800 	pop	{fp}
300005ec:	e12fff1e 	bx	lr

300005f0 <Uart_Init>:
300005f0:	e52db004 	push	{fp}		; (str fp, [sp, #-4]!)
300005f4:	e28db000 	add	fp, sp, #0	; 0x0
300005f8:	e24dd00c 	sub	sp, sp, #12	; 0xc
300005fc:	e50b0008 	str	r0, [fp, #-8]
30000600:	e50b100c 	str	r1, [fp, #-12]
30000604:	e3a01456 	mov	r1, #1442840576	; 0x56000000
30000608:	e2811070 	add	r1, r1, #112	; 0x70
3000060c:	e3a03456 	mov	r3, #1442840576	; 0x56000000
30000610:	e2833070 	add	r3, r3, #112	; 0x70
30000614:	e5930000 	ldr	r0, [r3]
30000618:	e51b3008 	ldr	r3, [fp, #-8]
3000061c:	e2833002 	add	r3, r3, #2	; 0x2
30000620:	e1a03083 	lsl	r3, r3, #1
30000624:	e1a02003 	mov	r2, r3
30000628:	e3a03002 	mov	r3, #2	; 0x2
3000062c:	e1a03213 	lsl	r3, r3, r2
30000630:	e1803003 	orr	r3, r0, r3
30000634:	e5813000 	str	r3, [r1]
30000638:	e3a01456 	mov	r1, #1442840576	; 0x56000000
3000063c:	e2811078 	add	r1, r1, #120	; 0x78
30000640:	e51b3008 	ldr	r3, [fp, #-8]
30000644:	e2833002 	add	r3, r3, #2	; 0x2
30000648:	e1a02003 	mov	r2, r3
3000064c:	e3a03001 	mov	r3, #1	; 0x1
30000650:	e1a00213 	lsl	r0, r3, r2
30000654:	e51b3008 	ldr	r3, [fp, #-8]
30000658:	e2833003 	add	r3, r3, #3	; 0x3
3000065c:	e1a02003 	mov	r2, r3
30000660:	e3a03001 	mov	r3, #1	; 0x1
30000664:	e1a03213 	lsl	r3, r3, r2
30000668:	e1803003 	orr	r3, r0, r3
3000066c:	e5813000 	str	r3, [r1]
30000670:	e3a02205 	mov	r2, #1342177280	; 0x50000000
30000674:	e3a03003 	mov	r3, #3	; 0x3
30000678:	e5823000 	str	r3, [r2]
3000067c:	e3a02245 	mov	r2, #1342177284	; 0x50000004
30000680:	e3a0308a 	mov	r3, #138	; 0x8a
30000684:	e5823000 	str	r3, [r2]
30000688:	e3a02285 	mov	r2, #1342177288	; 0x50000008
3000068c:	e3a030f1 	mov	r3, #241	; 0xf1
30000690:	e5823000 	str	r3, [r2]
30000694:	e3a022c5 	mov	r2, #1342177292	; 0x5000000c
30000698:	e3a03000 	mov	r3, #0	; 0x0
3000069c:	e5823000 	str	r3, [r2]
300006a0:	e3a03205 	mov	r3, #1342177280	; 0x50000000
300006a4:	e2833028 	add	r3, r3, #40	; 0x28
300006a8:	e51b200c 	ldr	r2, [fp, #-12]
300006ac:	e5832000 	str	r2, [r3]
300006b0:	e3a03000 	mov	r3, #0	; 0x0
300006b4:	e1a00003 	mov	r0, r3
300006b8:	e28bd000 	add	sp, fp, #0	; 0x0
300006bc:	e8bd0800 	pop	{fp}
300006c0:	e12fff1e 	bx	lr

300006c4 <put_c>:
300006c4:	e52db004 	push	{fp}		; (str fp, [sp, #-4]!)
300006c8:	e28db000 	add	fp, sp, #0	; 0x0
300006cc:	e24dd00c 	sub	sp, sp, #12	; 0xc
300006d0:	e1a03000 	mov	r3, r0
300006d4:	e54b3005 	strb	r3, [fp, #-5]
300006d8:	e3a03205 	mov	r3, #1342177280	; 0x50000000
300006dc:	e2833010 	add	r3, r3, #16	; 0x10
300006e0:	e5933000 	ldr	r3, [r3]
300006e4:	e2033004 	and	r3, r3, #4	; 0x4
300006e8:	e3530000 	cmp	r3, #0	; 0x0
300006ec:	0afffff9 	beq	300006d8 <put_c+0x14>
300006f0:	e3a03205 	mov	r3, #1342177280	; 0x50000000
300006f4:	e2833020 	add	r3, r3, #32	; 0x20
300006f8:	e55b2005 	ldrb	r2, [fp, #-5]
300006fc:	e5c32000 	strb	r2, [r3]
30000700:	e28bd000 	add	sp, fp, #0	; 0x0
30000704:	e8bd0800 	pop	{fp}
30000708:	e12fff1e 	bx	lr

3000070c <getc>:
3000070c:	e52db004 	push	{fp}		; (str fp, [sp, #-4]!)
30000710:	e28db000 	add	fp, sp, #0	; 0x0
30000714:	e3a03205 	mov	r3, #1342177280	; 0x50000000
30000718:	e2833010 	add	r3, r3, #16	; 0x10
3000071c:	e5933000 	ldr	r3, [r3]
30000720:	e2033001 	and	r3, r3, #1	; 0x1
30000724:	e3530000 	cmp	r3, #0	; 0x0
30000728:	0afffff9 	beq	30000714 <getc+0x8>
3000072c:	e3a03205 	mov	r3, #1342177280	; 0x50000000
30000730:	e2833024 	add	r3, r3, #36	; 0x24
30000734:	e5d33000 	ldrb	r3, [r3]
30000738:	e20330ff 	and	r3, r3, #255	; 0xff
3000073c:	e1a00003 	mov	r0, r3
30000740:	e28bd000 	add	sp, fp, #0	; 0x0
30000744:	e8bd0800 	pop	{fp}
30000748:	e12fff1e 	bx	lr

3000074c <isDigit>:
3000074c:	e52db004 	push	{fp}		; (str fp, [sp, #-4]!)
30000750:	e28db000 	add	fp, sp, #0	; 0x0
30000754:	e24dd00c 	sub	sp, sp, #12	; 0xc
30000758:	e1a03000 	mov	r3, r0
3000075c:	e54b3005 	strb	r3, [fp, #-5]
30000760:	e55b3005 	ldrb	r3, [fp, #-5]
30000764:	e353002f 	cmp	r3, #47	; 0x2f
30000768:	9a000005 	bls	30000784 <isDigit+0x38>
3000076c:	e55b3005 	ldrb	r3, [fp, #-5]
30000770:	e3530039 	cmp	r3, #57	; 0x39
30000774:	8a000002 	bhi	30000784 <isDigit+0x38>
30000778:	e3a03001 	mov	r3, #1	; 0x1
3000077c:	e50b300c 	str	r3, [fp, #-12]
30000780:	ea000001 	b	3000078c <isDigit+0x40>
30000784:	e3a03000 	mov	r3, #0	; 0x0
30000788:	e50b300c 	str	r3, [fp, #-12]
3000078c:	e51b300c 	ldr	r3, [fp, #-12]
30000790:	e1a00003 	mov	r0, r3
30000794:	e28bd000 	add	sp, fp, #0	; 0x0
30000798:	e8bd0800 	pop	{fp}
3000079c:	e12fff1e 	bx	lr

300007a0 <isLetter>:
300007a0:	e52db004 	push	{fp}		; (str fp, [sp, #-4]!)
300007a4:	e28db000 	add	fp, sp, #0	; 0x0
300007a8:	e24dd00c 	sub	sp, sp, #12	; 0xc
300007ac:	e1a03000 	mov	r3, r0
300007b0:	e54b3005 	strb	r3, [fp, #-5]
300007b4:	e55b3005 	ldrb	r3, [fp, #-5]
300007b8:	e3530060 	cmp	r3, #96	; 0x60
300007bc:	9a000005 	bls	300007d8 <isLetter+0x38>
300007c0:	e55b3005 	ldrb	r3, [fp, #-5]
300007c4:	e353007a 	cmp	r3, #122	; 0x7a
300007c8:	8a000002 	bhi	300007d8 <isLetter+0x38>
300007cc:	e3a03001 	mov	r3, #1	; 0x1
300007d0:	e50b300c 	str	r3, [fp, #-12]
300007d4:	ea00000a 	b	30000804 <isLetter+0x64>
300007d8:	e55b3005 	ldrb	r3, [fp, #-5]
300007dc:	e3530040 	cmp	r3, #64	; 0x40
300007e0:	9a000005 	bls	300007fc <isLetter+0x5c>
300007e4:	e55b3005 	ldrb	r3, [fp, #-5]
300007e8:	e353005a 	cmp	r3, #90	; 0x5a
300007ec:	8a000002 	bhi	300007fc <isLetter+0x5c>
300007f0:	e3a03001 	mov	r3, #1	; 0x1
300007f4:	e50b300c 	str	r3, [fp, #-12]
300007f8:	ea000001 	b	30000804 <isLetter+0x64>
300007fc:	e3a03000 	mov	r3, #0	; 0x0
30000800:	e50b300c 	str	r3, [fp, #-12]
30000804:	e51b300c 	ldr	r3, [fp, #-12]
30000808:	e1a00003 	mov	r0, r3
3000080c:	e28bd000 	add	sp, fp, #0	; 0x0
30000810:	e8bd0800 	pop	{fp}
30000814:	e12fff1e 	bx	lr

30000818 <printf_word>:
30000818:	e92d4800 	push	{fp, lr}
3000081c:	e28db004 	add	fp, sp, #4	; 0x4
30000820:	e24dd010 	sub	sp, sp, #16	; 0x10
30000824:	e50b0010 	str	r0, [fp, #-16]
30000828:	e3a03000 	mov	r3, #0	; 0x0
3000082c:	e54b3005 	strb	r3, [fp, #-5]
30000830:	e51b3010 	ldr	r3, [fp, #-16]
30000834:	e54b3005 	strb	r3, [fp, #-5]
30000838:	e51b3010 	ldr	r3, [fp, #-16]
3000083c:	e1a03423 	lsr	r3, r3, #8
30000840:	e50b3010 	str	r3, [fp, #-16]
30000844:	e55b3005 	ldrb	r3, [fp, #-5]
30000848:	e1a00003 	mov	r0, r3
3000084c:	ebffff9c 	bl	300006c4 <put_c>
30000850:	e51b3010 	ldr	r3, [fp, #-16]
30000854:	e3530000 	cmp	r3, #0	; 0x0
30000858:	1afffff4 	bne	30000830 <printf_word+0x18>
3000085c:	e24bd004 	sub	sp, fp, #4	; 0x4
30000860:	e8bd4800 	pop	{fp, lr}
30000864:	e12fff1e 	bx	lr

30000868 <printf_string>:
30000868:	e92d4800 	push	{fp, lr}
3000086c:	e28db004 	add	fp, sp, #4	; 0x4
30000870:	e24dd008 	sub	sp, sp, #8	; 0x8
30000874:	e50b0008 	str	r0, [fp, #-8]
30000878:	e51b3008 	ldr	r3, [fp, #-8]
3000087c:	e3530000 	cmp	r3, #0	; 0x0
30000880:	0a00000b 	beq	300008b4 <printf_string+0x4c>
30000884:	ea000006 	b	300008a4 <printf_string+0x3c>
30000888:	e51b3008 	ldr	r3, [fp, #-8]
3000088c:	e5d32000 	ldrb	r2, [r3]
30000890:	e51b3008 	ldr	r3, [fp, #-8]
30000894:	e2833001 	add	r3, r3, #1	; 0x1
30000898:	e50b3008 	str	r3, [fp, #-8]
3000089c:	e1a00002 	mov	r0, r2
300008a0:	ebffff87 	bl	300006c4 <put_c>
300008a4:	e51b3008 	ldr	r3, [fp, #-8]
300008a8:	e5d33000 	ldrb	r3, [r3]
300008ac:	e3530000 	cmp	r3, #0	; 0x0
300008b0:	1afffff4 	bne	30000888 <printf_string+0x20>
300008b4:	e24bd004 	sub	sp, fp, #4	; 0x4
300008b8:	e8bd4800 	pop	{fp, lr}
300008bc:	e12fff1e 	bx	lr

300008c0 <Register_Uart>:
300008c0:	e52db004 	push	{fp}		; (str fp, [sp, #-4]!)
300008c4:	e28db000 	add	fp, sp, #0	; 0x0
300008c8:	e24dd00c 	sub	sp, sp, #12	; 0xc
300008cc:	e50b0008 	str	r0, [fp, #-8]
300008d0:	e3a03000 	mov	r3, #0	; 0x0
300008d4:	e1a00003 	mov	r0, r3
300008d8:	e28bd000 	add	sp, fp, #0	; 0x0
300008dc:	e8bd0800 	pop	{fp}
300008e0:	e12fff1e 	bx	lr

300008e4 <Dma0_Handle>:
300008e4:	e92d4800 	push	{fp, lr}
300008e8:	e28db004 	add	fp, sp, #4	; 0x4
300008ec:	e24dd008 	sub	sp, sp, #8	; 0x8
300008f0:	e59f3030 	ldr	r3, [pc, #48]	; 30000928 <Dma0_Handle+0x44>
300008f4:	e08f3003 	add	r3, pc, r3
300008f8:	e50b0008 	str	r0, [fp, #-8]
300008fc:	e59f2028 	ldr	r2, [pc, #40]	; 3000092c <Dma0_Handle+0x48>
30000900:	e0833002 	add	r3, r3, r2
30000904:	e1a00003 	mov	r0, r3
30000908:	eb000166 	bl	30000ea8 <puts>
3000090c:	e3a03456 	mov	r3, #1442840576	; 0x56000000
30000910:	e2833014 	add	r3, r3, #20	; 0x14
30000914:	e3a02e12 	mov	r2, #288	; 0x120
30000918:	e5832000 	str	r2, [r3]
3000091c:	e24bd004 	sub	sp, fp, #4	; 0x4
30000920:	e8bd4800 	pop	{fp, lr}
30000924:	e12fff1e 	bx	lr
30000928:	cffff704 	.word	0xcffff704
3000092c:	3000bffc 	.word	0x3000bffc

30000930 <DMA_memcpy>:
30000930:	e52db004 	push	{fp}		; (str fp, [sp, #-4]!)
30000934:	e28db000 	add	fp, sp, #0	; 0x0
30000938:	e24dd014 	sub	sp, sp, #20	; 0x14
3000093c:	e50b0008 	str	r0, [fp, #-8]
30000940:	e50b100c 	str	r1, [fp, #-12]
30000944:	e50b2010 	str	r2, [fp, #-16]
30000948:	e3a0244b 	mov	r2, #1258291200	; 0x4b000000
3000094c:	e51b300c 	ldr	r3, [fp, #-12]
30000950:	e3c33102 	bic	r3, r3, #-2147483648	; 0x80000000
30000954:	e5823000 	str	r3, [r2]
30000958:	e3a0344b 	mov	r3, #1258291200	; 0x4b000000
3000095c:	e2833004 	add	r3, r3, #4	; 0x4
30000960:	e3a02000 	mov	r2, #0	; 0x0
30000964:	e5832000 	str	r2, [r3]
30000968:	e3a0344b 	mov	r3, #1258291200	; 0x4b000000
3000096c:	e2833008 	add	r3, r3, #8	; 0x8
30000970:	e51b2008 	ldr	r2, [fp, #-8]
30000974:	e3c22102 	bic	r2, r2, #-2147483648	; 0x80000000
30000978:	e5832000 	str	r2, [r3]
3000097c:	e3a0344b 	mov	r3, #1258291200	; 0x4b000000
30000980:	e283300c 	add	r3, r3, #12	; 0xc
30000984:	e3a02000 	mov	r2, #0	; 0x0
30000988:	e5832000 	str	r2, [r3]
3000098c:	e3a0244b 	mov	r2, #1258291200	; 0x4b000000
30000990:	e2822010 	add	r2, r2, #16	; 0x10
30000994:	e51b3010 	ldr	r3, [fp, #-16]
30000998:	e3c334ff 	bic	r3, r3, #-16777216	; 0xff000000
3000099c:	e3c3360f 	bic	r3, r3, #15728640	; 0xf00000
300009a0:	e283333a 	add	r3, r3, #-402653184	; 0xe8000000
300009a4:	e2833606 	add	r3, r3, #6291456	; 0x600000
300009a8:	e5823000 	str	r3, [r2]
300009ac:	e3a0344b 	mov	r3, #1258291200	; 0x4b000000
300009b0:	e2833020 	add	r3, r3, #32	; 0x20
300009b4:	e3a02003 	mov	r2, #3	; 0x3
300009b8:	e5832000 	str	r2, [r3]
300009bc:	e3a0244a 	mov	r2, #1241513984	; 0x4a000000
300009c0:	e2822008 	add	r2, r2, #8	; 0x8
300009c4:	e3a0344a 	mov	r3, #1241513984	; 0x4a000000
300009c8:	e2833008 	add	r3, r3, #8	; 0x8
300009cc:	e5933000 	ldr	r3, [r3]
300009d0:	e3c33802 	bic	r3, r3, #131072	; 0x20000
300009d4:	e5823000 	str	r3, [r2]
300009d8:	e28bd000 	add	sp, fp, #0	; 0x0
300009dc:	e8bd0800 	pop	{fp}
300009e0:	e12fff1e 	bx	lr

300009e4 <Dma_init>:
300009e4:	e52db004 	push	{fp}		; (str fp, [sp, #-4]!)
300009e8:	e28db000 	add	fp, sp, #0	; 0x0
300009ec:	e24dd014 	sub	sp, sp, #20	; 0x14
300009f0:	e50b0008 	str	r0, [fp, #-8]
300009f4:	e50b100c 	str	r1, [fp, #-12]
300009f8:	e50b2010 	str	r2, [fp, #-16]
300009fc:	e54b3011 	strb	r3, [fp, #-17]
30000a00:	e3a0244b 	mov	r2, #1258291200	; 0x4b000000
30000a04:	e51b300c 	ldr	r3, [fp, #-12]
30000a08:	e3c33102 	bic	r3, r3, #-2147483648	; 0x80000000
30000a0c:	e5823000 	str	r3, [r2]
30000a10:	e3a0244b 	mov	r2, #1258291200	; 0x4b000000
30000a14:	e2822004 	add	r2, r2, #4	; 0x4
30000a18:	e3a0344b 	mov	r3, #1258291200	; 0x4b000000
30000a1c:	e2833004 	add	r3, r3, #4	; 0x4
30000a20:	e5933000 	ldr	r3, [r3]
30000a24:	e5823000 	str	r3, [r2]
30000a28:	e3a0344b 	mov	r3, #1258291200	; 0x4b000000
30000a2c:	e2833008 	add	r3, r3, #8	; 0x8
30000a30:	e51b2008 	ldr	r2, [fp, #-8]
30000a34:	e3c22102 	bic	r2, r2, #-2147483648	; 0x80000000
30000a38:	e5832000 	str	r2, [r3]
30000a3c:	e3a0244b 	mov	r2, #1258291200	; 0x4b000000
30000a40:	e282200c 	add	r2, r2, #12	; 0xc
30000a44:	e3a0344b 	mov	r3, #1258291200	; 0x4b000000
30000a48:	e283300c 	add	r3, r3, #12	; 0xc
30000a4c:	e5933000 	ldr	r3, [r3]
30000a50:	e3833003 	orr	r3, r3, #3	; 0x3
30000a54:	e5823000 	str	r3, [r2]
30000a58:	e3a0244b 	mov	r2, #1258291200	; 0x4b000000
30000a5c:	e2822010 	add	r2, r2, #16	; 0x10
30000a60:	e3a0344b 	mov	r3, #1258291200	; 0x4b000000
30000a64:	e2833010 	add	r3, r3, #16	; 0x10
30000a68:	e5930000 	ldr	r0, [r3]
30000a6c:	e55b3011 	ldrb	r3, [fp, #-17]
30000a70:	e1a03c03 	lsl	r3, r3, #24
30000a74:	e1a01003 	mov	r1, r3
30000a78:	e5db3004 	ldrb	r3, [fp, #4]
30000a7c:	e1a03b83 	lsl	r3, r3, #23
30000a80:	e1811003 	orr	r1, r1, r3
30000a84:	e51b3010 	ldr	r3, [fp, #-16]
30000a88:	e3c334ff 	bic	r3, r3, #-16777216	; 0xff000000
30000a8c:	e3c3360f 	bic	r3, r3, #15728640	; 0xf00000
30000a90:	e1813003 	orr	r3, r1, r3
30000a94:	e1803003 	orr	r3, r0, r3
30000a98:	e383320a 	orr	r3, r3, #-1610612736	; 0xa0000000
30000a9c:	e3833501 	orr	r3, r3, #4194304	; 0x400000
30000aa0:	e5823000 	str	r3, [r2]
30000aa4:	e3a0344b 	mov	r3, #1258291200	; 0x4b000000
30000aa8:	e2833020 	add	r3, r3, #32	; 0x20
30000aac:	e3a02002 	mov	r2, #2	; 0x2
30000ab0:	e5832000 	str	r2, [r3]
30000ab4:	e28bd000 	add	sp, fp, #0	; 0x0
30000ab8:	e8bd0800 	pop	{fp}
30000abc:	e12fff1e 	bx	lr

30000ac0 <DMA_UART>:
30000ac0:	e92d4800 	push	{fp, lr}
30000ac4:	e28db004 	add	fp, sp, #4	; 0x4
30000ac8:	e24dd018 	sub	sp, sp, #24	; 0x18
30000acc:	e50b0008 	str	r0, [fp, #-8]
30000ad0:	e50b100c 	str	r1, [fp, #-12]
30000ad4:	e50b2010 	str	r2, [fp, #-16]
30000ad8:	e54b3011 	strb	r3, [fp, #-17]
30000adc:	e55bc011 	ldrb	ip, [fp, #-17]
30000ae0:	e5db3004 	ldrb	r3, [fp, #4]
30000ae4:	e58d3000 	str	r3, [sp]
30000ae8:	e51b0008 	ldr	r0, [fp, #-8]
30000aec:	e51b100c 	ldr	r1, [fp, #-12]
30000af0:	e51b2010 	ldr	r2, [fp, #-16]
30000af4:	e1a0300c 	mov	r3, ip
30000af8:	ebffffb9 	bl	300009e4 <Dma_init>
30000afc:	e3a0244a 	mov	r2, #1241513984	; 0x4a000000
30000b00:	e2822008 	add	r2, r2, #8	; 0x8
30000b04:	e3a0344a 	mov	r3, #1241513984	; 0x4a000000
30000b08:	e2833008 	add	r3, r3, #8	; 0x8
30000b0c:	e5933000 	ldr	r3, [r3]
30000b10:	e3c33802 	bic	r3, r3, #131072	; 0x20000
30000b14:	e5823000 	str	r3, [r2]
30000b18:	e24bd004 	sub	sp, fp, #4	; 0x4
30000b1c:	e8bd4800 	pop	{fp, lr}
30000b20:	e12fff1e 	bx	lr

30000b24 <dma_uart_test>:
30000b24:	e92d4800 	push	{fp, lr}
30000b28:	e28db004 	add	fp, sp, #4	; 0x4
30000b2c:	e24ddf46 	sub	sp, sp, #280	; 0x118
30000b30:	e59f10c0 	ldr	r1, [pc, #192]	; 30000bf8 <dma_uart_test+0xd4>
30000b34:	e50b1110 	str	r1, [fp, #-272]
30000b38:	e51b2110 	ldr	r2, [fp, #-272]
30000b3c:	e08f2002 	add	r2, pc, r2
30000b40:	e50b2110 	str	r2, [fp, #-272]
30000b44:	e3a00011 	mov	r0, #17	; 0x11
30000b48:	e59f30ac 	ldr	r3, [pc, #172]	; 30000bfc <dma_uart_test+0xd8>
30000b4c:	e51b1110 	ldr	r1, [fp, #-272]
30000b50:	e0813003 	add	r3, r1, r3
30000b54:	e1a01003 	mov	r1, r3
30000b58:	eb001ad5 	bl	300076b4 <register_interrupt>
30000b5c:	e1a03000 	mov	r3, r0
30000b60:	e50b3008 	str	r3, [fp, #-8]
30000b64:	e51b3008 	ldr	r3, [fp, #-8]
30000b68:	e3530000 	cmp	r3, #0	; 0x0
30000b6c:	0a000005 	beq	30000b88 <dma_uart_test+0x64>
30000b70:	e59f3088 	ldr	r3, [pc, #136]	; 30000c00 <dma_uart_test+0xdc>
30000b74:	e51b2110 	ldr	r2, [fp, #-272]
30000b78:	e0823003 	add	r3, r2, r3
30000b7c:	e1a00003 	mov	r0, r3
30000b80:	eb0000c8 	bl	30000ea8 <puts>
30000b84:	ea000018 	b	30000bec <dma_uart_test+0xc8>
30000b88:	e59f3074 	ldr	r3, [pc, #116]	; 30000c04 <dma_uart_test+0xe0>
30000b8c:	e51b1110 	ldr	r1, [fp, #-272]
30000b90:	e0812003 	add	r2, r1, r3
30000b94:	e24b3f41 	sub	r3, fp, #260	; 0x104
30000b98:	e2433003 	sub	r3, r3, #3	; 0x3
30000b9c:	e3a0c04f 	mov	ip, #79	; 0x4f
30000ba0:	e1a00003 	mov	r0, r3
30000ba4:	e1a01002 	mov	r1, r2
30000ba8:	e1a0200c 	mov	r2, ip
30000bac:	eb0003cb 	bl	30001ae0 <memcpy>
30000bb0:	e24b30b8 	sub	r3, fp, #184	; 0xb8
30000bb4:	e3a020b0 	mov	r2, #176	; 0xb0
30000bb8:	e1a00003 	mov	r0, r3
30000bbc:	e3a01000 	mov	r1, #0	; 0x0
30000bc0:	eb000385 	bl	300019dc <memset>
30000bc4:	e24b2f41 	sub	r2, fp, #260	; 0x104
30000bc8:	e2422003 	sub	r2, r2, #3	; 0x3
30000bcc:	e3a03001 	mov	r3, #1	; 0x1
30000bd0:	e58d3000 	str	r3, [sp]
30000bd4:	e3a00205 	mov	r0, #1342177280	; 0x50000000
30000bd8:	e2800020 	add	r0, r0, #32	; 0x20
30000bdc:	e1a01002 	mov	r1, r2
30000be0:	e3a02060 	mov	r2, #96	; 0x60
30000be4:	e3a03001 	mov	r3, #1	; 0x1
30000be8:	ebffffb4 	bl	30000ac0 <DMA_UART>
30000bec:	e24bd004 	sub	sp, fp, #4	; 0x4
30000bf0:	e8bd4800 	pop	{fp, lr}
30000bf4:	e12fff1e 	bx	lr
30000bf8:	cffff4bc 	.word	0xcffff4bc
30000bfc:	300008e4 	.word	0x300008e4
30000c00:	3000c014 	.word	0x3000c014
30000c04:	3000c034 	.word	0x3000c034
	...

30000c10 <__muldi3>:
30000c10:	e92d0810 	push	{r4, fp}
30000c14:	e28db004 	add	fp, sp, #4	; 0x4
30000c18:	e24dd040 	sub	sp, sp, #64	; 0x40
30000c1c:	e50b002c 	str	r0, [fp, #-44]
30000c20:	e50b1028 	str	r1, [fp, #-40]
30000c24:	e50b2034 	str	r2, [fp, #-52]
30000c28:	e50b3030 	str	r3, [fp, #-48]
30000c2c:	e24b402c 	sub	r4, fp, #44	; 0x2c
30000c30:	e8940018 	ldm	r4, {r3, r4}
30000c34:	e50b3014 	str	r3, [fp, #-20]
30000c38:	e50b4010 	str	r4, [fp, #-16]
30000c3c:	e24b4034 	sub	r4, fp, #52	; 0x34
30000c40:	e8940018 	ldm	r4, {r3, r4}
30000c44:	e50b301c 	str	r3, [fp, #-28]
30000c48:	e50b4018 	str	r4, [fp, #-24]
30000c4c:	e51b3014 	ldr	r3, [fp, #-20]
30000c50:	e1a02003 	mov	r2, r3
30000c54:	e51b301c 	ldr	r3, [fp, #-28]
30000c58:	e1a01822 	lsr	r1, r2, #16
30000c5c:	e1a00823 	lsr	r0, r3, #16
30000c60:	e1c24801 	bic	r4, r2, r1, lsl #16
30000c64:	e1c3c800 	bic	ip, r3, r0, lsl #16
30000c68:	e0020c94 	mul	r2, r4, ip
30000c6c:	e00c0c91 	mul	ip, r1, ip
30000c70:	e0040490 	mul	r4, r0, r4
30000c74:	e0000091 	mul	r0, r1, r0
30000c78:	e09c4004 	adds	r4, ip, r4
30000c7c:	22800801 	addcs	r0, r0, #65536	; 0x10000
30000c80:	e0922804 	adds	r2, r2, r4, lsl #16
30000c84:	e0a00824 	adc	r0, r0, r4, lsr #16
30000c88:	e1a03000 	mov	r3, r0
30000c8c:	e50b3020 	str	r3, [fp, #-32]
30000c90:	e50b2024 	str	r2, [fp, #-36]
30000c94:	e24b4024 	sub	r4, fp, #36	; 0x24
30000c98:	e8940018 	ldm	r4, {r3, r4}
30000c9c:	e50b300c 	str	r3, [fp, #-12]
30000ca0:	e50b4008 	str	r4, [fp, #-8]
30000ca4:	e51b3008 	ldr	r3, [fp, #-8]
30000ca8:	e1a00003 	mov	r0, r3
30000cac:	e51b3014 	ldr	r3, [fp, #-20]
30000cb0:	e1a02003 	mov	r2, r3
30000cb4:	e51b3018 	ldr	r3, [fp, #-24]
30000cb8:	e0010293 	mul	r1, r3, r2
30000cbc:	e51b3010 	ldr	r3, [fp, #-16]
30000cc0:	e1a02003 	mov	r2, r3
30000cc4:	e51b301c 	ldr	r3, [fp, #-28]
30000cc8:	e0030392 	mul	r3, r2, r3
30000ccc:	e0813003 	add	r3, r1, r3
30000cd0:	e0803003 	add	r3, r0, r3
30000cd4:	e50b3008 	str	r3, [fp, #-8]
30000cd8:	e24b400c 	sub	r4, fp, #12	; 0xc
30000cdc:	e8940018 	ldm	r4, {r3, r4}
30000ce0:	e1a00003 	mov	r0, r3
30000ce4:	e1a01004 	mov	r1, r4
30000ce8:	e24bd004 	sub	sp, fp, #4	; 0x4
30000cec:	e8bd0810 	pop	{r4, fp}
30000cf0:	e12fff1e 	bx	lr

30000cf4 <printf>:
30000cf4:	e92d000f 	push	{r0, r1, r2, r3}
30000cf8:	e92d4810 	push	{r4, fp, lr}
30000cfc:	e28db008 	add	fp, sp, #8	; 0x8
30000d00:	e24dd01c 	sub	sp, sp, #28	; 0x1c
30000d04:	e59f10b0 	ldr	r1, [pc, #176]	; 30000dbc <printf+0xc8>
30000d08:	e50b1020 	str	r1, [fp, #-32]
30000d0c:	e51b2020 	ldr	r2, [fp, #-32]
30000d10:	e08f2002 	add	r2, pc, r2
30000d14:	e50b2020 	str	r2, [fp, #-32]
30000d18:	e28b3004 	add	r3, fp, #4	; 0x4
30000d1c:	e2833004 	add	r3, r3, #4	; 0x4
30000d20:	e50b3010 	str	r3, [fp, #-16]
30000d24:	e59b2004 	ldr	r2, [fp, #4]
30000d28:	e59f3090 	ldr	r3, [pc, #144]	; 30000dc0 <printf+0xcc>
30000d2c:	e51b1020 	ldr	r1, [fp, #-32]
30000d30:	e0813003 	add	r3, r1, r3
30000d34:	e1a00003 	mov	r0, r3
30000d38:	e1a01002 	mov	r1, r2
30000d3c:	e51b2010 	ldr	r2, [fp, #-16]
30000d40:	eb000ae6 	bl	300038e0 <vsprintf>
30000d44:	e1a03000 	mov	r3, r0
30000d48:	e50b3014 	str	r3, [fp, #-20]
30000d4c:	e3a03000 	mov	r3, #0	; 0x0
30000d50:	e50b3018 	str	r3, [fp, #-24]
30000d54:	ea000009 	b	30000d80 <printf+0x8c>
30000d58:	e51b2018 	ldr	r2, [fp, #-24]
30000d5c:	e59f305c 	ldr	r3, [pc, #92]	; 30000dc0 <printf+0xcc>
30000d60:	e51b1020 	ldr	r1, [fp, #-32]
30000d64:	e0813003 	add	r3, r1, r3
30000d68:	e7d33002 	ldrb	r3, [r3, r2]
30000d6c:	e1a00003 	mov	r0, r3
30000d70:	ebfffe53 	bl	300006c4 <put_c>
30000d74:	e51b3018 	ldr	r3, [fp, #-24]
30000d78:	e2833001 	add	r3, r3, #1	; 0x1
30000d7c:	e50b3018 	str	r3, [fp, #-24]
30000d80:	e51b4018 	ldr	r4, [fp, #-24]
30000d84:	e59f3034 	ldr	r3, [pc, #52]	; 30000dc0 <printf+0xcc>
30000d88:	e51b2020 	ldr	r2, [fp, #-32]
30000d8c:	e0823003 	add	r3, r2, r3
30000d90:	e1a00003 	mov	r0, r3
30000d94:	eb000208 	bl	300015bc <strlen>
30000d98:	e1a03000 	mov	r3, r0
30000d9c:	e1540003 	cmp	r4, r3
30000da0:	3affffec 	bcc	30000d58 <printf+0x64>
30000da4:	e51b3014 	ldr	r3, [fp, #-20]
30000da8:	e1a00003 	mov	r0, r3
30000dac:	e24bd008 	sub	sp, fp, #8	; 0x8
30000db0:	e8bd4810 	pop	{r4, fp, lr}
30000db4:	e28dd010 	add	sp, sp, #16	; 0x10
30000db8:	e12fff1e 	bx	lr
30000dbc:	cffff2e8 	.word	0xcffff2e8
30000dc0:	3000d0cc 	.word	0x3000d0cc

30000dc4 <scanf>:
30000dc4:	e92d000f 	push	{r0, r1, r2, r3}
30000dc8:	e92d4800 	push	{fp, lr}
30000dcc:	e28db004 	add	fp, sp, #4	; 0x4
30000dd0:	e24dd018 	sub	sp, sp, #24	; 0x18
30000dd4:	e59f00c4 	ldr	r0, [pc, #196]	; 30000ea0 <scanf+0xdc>
30000dd8:	e50b0018 	str	r0, [fp, #-24]
30000ddc:	e51b1018 	ldr	r1, [fp, #-24]
30000de0:	e08f1001 	add	r1, pc, r1
30000de4:	e50b1018 	str	r1, [fp, #-24]
30000de8:	e3a03000 	mov	r3, #0	; 0x0
30000dec:	e50b3010 	str	r3, [fp, #-16]
30000df0:	ebfffe45 	bl	3000070c <getc>
30000df4:	e1a03000 	mov	r3, r0
30000df8:	e54b3009 	strb	r3, [fp, #-9]
30000dfc:	e55b3009 	ldrb	r3, [fp, #-9]
30000e00:	e353000d 	cmp	r3, #13	; 0xd
30000e04:	0a000002 	beq	30000e14 <scanf+0x50>
30000e08:	e55b3009 	ldrb	r3, [fp, #-9]
30000e0c:	e353000a 	cmp	r3, #10	; 0xa
30000e10:	1a000018 	bne	30000e78 <scanf+0xb4>
30000e14:	e51b1010 	ldr	r1, [fp, #-16]
30000e18:	e59f3084 	ldr	r3, [pc, #132]	; 30000ea4 <scanf+0xe0>
30000e1c:	e51b0018 	ldr	r0, [fp, #-24]
30000e20:	e0802003 	add	r2, r0, r3
30000e24:	e3a03000 	mov	r3, #0	; 0x0
30000e28:	e7c23001 	strb	r3, [r2, r1]
30000e2c:	e28b3004 	add	r3, fp, #4	; 0x4
30000e30:	e2833004 	add	r3, r3, #4	; 0x4
30000e34:	e50b3008 	str	r3, [fp, #-8]
30000e38:	e59b2004 	ldr	r2, [fp, #4]
30000e3c:	e59f3060 	ldr	r3, [pc, #96]	; 30000ea4 <scanf+0xe0>
30000e40:	e51b1018 	ldr	r1, [fp, #-24]
30000e44:	e0813003 	add	r3, r1, r3
30000e48:	e1a00003 	mov	r0, r3
30000e4c:	e1a01002 	mov	r1, r2
30000e50:	e51b2008 	ldr	r2, [fp, #-8]
30000e54:	eb000ac6 	bl	30003974 <vsscanf>
30000e58:	e1a03000 	mov	r3, r0
30000e5c:	e50b3010 	str	r3, [fp, #-16]
30000e60:	e51b3010 	ldr	r3, [fp, #-16]
30000e64:	e1a00003 	mov	r0, r3
30000e68:	e24bd004 	sub	sp, fp, #4	; 0x4
30000e6c:	e8bd4800 	pop	{fp, lr}
30000e70:	e28dd010 	add	sp, sp, #16	; 0x10
30000e74:	e12fff1e 	bx	lr
30000e78:	e51b1010 	ldr	r1, [fp, #-16]
30000e7c:	e59f3020 	ldr	r3, [pc, #32]	; 30000ea4 <scanf+0xe0>
30000e80:	e51b0018 	ldr	r0, [fp, #-24]
30000e84:	e0802003 	add	r2, r0, r3
30000e88:	e55b3009 	ldrb	r3, [fp, #-9]
30000e8c:	e7c23001 	strb	r3, [r2, r1]
30000e90:	e51b3010 	ldr	r3, [fp, #-16]
30000e94:	e2833001 	add	r3, r3, #1	; 0x1
30000e98:	e50b3010 	str	r3, [fp, #-16]
30000e9c:	eaffffd3 	b	30000df0 <scanf+0x2c>
30000ea0:	cffff218 	.word	0xcffff218
30000ea4:	3000d4cc 	.word	0x3000d4cc

30000ea8 <puts>:
30000ea8:	e92d4800 	push	{fp, lr}
30000eac:	e28db004 	add	fp, sp, #4	; 0x4
30000eb0:	e24dd010 	sub	sp, sp, #16	; 0x10
30000eb4:	e50b0010 	str	r0, [fp, #-16]
30000eb8:	e3a03000 	mov	r3, #0	; 0x0
30000ebc:	e50b3008 	str	r3, [fp, #-8]
30000ec0:	ea000009 	b	30000eec <puts+0x44>
30000ec4:	e51b3010 	ldr	r3, [fp, #-16]
30000ec8:	e5d33000 	ldrb	r3, [r3]
30000ecc:	e1a00003 	mov	r0, r3
30000ed0:	ebfffdfb 	bl	300006c4 <put_c>
30000ed4:	e51b3010 	ldr	r3, [fp, #-16]
30000ed8:	e2833001 	add	r3, r3, #1	; 0x1
30000edc:	e50b3010 	str	r3, [fp, #-16]
30000ee0:	e51b3008 	ldr	r3, [fp, #-8]
30000ee4:	e2833001 	add	r3, r3, #1	; 0x1
30000ee8:	e50b3008 	str	r3, [fp, #-8]
30000eec:	e51b3010 	ldr	r3, [fp, #-16]
30000ef0:	e5d33000 	ldrb	r3, [r3]
30000ef4:	e3530000 	cmp	r3, #0	; 0x0
30000ef8:	1afffff1 	bne	30000ec4 <puts+0x1c>
30000efc:	e3a0000a 	mov	r0, #10	; 0xa
30000f00:	ebfffdef 	bl	300006c4 <put_c>
30000f04:	e3a0000d 	mov	r0, #13	; 0xd
30000f08:	ebfffded 	bl	300006c4 <put_c>
30000f0c:	e51b3008 	ldr	r3, [fp, #-8]
30000f10:	e2833002 	add	r3, r3, #2	; 0x2
30000f14:	e1a00003 	mov	r0, r3
30000f18:	e24bd004 	sub	sp, fp, #4	; 0x4
30000f1c:	e8bd4800 	pop	{fp, lr}
30000f20:	e12fff1e 	bx	lr

30000f24 <putchar>:
30000f24:	e92d4800 	push	{fp, lr}
30000f28:	e28db004 	add	fp, sp, #4	; 0x4
30000f2c:	e24dd008 	sub	sp, sp, #8	; 0x8
30000f30:	e50b0008 	str	r0, [fp, #-8]
30000f34:	e51b3008 	ldr	r3, [fp, #-8]
30000f38:	e20330ff 	and	r3, r3, #255	; 0xff
30000f3c:	e1a00003 	mov	r0, r3
30000f40:	ebfffddf 	bl	300006c4 <put_c>
30000f44:	e51b3008 	ldr	r3, [fp, #-8]
30000f48:	e1a00003 	mov	r0, r3
30000f4c:	e24bd004 	sub	sp, fp, #4	; 0x4
30000f50:	e8bd4800 	pop	{fp, lr}
30000f54:	e12fff1e 	bx	lr

30000f58 <strnicmp>:
30000f58:	e92d4800 	push	{fp, lr}
30000f5c:	e28db004 	add	fp, sp, #4	; 0x4
30000f60:	e24dd018 	sub	sp, sp, #24	; 0x18
30000f64:	e50b0010 	str	r0, [fp, #-16]
30000f68:	e50b1014 	str	r1, [fp, #-20]
30000f6c:	e50b2018 	str	r2, [fp, #-24]
30000f70:	e3a03000 	mov	r3, #0	; 0x0
30000f74:	e54b3006 	strb	r3, [fp, #-6]
30000f78:	e3a03000 	mov	r3, #0	; 0x0
30000f7c:	e54b3005 	strb	r3, [fp, #-5]
30000f80:	e51b3018 	ldr	r3, [fp, #-24]
30000f84:	e3530000 	cmp	r3, #0	; 0x0
30000f88:	0a000029 	beq	30001034 <strnicmp+0xdc>
30000f8c:	e51b3010 	ldr	r3, [fp, #-16]
30000f90:	e5d33000 	ldrb	r3, [r3]
30000f94:	e54b3006 	strb	r3, [fp, #-6]
30000f98:	e51b3014 	ldr	r3, [fp, #-20]
30000f9c:	e5d33000 	ldrb	r3, [r3]
30000fa0:	e54b3005 	strb	r3, [fp, #-5]
30000fa4:	e51b3010 	ldr	r3, [fp, #-16]
30000fa8:	e2833001 	add	r3, r3, #1	; 0x1
30000fac:	e50b3010 	str	r3, [fp, #-16]
30000fb0:	e51b3014 	ldr	r3, [fp, #-20]
30000fb4:	e2833001 	add	r3, r3, #1	; 0x1
30000fb8:	e50b3014 	str	r3, [fp, #-20]
30000fbc:	e55b3006 	ldrb	r3, [fp, #-6]
30000fc0:	e3530000 	cmp	r3, #0	; 0x0
30000fc4:	0a00001a 	beq	30001034 <strnicmp+0xdc>
30000fc8:	e55b3005 	ldrb	r3, [fp, #-5]
30000fcc:	e3530000 	cmp	r3, #0	; 0x0
30000fd0:	0a000017 	beq	30001034 <strnicmp+0xdc>
30000fd4:	e55b2006 	ldrb	r2, [fp, #-6]
30000fd8:	e55b3005 	ldrb	r3, [fp, #-5]
30000fdc:	e1520003 	cmp	r2, r3
30000fe0:	0a00000d 	beq	3000101c <strnicmp+0xc4>
30000fe4:	e55b3006 	ldrb	r3, [fp, #-6]
30000fe8:	e1a00003 	mov	r0, r3
30000fec:	eb000017 	bl	30001050 <__tolower>
30000ff0:	e1a03000 	mov	r3, r0
30000ff4:	e54b3006 	strb	r3, [fp, #-6]
30000ff8:	e55b3005 	ldrb	r3, [fp, #-5]
30000ffc:	e1a00003 	mov	r0, r3
30001000:	eb000012 	bl	30001050 <__tolower>
30001004:	e1a03000 	mov	r3, r0
30001008:	e54b3005 	strb	r3, [fp, #-5]
3000100c:	e55b2006 	ldrb	r2, [fp, #-6]
30001010:	e55b3005 	ldrb	r3, [fp, #-5]
30001014:	e1520003 	cmp	r2, r3
30001018:	1a000005 	bne	30001034 <strnicmp+0xdc>
3000101c:	e51b3018 	ldr	r3, [fp, #-24]
30001020:	e2433001 	sub	r3, r3, #1	; 0x1
30001024:	e50b3018 	str	r3, [fp, #-24]
30001028:	e51b3018 	ldr	r3, [fp, #-24]
3000102c:	e3530000 	cmp	r3, #0	; 0x0
30001030:	1affffd5 	bne	30000f8c <strnicmp+0x34>
30001034:	e55b2006 	ldrb	r2, [fp, #-6]
30001038:	e55b3005 	ldrb	r3, [fp, #-5]
3000103c:	e0633002 	rsb	r3, r3, r2
30001040:	e1a00003 	mov	r0, r3
30001044:	e24bd004 	sub	sp, fp, #4	; 0x4
30001048:	e8bd4800 	pop	{fp, lr}
3000104c:	e12fff1e 	bx	lr

30001050 <__tolower>:
30001050:	e52db004 	push	{fp}		; (str fp, [sp, #-4]!)
30001054:	e28db000 	add	fp, sp, #0	; 0x0
30001058:	e24dd00c 	sub	sp, sp, #12	; 0xc
3000105c:	e59f2048 	ldr	r2, [pc, #72]	; 300010ac <__tolower+0x5c>
30001060:	e08f2002 	add	r2, pc, r2
30001064:	e1a03000 	mov	r3, r0
30001068:	e54b3005 	strb	r3, [fp, #-5]
3000106c:	e55b1005 	ldrb	r1, [fp, #-5]
30001070:	e59f3038 	ldr	r3, [pc, #56]	; 300010b0 <__tolower+0x60>
30001074:	e7923003 	ldr	r3, [r2, r3]
30001078:	e7d33001 	ldrb	r3, [r3, r1]
3000107c:	e2033001 	and	r3, r3, #1	; 0x1
30001080:	e20330ff 	and	r3, r3, #255	; 0xff
30001084:	e3530000 	cmp	r3, #0	; 0x0
30001088:	0a000002 	beq	30001098 <__tolower+0x48>
3000108c:	e55b3005 	ldrb	r3, [fp, #-5]
30001090:	e2833020 	add	r3, r3, #32	; 0x20
30001094:	e54b3005 	strb	r3, [fp, #-5]
30001098:	e55b3005 	ldrb	r3, [fp, #-5]
3000109c:	e1a00003 	mov	r0, r3
300010a0:	e28bd000 	add	sp, fp, #0	; 0x0
300010a4:	e8bd0800 	pop	{fp}
300010a8:	e12fff1e 	bx	lr
300010ac:	cfffef98 	.word	0xcfffef98
300010b0:	0000058c 	.word	0x0000058c

300010b4 <strcpy>:
300010b4:	e52db004 	push	{fp}		; (str fp, [sp, #-4]!)
300010b8:	e28db000 	add	fp, sp, #0	; 0x0
300010bc:	e24dd014 	sub	sp, sp, #20	; 0x14
300010c0:	e50b0010 	str	r0, [fp, #-16]
300010c4:	e50b1014 	str	r1, [fp, #-20]
300010c8:	e51b3010 	ldr	r3, [fp, #-16]
300010cc:	e50b3008 	str	r3, [fp, #-8]
300010d0:	e51b3014 	ldr	r3, [fp, #-20]
300010d4:	e5d33000 	ldrb	r3, [r3]
300010d8:	e51b2010 	ldr	r2, [fp, #-16]
300010dc:	e5c23000 	strb	r3, [r2]
300010e0:	e51b3010 	ldr	r3, [fp, #-16]
300010e4:	e5d33000 	ldrb	r3, [r3]
300010e8:	e3530000 	cmp	r3, #0	; 0x0
300010ec:	03a03000 	moveq	r3, #0	; 0x0
300010f0:	13a03001 	movne	r3, #1	; 0x1
300010f4:	e20320ff 	and	r2, r3, #255	; 0xff
300010f8:	e51b3010 	ldr	r3, [fp, #-16]
300010fc:	e2833001 	add	r3, r3, #1	; 0x1
30001100:	e50b3010 	str	r3, [fp, #-16]
30001104:	e51b3014 	ldr	r3, [fp, #-20]
30001108:	e2833001 	add	r3, r3, #1	; 0x1
3000110c:	e50b3014 	str	r3, [fp, #-20]
30001110:	e3520000 	cmp	r2, #0	; 0x0
30001114:	1affffed 	bne	300010d0 <strcpy+0x1c>
30001118:	e51b3008 	ldr	r3, [fp, #-8]
3000111c:	e1a00003 	mov	r0, r3
30001120:	e28bd000 	add	sp, fp, #0	; 0x0
30001124:	e8bd0800 	pop	{fp}
30001128:	e12fff1e 	bx	lr

3000112c <strncpy>:
3000112c:	e52db004 	push	{fp}		; (str fp, [sp, #-4]!)
30001130:	e28db000 	add	fp, sp, #0	; 0x0
30001134:	e24dd01c 	sub	sp, sp, #28	; 0x1c
30001138:	e50b0010 	str	r0, [fp, #-16]
3000113c:	e50b1014 	str	r1, [fp, #-20]
30001140:	e50b2018 	str	r2, [fp, #-24]
30001144:	e51b3010 	ldr	r3, [fp, #-16]
30001148:	e50b3008 	str	r3, [fp, #-8]
3000114c:	e51b3018 	ldr	r3, [fp, #-24]
30001150:	e3530000 	cmp	r3, #0	; 0x0
30001154:	03a03000 	moveq	r3, #0	; 0x0
30001158:	13a03001 	movne	r3, #1	; 0x1
3000115c:	e20320ff 	and	r2, r3, #255	; 0xff
30001160:	e51b3018 	ldr	r3, [fp, #-24]
30001164:	e2433001 	sub	r3, r3, #1	; 0x1
30001168:	e50b3018 	str	r3, [fp, #-24]
3000116c:	e2223001 	eor	r3, r2, #1	; 0x1
30001170:	e20330ff 	and	r3, r3, #255	; 0xff
30001174:	e3530000 	cmp	r3, #0	; 0x0
30001178:	1a000011 	bne	300011c4 <strncpy+0x98>
3000117c:	e51b3014 	ldr	r3, [fp, #-20]
30001180:	e5d33000 	ldrb	r3, [r3]
30001184:	e51b2010 	ldr	r2, [fp, #-16]
30001188:	e5c23000 	strb	r3, [r2]
3000118c:	e51b3010 	ldr	r3, [fp, #-16]
30001190:	e5d33000 	ldrb	r3, [r3]
30001194:	e3530000 	cmp	r3, #0	; 0x0
30001198:	03a03000 	moveq	r3, #0	; 0x0
3000119c:	13a03001 	movne	r3, #1	; 0x1
300011a0:	e20320ff 	and	r2, r3, #255	; 0xff
300011a4:	e51b3010 	ldr	r3, [fp, #-16]
300011a8:	e2833001 	add	r3, r3, #1	; 0x1
300011ac:	e50b3010 	str	r3, [fp, #-16]
300011b0:	e51b3014 	ldr	r3, [fp, #-20]
300011b4:	e2833001 	add	r3, r3, #1	; 0x1
300011b8:	e50b3014 	str	r3, [fp, #-20]
300011bc:	e3520000 	cmp	r2, #0	; 0x0
300011c0:	1affffe1 	bne	3000114c <strncpy+0x20>
300011c4:	e51b3008 	ldr	r3, [fp, #-8]
300011c8:	e1a00003 	mov	r0, r3
300011cc:	e28bd000 	add	sp, fp, #0	; 0x0
300011d0:	e8bd0800 	pop	{fp}
300011d4:	e12fff1e 	bx	lr

300011d8 <strcat>:
300011d8:	e52db004 	push	{fp}		; (str fp, [sp, #-4]!)
300011dc:	e28db000 	add	fp, sp, #0	; 0x0
300011e0:	e24dd014 	sub	sp, sp, #20	; 0x14
300011e4:	e50b0010 	str	r0, [fp, #-16]
300011e8:	e50b1014 	str	r1, [fp, #-20]
300011ec:	e51b3010 	ldr	r3, [fp, #-16]
300011f0:	e50b3008 	str	r3, [fp, #-8]
300011f4:	ea000002 	b	30001204 <strcat+0x2c>
300011f8:	e51b3010 	ldr	r3, [fp, #-16]
300011fc:	e2833001 	add	r3, r3, #1	; 0x1
30001200:	e50b3010 	str	r3, [fp, #-16]
30001204:	e51b3010 	ldr	r3, [fp, #-16]
30001208:	e5d33000 	ldrb	r3, [r3]
3000120c:	e3530000 	cmp	r3, #0	; 0x0
30001210:	1afffff8 	bne	300011f8 <strcat+0x20>
30001214:	e51b3014 	ldr	r3, [fp, #-20]
30001218:	e5d33000 	ldrb	r3, [r3]
3000121c:	e51b2010 	ldr	r2, [fp, #-16]
30001220:	e5c23000 	strb	r3, [r2]
30001224:	e51b3010 	ldr	r3, [fp, #-16]
30001228:	e5d33000 	ldrb	r3, [r3]
3000122c:	e3530000 	cmp	r3, #0	; 0x0
30001230:	03a03000 	moveq	r3, #0	; 0x0
30001234:	13a03001 	movne	r3, #1	; 0x1
30001238:	e20320ff 	and	r2, r3, #255	; 0xff
3000123c:	e51b3010 	ldr	r3, [fp, #-16]
30001240:	e2833001 	add	r3, r3, #1	; 0x1
30001244:	e50b3010 	str	r3, [fp, #-16]
30001248:	e51b3014 	ldr	r3, [fp, #-20]
3000124c:	e2833001 	add	r3, r3, #1	; 0x1
30001250:	e50b3014 	str	r3, [fp, #-20]
30001254:	e3520000 	cmp	r2, #0	; 0x0
30001258:	1affffed 	bne	30001214 <strcat+0x3c>
3000125c:	e51b3008 	ldr	r3, [fp, #-8]
30001260:	e1a00003 	mov	r0, r3
30001264:	e28bd000 	add	sp, fp, #0	; 0x0
30001268:	e8bd0800 	pop	{fp}
3000126c:	e12fff1e 	bx	lr

30001270 <strncat>:
30001270:	e52db004 	push	{fp}		; (str fp, [sp, #-4]!)
30001274:	e28db000 	add	fp, sp, #0	; 0x0
30001278:	e24dd01c 	sub	sp, sp, #28	; 0x1c
3000127c:	e50b0010 	str	r0, [fp, #-16]
30001280:	e50b1014 	str	r1, [fp, #-20]
30001284:	e50b2018 	str	r2, [fp, #-24]
30001288:	e51b3010 	ldr	r3, [fp, #-16]
3000128c:	e50b3008 	str	r3, [fp, #-8]
30001290:	e51b3018 	ldr	r3, [fp, #-24]
30001294:	e3530000 	cmp	r3, #0	; 0x0
30001298:	0a000024 	beq	30001330 <strncat+0xc0>
3000129c:	ea000002 	b	300012ac <strncat+0x3c>
300012a0:	e51b3010 	ldr	r3, [fp, #-16]
300012a4:	e2833001 	add	r3, r3, #1	; 0x1
300012a8:	e50b3010 	str	r3, [fp, #-16]
300012ac:	e51b3010 	ldr	r3, [fp, #-16]
300012b0:	e5d33000 	ldrb	r3, [r3]
300012b4:	e3530000 	cmp	r3, #0	; 0x0
300012b8:	1afffff8 	bne	300012a0 <strncat+0x30>
300012bc:	ea000009 	b	300012e8 <strncat+0x78>
300012c0:	e51b3018 	ldr	r3, [fp, #-24]
300012c4:	e2433001 	sub	r3, r3, #1	; 0x1
300012c8:	e50b3018 	str	r3, [fp, #-24]
300012cc:	e51b3018 	ldr	r3, [fp, #-24]
300012d0:	e3530000 	cmp	r3, #0	; 0x0
300012d4:	1a000003 	bne	300012e8 <strncat+0x78>
300012d8:	e51b3010 	ldr	r3, [fp, #-16]
300012dc:	e3a02000 	mov	r2, #0	; 0x0
300012e0:	e5c32000 	strb	r2, [r3]
300012e4:	ea000011 	b	30001330 <strncat+0xc0>
300012e8:	e51b3014 	ldr	r3, [fp, #-20]
300012ec:	e5d33000 	ldrb	r3, [r3]
300012f0:	e51b2010 	ldr	r2, [fp, #-16]
300012f4:	e5c23000 	strb	r3, [r2]
300012f8:	e51b3010 	ldr	r3, [fp, #-16]
300012fc:	e5d33000 	ldrb	r3, [r3]
30001300:	e3530000 	cmp	r3, #0	; 0x0
30001304:	03a03000 	moveq	r3, #0	; 0x0
30001308:	13a03001 	movne	r3, #1	; 0x1
3000130c:	e20320ff 	and	r2, r3, #255	; 0xff
30001310:	e51b3010 	ldr	r3, [fp, #-16]
30001314:	e2833001 	add	r3, r3, #1	; 0x1
30001318:	e50b3010 	str	r3, [fp, #-16]
3000131c:	e51b3014 	ldr	r3, [fp, #-20]
30001320:	e2833001 	add	r3, r3, #1	; 0x1
30001324:	e50b3014 	str	r3, [fp, #-20]
30001328:	e3520000 	cmp	r2, #0	; 0x0
3000132c:	1affffe3 	bne	300012c0 <strncat+0x50>
30001330:	e51b3008 	ldr	r3, [fp, #-8]
30001334:	e1a00003 	mov	r0, r3
30001338:	e28bd000 	add	sp, fp, #0	; 0x0
3000133c:	e8bd0800 	pop	{fp}
30001340:	e12fff1e 	bx	lr

30001344 <strcmp>:
30001344:	e52db004 	push	{fp}		; (str fp, [sp, #-4]!)
30001348:	e28db000 	add	fp, sp, #0	; 0x0
3000134c:	e24dd014 	sub	sp, sp, #20	; 0x14
30001350:	e50b0008 	str	r0, [fp, #-8]
30001354:	e50b100c 	str	r1, [fp, #-12]
30001358:	e51b3008 	ldr	r3, [fp, #-8]
3000135c:	e5d32000 	ldrb	r2, [r3]
30001360:	e51b300c 	ldr	r3, [fp, #-12]
30001364:	e5d33000 	ldrb	r3, [r3]
30001368:	e0633002 	rsb	r3, r3, r2
3000136c:	e20330ff 	and	r3, r3, #255	; 0xff
30001370:	e50b3010 	str	r3, [fp, #-16]
30001374:	e51b2010 	ldr	r2, [fp, #-16]
30001378:	e1a03c02 	lsl	r3, r2, #24
3000137c:	e1a03c43 	asr	r3, r3, #24
30001380:	e3530000 	cmp	r3, #0	; 0x0
30001384:	03a03000 	moveq	r3, #0	; 0x0
30001388:	13a03001 	movne	r3, #1	; 0x1
3000138c:	e20320ff 	and	r2, r3, #255	; 0xff
30001390:	e51b300c 	ldr	r3, [fp, #-12]
30001394:	e2833001 	add	r3, r3, #1	; 0x1
30001398:	e50b300c 	str	r3, [fp, #-12]
3000139c:	e3520000 	cmp	r2, #0	; 0x0
300013a0:	1a00000a 	bne	300013d0 <strcmp+0x8c>
300013a4:	e51b3008 	ldr	r3, [fp, #-8]
300013a8:	e5d33000 	ldrb	r3, [r3]
300013ac:	e3530000 	cmp	r3, #0	; 0x0
300013b0:	13a03000 	movne	r3, #0	; 0x0
300013b4:	03a03001 	moveq	r3, #1	; 0x1
300013b8:	e20320ff 	and	r2, r3, #255	; 0xff
300013bc:	e51b3008 	ldr	r3, [fp, #-8]
300013c0:	e2833001 	add	r3, r3, #1	; 0x1
300013c4:	e50b3008 	str	r3, [fp, #-8]
300013c8:	e3520000 	cmp	r2, #0	; 0x0
300013cc:	0affffe1 	beq	30001358 <strcmp+0x14>
300013d0:	e51b2010 	ldr	r2, [fp, #-16]
300013d4:	e1a03c02 	lsl	r3, r2, #24
300013d8:	e1a03c43 	asr	r3, r3, #24
300013dc:	e1a00003 	mov	r0, r3
300013e0:	e28bd000 	add	sp, fp, #0	; 0x0
300013e4:	e8bd0800 	pop	{fp}
300013e8:	e12fff1e 	bx	lr

300013ec <strncmp>:
300013ec:	e52db004 	push	{fp}		; (str fp, [sp, #-4]!)
300013f0:	e28db000 	add	fp, sp, #0	; 0x0
300013f4:	e24dd014 	sub	sp, sp, #20	; 0x14
300013f8:	e50b0008 	str	r0, [fp, #-8]
300013fc:	e50b100c 	str	r1, [fp, #-12]
30001400:	e50b2010 	str	r2, [fp, #-16]
30001404:	e3a02000 	mov	r2, #0	; 0x0
30001408:	e50b2014 	str	r2, [fp, #-20]
3000140c:	ea000020 	b	30001494 <strncmp+0xa8>
30001410:	e51b3008 	ldr	r3, [fp, #-8]
30001414:	e5d32000 	ldrb	r2, [r3]
30001418:	e51b300c 	ldr	r3, [fp, #-12]
3000141c:	e5d33000 	ldrb	r3, [r3]
30001420:	e0633002 	rsb	r3, r3, r2
30001424:	e20330ff 	and	r3, r3, #255	; 0xff
30001428:	e50b3014 	str	r3, [fp, #-20]
3000142c:	e51b2014 	ldr	r2, [fp, #-20]
30001430:	e1a03c02 	lsl	r3, r2, #24
30001434:	e1a03c43 	asr	r3, r3, #24
30001438:	e3530000 	cmp	r3, #0	; 0x0
3000143c:	03a03000 	moveq	r3, #0	; 0x0
30001440:	13a03001 	movne	r3, #1	; 0x1
30001444:	e20320ff 	and	r2, r3, #255	; 0xff
30001448:	e51b300c 	ldr	r3, [fp, #-12]
3000144c:	e2833001 	add	r3, r3, #1	; 0x1
30001450:	e50b300c 	str	r3, [fp, #-12]
30001454:	e3520000 	cmp	r2, #0	; 0x0
30001458:	1a000010 	bne	300014a0 <strncmp+0xb4>
3000145c:	e51b3008 	ldr	r3, [fp, #-8]
30001460:	e5d33000 	ldrb	r3, [r3]
30001464:	e3530000 	cmp	r3, #0	; 0x0
30001468:	13a03000 	movne	r3, #0	; 0x0
3000146c:	03a03001 	moveq	r3, #1	; 0x1
30001470:	e20320ff 	and	r2, r3, #255	; 0xff
30001474:	e51b3008 	ldr	r3, [fp, #-8]
30001478:	e2833001 	add	r3, r3, #1	; 0x1
3000147c:	e50b3008 	str	r3, [fp, #-8]
30001480:	e3520000 	cmp	r2, #0	; 0x0
30001484:	1a000005 	bne	300014a0 <strncmp+0xb4>
30001488:	e51b3010 	ldr	r3, [fp, #-16]
3000148c:	e2433001 	sub	r3, r3, #1	; 0x1
30001490:	e50b3010 	str	r3, [fp, #-16]
30001494:	e51b3010 	ldr	r3, [fp, #-16]
30001498:	e3530000 	cmp	r3, #0	; 0x0
3000149c:	1affffdb 	bne	30001410 <strncmp+0x24>
300014a0:	e51b2014 	ldr	r2, [fp, #-20]
300014a4:	e1a03c02 	lsl	r3, r2, #24
300014a8:	e1a03c43 	asr	r3, r3, #24
300014ac:	e1a00003 	mov	r0, r3
300014b0:	e28bd000 	add	sp, fp, #0	; 0x0
300014b4:	e8bd0800 	pop	{fp}
300014b8:	e12fff1e 	bx	lr

300014bc <strchr>:
300014bc:	e52db004 	push	{fp}		; (str fp, [sp, #-4]!)
300014c0:	e28db000 	add	fp, sp, #0	; 0x0
300014c4:	e24dd014 	sub	sp, sp, #20	; 0x14
300014c8:	e50b0008 	str	r0, [fp, #-8]
300014cc:	e50b100c 	str	r1, [fp, #-12]
300014d0:	ea000009 	b	300014fc <strchr+0x40>
300014d4:	e51b3008 	ldr	r3, [fp, #-8]
300014d8:	e5d33000 	ldrb	r3, [r3]
300014dc:	e3530000 	cmp	r3, #0	; 0x0
300014e0:	1a000002 	bne	300014f0 <strchr+0x34>
300014e4:	e3a03000 	mov	r3, #0	; 0x0
300014e8:	e50b3010 	str	r3, [fp, #-16]
300014ec:	ea00000a 	b	3000151c <strchr+0x60>
300014f0:	e51b3008 	ldr	r3, [fp, #-8]
300014f4:	e2833001 	add	r3, r3, #1	; 0x1
300014f8:	e50b3008 	str	r3, [fp, #-8]
300014fc:	e51b3008 	ldr	r3, [fp, #-8]
30001500:	e5d32000 	ldrb	r2, [r3]
30001504:	e51b300c 	ldr	r3, [fp, #-12]
30001508:	e20330ff 	and	r3, r3, #255	; 0xff
3000150c:	e1520003 	cmp	r2, r3
30001510:	1affffef 	bne	300014d4 <strchr+0x18>
30001514:	e51b3008 	ldr	r3, [fp, #-8]
30001518:	e50b3010 	str	r3, [fp, #-16]
3000151c:	e51b3010 	ldr	r3, [fp, #-16]
30001520:	e1a00003 	mov	r0, r3
30001524:	e28bd000 	add	sp, fp, #0	; 0x0
30001528:	e8bd0800 	pop	{fp}
3000152c:	e12fff1e 	bx	lr

30001530 <strrchr>:
30001530:	e92d4800 	push	{fp, lr}
30001534:	e28db004 	add	fp, sp, #4	; 0x4
30001538:	e24dd018 	sub	sp, sp, #24	; 0x18
3000153c:	e50b0010 	str	r0, [fp, #-16]
30001540:	e50b1014 	str	r1, [fp, #-20]
30001544:	e51b0010 	ldr	r0, [fp, #-16]
30001548:	eb00001b 	bl	300015bc <strlen>
3000154c:	e1a03000 	mov	r3, r0
30001550:	e1a02003 	mov	r2, r3
30001554:	e51b3010 	ldr	r3, [fp, #-16]
30001558:	e0833002 	add	r3, r3, r2
3000155c:	e50b3008 	str	r3, [fp, #-8]
30001560:	e51b3008 	ldr	r3, [fp, #-8]
30001564:	e5d32000 	ldrb	r2, [r3]
30001568:	e51b3014 	ldr	r3, [fp, #-20]
3000156c:	e20330ff 	and	r3, r3, #255	; 0xff
30001570:	e1520003 	cmp	r2, r3
30001574:	1a000002 	bne	30001584 <strrchr+0x54>
30001578:	e51b3008 	ldr	r3, [fp, #-8]
3000157c:	e50b3018 	str	r3, [fp, #-24]
30001580:	ea000008 	b	300015a8 <strrchr+0x78>
30001584:	e51b3008 	ldr	r3, [fp, #-8]
30001588:	e2433001 	sub	r3, r3, #1	; 0x1
3000158c:	e50b3008 	str	r3, [fp, #-8]
30001590:	e51b2008 	ldr	r2, [fp, #-8]
30001594:	e51b3010 	ldr	r3, [fp, #-16]
30001598:	e1520003 	cmp	r2, r3
3000159c:	2affffef 	bcs	30001560 <strrchr+0x30>
300015a0:	e3a03000 	mov	r3, #0	; 0x0
300015a4:	e50b3018 	str	r3, [fp, #-24]
300015a8:	e51b3018 	ldr	r3, [fp, #-24]
300015ac:	e1a00003 	mov	r0, r3
300015b0:	e24bd004 	sub	sp, fp, #4	; 0x4
300015b4:	e8bd4800 	pop	{fp, lr}
300015b8:	e12fff1e 	bx	lr

300015bc <strlen>:
300015bc:	e52db004 	push	{fp}		; (str fp, [sp, #-4]!)
300015c0:	e28db000 	add	fp, sp, #0	; 0x0
300015c4:	e24dd014 	sub	sp, sp, #20	; 0x14
300015c8:	e50b0010 	str	r0, [fp, #-16]
300015cc:	e51b3010 	ldr	r3, [fp, #-16]
300015d0:	e50b3008 	str	r3, [fp, #-8]
300015d4:	ea000002 	b	300015e4 <strlen+0x28>
300015d8:	e51b3008 	ldr	r3, [fp, #-8]
300015dc:	e2833001 	add	r3, r3, #1	; 0x1
300015e0:	e50b3008 	str	r3, [fp, #-8]
300015e4:	e51b3008 	ldr	r3, [fp, #-8]
300015e8:	e5d33000 	ldrb	r3, [r3]
300015ec:	e3530000 	cmp	r3, #0	; 0x0
300015f0:	1afffff8 	bne	300015d8 <strlen+0x1c>
300015f4:	e51b2008 	ldr	r2, [fp, #-8]
300015f8:	e51b3010 	ldr	r3, [fp, #-16]
300015fc:	e0633002 	rsb	r3, r3, r2
30001600:	e1a00003 	mov	r0, r3
30001604:	e28bd000 	add	sp, fp, #0	; 0x0
30001608:	e8bd0800 	pop	{fp}
3000160c:	e12fff1e 	bx	lr

30001610 <strnlen>:
30001610:	e52db004 	push	{fp}		; (str fp, [sp, #-4]!)
30001614:	e28db000 	add	fp, sp, #0	; 0x0
30001618:	e24dd014 	sub	sp, sp, #20	; 0x14
3000161c:	e50b0010 	str	r0, [fp, #-16]
30001620:	e50b1014 	str	r1, [fp, #-20]
30001624:	e51b3010 	ldr	r3, [fp, #-16]
30001628:	e50b3008 	str	r3, [fp, #-8]
3000162c:	ea000002 	b	3000163c <strnlen+0x2c>
30001630:	e51b3008 	ldr	r3, [fp, #-8]
30001634:	e2833001 	add	r3, r3, #1	; 0x1
30001638:	e50b3008 	str	r3, [fp, #-8]
3000163c:	e51b3014 	ldr	r3, [fp, #-20]
30001640:	e3530000 	cmp	r3, #0	; 0x0
30001644:	03a03000 	moveq	r3, #0	; 0x0
30001648:	13a03001 	movne	r3, #1	; 0x1
3000164c:	e20320ff 	and	r2, r3, #255	; 0xff
30001650:	e51b3014 	ldr	r3, [fp, #-20]
30001654:	e2433001 	sub	r3, r3, #1	; 0x1
30001658:	e50b3014 	str	r3, [fp, #-20]
3000165c:	e2223001 	eor	r3, r2, #1	; 0x1
30001660:	e20330ff 	and	r3, r3, #255	; 0xff
30001664:	e3530000 	cmp	r3, #0	; 0x0
30001668:	1a000003 	bne	3000167c <strnlen+0x6c>
3000166c:	e51b3008 	ldr	r3, [fp, #-8]
30001670:	e5d33000 	ldrb	r3, [r3]
30001674:	e3530000 	cmp	r3, #0	; 0x0
30001678:	1affffec 	bne	30001630 <strnlen+0x20>
3000167c:	e51b2008 	ldr	r2, [fp, #-8]
30001680:	e51b3010 	ldr	r3, [fp, #-16]
30001684:	e0633002 	rsb	r3, r3, r2
30001688:	e1a00003 	mov	r0, r3
3000168c:	e28bd000 	add	sp, fp, #0	; 0x0
30001690:	e8bd0800 	pop	{fp}
30001694:	e12fff1e 	bx	lr

30001698 <strspn>:
30001698:	e52db004 	push	{fp}		; (str fp, [sp, #-4]!)
3000169c:	e28db000 	add	fp, sp, #0	; 0x0
300016a0:	e24dd024 	sub	sp, sp, #36	; 0x24
300016a4:	e50b0018 	str	r0, [fp, #-24]
300016a8:	e50b101c 	str	r1, [fp, #-28]
300016ac:	e3a03000 	mov	r3, #0	; 0x0
300016b0:	e50b3008 	str	r3, [fp, #-8]
300016b4:	e51b3018 	ldr	r3, [fp, #-24]
300016b8:	e50b3010 	str	r3, [fp, #-16]
300016bc:	ea00001c 	b	30001734 <strspn+0x9c>
300016c0:	e51b301c 	ldr	r3, [fp, #-28]
300016c4:	e50b300c 	str	r3, [fp, #-12]
300016c8:	ea000008 	b	300016f0 <strspn+0x58>
300016cc:	e51b3010 	ldr	r3, [fp, #-16]
300016d0:	e5d32000 	ldrb	r2, [r3]
300016d4:	e51b300c 	ldr	r3, [fp, #-12]
300016d8:	e5d33000 	ldrb	r3, [r3]
300016dc:	e1520003 	cmp	r2, r3
300016e0:	0a000006 	beq	30001700 <strspn+0x68>
300016e4:	e51b300c 	ldr	r3, [fp, #-12]
300016e8:	e2833001 	add	r3, r3, #1	; 0x1
300016ec:	e50b300c 	str	r3, [fp, #-12]
300016f0:	e51b300c 	ldr	r3, [fp, #-12]
300016f4:	e5d33000 	ldrb	r3, [r3]
300016f8:	e3530000 	cmp	r3, #0	; 0x0
300016fc:	1afffff2 	bne	300016cc <strspn+0x34>
30001700:	e51b300c 	ldr	r3, [fp, #-12]
30001704:	e5d33000 	ldrb	r3, [r3]
30001708:	e3530000 	cmp	r3, #0	; 0x0
3000170c:	1a000002 	bne	3000171c <strspn+0x84>
30001710:	e51b3008 	ldr	r3, [fp, #-8]
30001714:	e50b3020 	str	r3, [fp, #-32]
30001718:	ea00000b 	b	3000174c <strspn+0xb4>
3000171c:	e51b3008 	ldr	r3, [fp, #-8]
30001720:	e2833001 	add	r3, r3, #1	; 0x1
30001724:	e50b3008 	str	r3, [fp, #-8]
30001728:	e51b3010 	ldr	r3, [fp, #-16]
3000172c:	e2833001 	add	r3, r3, #1	; 0x1
30001730:	e50b3010 	str	r3, [fp, #-16]
30001734:	e51b3010 	ldr	r3, [fp, #-16]
30001738:	e5d33000 	ldrb	r3, [r3]
3000173c:	e3530000 	cmp	r3, #0	; 0x0
30001740:	1affffde 	bne	300016c0 <strspn+0x28>
30001744:	e51b3008 	ldr	r3, [fp, #-8]
30001748:	e50b3020 	str	r3, [fp, #-32]
3000174c:	e51b3020 	ldr	r3, [fp, #-32]
30001750:	e1a00003 	mov	r0, r3
30001754:	e28bd000 	add	sp, fp, #0	; 0x0
30001758:	e8bd0800 	pop	{fp}
3000175c:	e12fff1e 	bx	lr

30001760 <strpbrk>:
30001760:	e52db004 	push	{fp}		; (str fp, [sp, #-4]!)
30001764:	e28db000 	add	fp, sp, #0	; 0x0
30001768:	e24dd01c 	sub	sp, sp, #28	; 0x1c
3000176c:	e50b0010 	str	r0, [fp, #-16]
30001770:	e50b1014 	str	r1, [fp, #-20]
30001774:	e51b3010 	ldr	r3, [fp, #-16]
30001778:	e50b300c 	str	r3, [fp, #-12]
3000177c:	ea000015 	b	300017d8 <strpbrk+0x78>
30001780:	e51b3014 	ldr	r3, [fp, #-20]
30001784:	e50b3008 	str	r3, [fp, #-8]
30001788:	ea00000b 	b	300017bc <strpbrk+0x5c>
3000178c:	e51b300c 	ldr	r3, [fp, #-12]
30001790:	e5d32000 	ldrb	r2, [r3]
30001794:	e51b3008 	ldr	r3, [fp, #-8]
30001798:	e5d33000 	ldrb	r3, [r3]
3000179c:	e1520003 	cmp	r2, r3
300017a0:	1a000002 	bne	300017b0 <strpbrk+0x50>
300017a4:	e51b300c 	ldr	r3, [fp, #-12]
300017a8:	e50b3018 	str	r3, [fp, #-24]
300017ac:	ea00000f 	b	300017f0 <strpbrk+0x90>
300017b0:	e51b3008 	ldr	r3, [fp, #-8]
300017b4:	e2833001 	add	r3, r3, #1	; 0x1
300017b8:	e50b3008 	str	r3, [fp, #-8]
300017bc:	e51b3008 	ldr	r3, [fp, #-8]
300017c0:	e5d33000 	ldrb	r3, [r3]
300017c4:	e3530000 	cmp	r3, #0	; 0x0
300017c8:	1affffef 	bne	3000178c <strpbrk+0x2c>
300017cc:	e51b300c 	ldr	r3, [fp, #-12]
300017d0:	e2833001 	add	r3, r3, #1	; 0x1
300017d4:	e50b300c 	str	r3, [fp, #-12]
300017d8:	e51b300c 	ldr	r3, [fp, #-12]
300017dc:	e5d33000 	ldrb	r3, [r3]
300017e0:	e3530000 	cmp	r3, #0	; 0x0
300017e4:	1affffe5 	bne	30001780 <strpbrk+0x20>
300017e8:	e3a03000 	mov	r3, #0	; 0x0
300017ec:	e50b3018 	str	r3, [fp, #-24]
300017f0:	e51b3018 	ldr	r3, [fp, #-24]
300017f4:	e1a00003 	mov	r0, r3
300017f8:	e28bd000 	add	sp, fp, #0	; 0x0
300017fc:	e8bd0800 	pop	{fp}
30001800:	e12fff1e 	bx	lr

30001804 <strtok>:
30001804:	e92d4800 	push	{fp, lr}
30001808:	e28db004 	add	fp, sp, #4	; 0x4
3000180c:	e24dd020 	sub	sp, sp, #32	; 0x20
30001810:	e59f2124 	ldr	r2, [pc, #292]	; 3000193c <strtok+0x138>
30001814:	e50b2020 	str	r2, [fp, #-32]
30001818:	e51b3020 	ldr	r3, [fp, #-32]
3000181c:	e08f3003 	add	r3, pc, r3
30001820:	e50b3020 	str	r3, [fp, #-32]
30001824:	e50b0010 	str	r0, [fp, #-16]
30001828:	e50b1014 	str	r1, [fp, #-20]
3000182c:	e51b3010 	ldr	r3, [fp, #-16]
30001830:	e3530000 	cmp	r3, #0	; 0x0
30001834:	0a000002 	beq	30001844 <strtok+0x40>
30001838:	e51b1010 	ldr	r1, [fp, #-16]
3000183c:	e50b101c 	str	r1, [fp, #-28]
30001840:	ea000004 	b	30001858 <strtok+0x54>
30001844:	e59f30f4 	ldr	r3, [pc, #244]	; 30001940 <strtok+0x13c>
30001848:	e51b2020 	ldr	r2, [fp, #-32]
3000184c:	e7923003 	ldr	r3, [r2, r3]
30001850:	e5933000 	ldr	r3, [r3]
30001854:	e50b301c 	str	r3, [fp, #-28]
30001858:	e51b301c 	ldr	r3, [fp, #-28]
3000185c:	e50b300c 	str	r3, [fp, #-12]
30001860:	e51b300c 	ldr	r3, [fp, #-12]
30001864:	e3530000 	cmp	r3, #0	; 0x0
30001868:	1a000002 	bne	30001878 <strtok+0x74>
3000186c:	e3a01000 	mov	r1, #0	; 0x0
30001870:	e50b1018 	str	r1, [fp, #-24]
30001874:	ea00002b 	b	30001928 <strtok+0x124>
30001878:	e51b000c 	ldr	r0, [fp, #-12]
3000187c:	e51b1014 	ldr	r1, [fp, #-20]
30001880:	ebffff84 	bl	30001698 <strspn>
30001884:	e1a02000 	mov	r2, r0
30001888:	e51b300c 	ldr	r3, [fp, #-12]
3000188c:	e0833002 	add	r3, r3, r2
30001890:	e50b300c 	str	r3, [fp, #-12]
30001894:	e51b300c 	ldr	r3, [fp, #-12]
30001898:	e5d33000 	ldrb	r3, [r3]
3000189c:	e3530000 	cmp	r3, #0	; 0x0
300018a0:	1a000007 	bne	300018c4 <strtok+0xc0>
300018a4:	e59f3094 	ldr	r3, [pc, #148]	; 30001940 <strtok+0x13c>
300018a8:	e51b1020 	ldr	r1, [fp, #-32]
300018ac:	e7912003 	ldr	r2, [r1, r3]
300018b0:	e3a03000 	mov	r3, #0	; 0x0
300018b4:	e5823000 	str	r3, [r2]
300018b8:	e3a02000 	mov	r2, #0	; 0x0
300018bc:	e50b2018 	str	r2, [fp, #-24]
300018c0:	ea000018 	b	30001928 <strtok+0x124>
300018c4:	e51b000c 	ldr	r0, [fp, #-12]
300018c8:	e51b1014 	ldr	r1, [fp, #-20]
300018cc:	ebffffa3 	bl	30001760 <strpbrk>
300018d0:	e1a03000 	mov	r3, r0
300018d4:	e50b3008 	str	r3, [fp, #-8]
300018d8:	e51b3008 	ldr	r3, [fp, #-8]
300018dc:	e3530000 	cmp	r3, #0	; 0x0
300018e0:	0a000009 	beq	3000190c <strtok+0x108>
300018e4:	e51b3008 	ldr	r3, [fp, #-8]
300018e8:	e5d33000 	ldrb	r3, [r3]
300018ec:	e3530000 	cmp	r3, #0	; 0x0
300018f0:	0a000005 	beq	3000190c <strtok+0x108>
300018f4:	e51b2008 	ldr	r2, [fp, #-8]
300018f8:	e3a03000 	mov	r3, #0	; 0x0
300018fc:	e5c23000 	strb	r3, [r2]
30001900:	e51b3008 	ldr	r3, [fp, #-8]
30001904:	e2833001 	add	r3, r3, #1	; 0x1
30001908:	e50b3008 	str	r3, [fp, #-8]
3000190c:	e59f302c 	ldr	r3, [pc, #44]	; 30001940 <strtok+0x13c>
30001910:	e51b1020 	ldr	r1, [fp, #-32]
30001914:	e7912003 	ldr	r2, [r1, r3]
30001918:	e51b3008 	ldr	r3, [fp, #-8]
3000191c:	e5823000 	str	r3, [r2]
30001920:	e51b200c 	ldr	r2, [fp, #-12]
30001924:	e50b2018 	str	r2, [fp, #-24]
30001928:	e51b3018 	ldr	r3, [fp, #-24]
3000192c:	e1a00003 	mov	r0, r3
30001930:	e24bd004 	sub	sp, fp, #4	; 0x4
30001934:	e8bd4800 	pop	{fp, lr}
30001938:	e12fff1e 	bx	lr
3000193c:	cfffe7dc 	.word	0xcfffe7dc
30001940:	00000570 	.word	0x00000570

30001944 <strsep>:
30001944:	e92d4800 	push	{fp, lr}
30001948:	e28db004 	add	fp, sp, #4	; 0x4
3000194c:	e24dd018 	sub	sp, sp, #24	; 0x18
30001950:	e50b0010 	str	r0, [fp, #-16]
30001954:	e50b1014 	str	r1, [fp, #-20]
30001958:	e51b3010 	ldr	r3, [fp, #-16]
3000195c:	e5933000 	ldr	r3, [r3]
30001960:	e50b300c 	str	r3, [fp, #-12]
30001964:	e51b300c 	ldr	r3, [fp, #-12]
30001968:	e3530000 	cmp	r3, #0	; 0x0
3000196c:	1a000002 	bne	3000197c <strsep+0x38>
30001970:	e3a03000 	mov	r3, #0	; 0x0
30001974:	e50b3018 	str	r3, [fp, #-24]
30001978:	ea000012 	b	300019c8 <strsep+0x84>
3000197c:	e51b000c 	ldr	r0, [fp, #-12]
30001980:	e51b1014 	ldr	r1, [fp, #-20]
30001984:	ebffff75 	bl	30001760 <strpbrk>
30001988:	e1a03000 	mov	r3, r0
3000198c:	e50b3008 	str	r3, [fp, #-8]
30001990:	e51b3008 	ldr	r3, [fp, #-8]
30001994:	e3530000 	cmp	r3, #0	; 0x0
30001998:	0a000005 	beq	300019b4 <strsep+0x70>
3000199c:	e51b2008 	ldr	r2, [fp, #-8]
300019a0:	e3a03000 	mov	r3, #0	; 0x0
300019a4:	e5c23000 	strb	r3, [r2]
300019a8:	e51b3008 	ldr	r3, [fp, #-8]
300019ac:	e2833001 	add	r3, r3, #1	; 0x1
300019b0:	e50b3008 	str	r3, [fp, #-8]
300019b4:	e51b2010 	ldr	r2, [fp, #-16]
300019b8:	e51b3008 	ldr	r3, [fp, #-8]
300019bc:	e5823000 	str	r3, [r2]
300019c0:	e51b300c 	ldr	r3, [fp, #-12]
300019c4:	e50b3018 	str	r3, [fp, #-24]
300019c8:	e51b3018 	ldr	r3, [fp, #-24]
300019cc:	e1a00003 	mov	r0, r3
300019d0:	e24bd004 	sub	sp, fp, #4	; 0x4
300019d4:	e8bd4800 	pop	{fp, lr}
300019d8:	e12fff1e 	bx	lr

300019dc <memset>:
300019dc:	e52db004 	push	{fp}		; (str fp, [sp, #-4]!)
300019e0:	e28db000 	add	fp, sp, #0	; 0x0
300019e4:	e24dd01c 	sub	sp, sp, #28	; 0x1c
300019e8:	e50b0010 	str	r0, [fp, #-16]
300019ec:	e50b1014 	str	r1, [fp, #-20]
300019f0:	e50b2018 	str	r2, [fp, #-24]
300019f4:	e51b3010 	ldr	r3, [fp, #-16]
300019f8:	e50b3008 	str	r3, [fp, #-8]
300019fc:	ea000006 	b	30001a1c <memset+0x40>
30001a00:	e51b3014 	ldr	r3, [fp, #-20]
30001a04:	e20330ff 	and	r3, r3, #255	; 0xff
30001a08:	e51b2008 	ldr	r2, [fp, #-8]
30001a0c:	e5c23000 	strb	r3, [r2]
30001a10:	e51b3008 	ldr	r3, [fp, #-8]
30001a14:	e2833001 	add	r3, r3, #1	; 0x1
30001a18:	e50b3008 	str	r3, [fp, #-8]
30001a1c:	e51b3018 	ldr	r3, [fp, #-24]
30001a20:	e3530000 	cmp	r3, #0	; 0x0
30001a24:	03a03000 	moveq	r3, #0	; 0x0
30001a28:	13a03001 	movne	r3, #1	; 0x1
30001a2c:	e20320ff 	and	r2, r3, #255	; 0xff
30001a30:	e51b3018 	ldr	r3, [fp, #-24]
30001a34:	e2433001 	sub	r3, r3, #1	; 0x1
30001a38:	e50b3018 	str	r3, [fp, #-24]
30001a3c:	e3520000 	cmp	r2, #0	; 0x0
30001a40:	1affffee 	bne	30001a00 <memset+0x24>
30001a44:	e51b3010 	ldr	r3, [fp, #-16]
30001a48:	e1a00003 	mov	r0, r3
30001a4c:	e28bd000 	add	sp, fp, #0	; 0x0
30001a50:	e8bd0800 	pop	{fp}
30001a54:	e12fff1e 	bx	lr

30001a58 <bcopy>:
30001a58:	e52db004 	push	{fp}		; (str fp, [sp, #-4]!)
30001a5c:	e28db000 	add	fp, sp, #0	; 0x0
30001a60:	e24dd01c 	sub	sp, sp, #28	; 0x1c
30001a64:	e50b0010 	str	r0, [fp, #-16]
30001a68:	e50b1014 	str	r1, [fp, #-20]
30001a6c:	e50b2018 	str	r2, [fp, #-24]
30001a70:	e51b3014 	ldr	r3, [fp, #-20]
30001a74:	e50b300c 	str	r3, [fp, #-12]
30001a78:	e51b3010 	ldr	r3, [fp, #-16]
30001a7c:	e50b3008 	str	r3, [fp, #-8]
30001a80:	ea000009 	b	30001aac <bcopy+0x54>
30001a84:	e51b3008 	ldr	r3, [fp, #-8]
30001a88:	e5d33000 	ldrb	r3, [r3]
30001a8c:	e51b200c 	ldr	r2, [fp, #-12]
30001a90:	e5c23000 	strb	r3, [r2]
30001a94:	e51b300c 	ldr	r3, [fp, #-12]
30001a98:	e2833001 	add	r3, r3, #1	; 0x1
30001a9c:	e50b300c 	str	r3, [fp, #-12]
30001aa0:	e51b3008 	ldr	r3, [fp, #-8]
30001aa4:	e2833001 	add	r3, r3, #1	; 0x1
30001aa8:	e50b3008 	str	r3, [fp, #-8]
30001aac:	e51b3018 	ldr	r3, [fp, #-24]
30001ab0:	e3530000 	cmp	r3, #0	; 0x0
30001ab4:	03a03000 	moveq	r3, #0	; 0x0
30001ab8:	13a03001 	movne	r3, #1	; 0x1
30001abc:	e20320ff 	and	r2, r3, #255	; 0xff
30001ac0:	e51b3018 	ldr	r3, [fp, #-24]
30001ac4:	e2433001 	sub	r3, r3, #1	; 0x1
30001ac8:	e50b3018 	str	r3, [fp, #-24]
30001acc:	e3520000 	cmp	r2, #0	; 0x0
30001ad0:	1affffeb 	bne	30001a84 <bcopy+0x2c>
30001ad4:	e28bd000 	add	sp, fp, #0	; 0x0
30001ad8:	e8bd0800 	pop	{fp}
30001adc:	e12fff1e 	bx	lr

30001ae0 <memcpy>:
30001ae0:	e52db004 	push	{fp}		; (str fp, [sp, #-4]!)
30001ae4:	e28db000 	add	fp, sp, #0	; 0x0
30001ae8:	e24dd01c 	sub	sp, sp, #28	; 0x1c
30001aec:	e50b0010 	str	r0, [fp, #-16]
30001af0:	e50b1014 	str	r1, [fp, #-20]
30001af4:	e50b2018 	str	r2, [fp, #-24]
30001af8:	e51b3010 	ldr	r3, [fp, #-16]
30001afc:	e50b300c 	str	r3, [fp, #-12]
30001b00:	e51b3014 	ldr	r3, [fp, #-20]
30001b04:	e50b3008 	str	r3, [fp, #-8]
30001b08:	ea000009 	b	30001b34 <memcpy+0x54>
30001b0c:	e51b3008 	ldr	r3, [fp, #-8]
30001b10:	e5d33000 	ldrb	r3, [r3]
30001b14:	e51b200c 	ldr	r2, [fp, #-12]
30001b18:	e5c23000 	strb	r3, [r2]
30001b1c:	e51b300c 	ldr	r3, [fp, #-12]
30001b20:	e2833001 	add	r3, r3, #1	; 0x1
30001b24:	e50b300c 	str	r3, [fp, #-12]
30001b28:	e51b3008 	ldr	r3, [fp, #-8]
30001b2c:	e2833001 	add	r3, r3, #1	; 0x1
30001b30:	e50b3008 	str	r3, [fp, #-8]
30001b34:	e51b3018 	ldr	r3, [fp, #-24]
30001b38:	e3530000 	cmp	r3, #0	; 0x0
30001b3c:	03a03000 	moveq	r3, #0	; 0x0
30001b40:	13a03001 	movne	r3, #1	; 0x1
30001b44:	e20320ff 	and	r2, r3, #255	; 0xff
30001b48:	e51b3018 	ldr	r3, [fp, #-24]
30001b4c:	e2433001 	sub	r3, r3, #1	; 0x1
30001b50:	e50b3018 	str	r3, [fp, #-24]
30001b54:	e3520000 	cmp	r2, #0	; 0x0
30001b58:	1affffeb 	bne	30001b0c <memcpy+0x2c>
30001b5c:	e51b3010 	ldr	r3, [fp, #-16]
30001b60:	e1a00003 	mov	r0, r3
30001b64:	e28bd000 	add	sp, fp, #0	; 0x0
30001b68:	e8bd0800 	pop	{fp}
30001b6c:	e12fff1e 	bx	lr

30001b70 <memmove>:
30001b70:	e52db004 	push	{fp}		; (str fp, [sp, #-4]!)
30001b74:	e28db000 	add	fp, sp, #0	; 0x0
30001b78:	e24dd01c 	sub	sp, sp, #28	; 0x1c
30001b7c:	e50b0010 	str	r0, [fp, #-16]
30001b80:	e50b1014 	str	r1, [fp, #-20]
30001b84:	e50b2018 	str	r2, [fp, #-24]
30001b88:	e51b2010 	ldr	r2, [fp, #-16]
30001b8c:	e51b3014 	ldr	r3, [fp, #-20]
30001b90:	e1520003 	cmp	r2, r3
30001b94:	8a000019 	bhi	30001c00 <memmove+0x90>
30001b98:	e51b3010 	ldr	r3, [fp, #-16]
30001b9c:	e50b300c 	str	r3, [fp, #-12]
30001ba0:	e51b3014 	ldr	r3, [fp, #-20]
30001ba4:	e50b3008 	str	r3, [fp, #-8]
30001ba8:	ea000009 	b	30001bd4 <memmove+0x64>
30001bac:	e51b3008 	ldr	r3, [fp, #-8]
30001bb0:	e5d33000 	ldrb	r3, [r3]
30001bb4:	e51b200c 	ldr	r2, [fp, #-12]
30001bb8:	e5c23000 	strb	r3, [r2]
30001bbc:	e51b300c 	ldr	r3, [fp, #-12]
30001bc0:	e2833001 	add	r3, r3, #1	; 0x1
30001bc4:	e50b300c 	str	r3, [fp, #-12]
30001bc8:	e51b3008 	ldr	r3, [fp, #-8]
30001bcc:	e2833001 	add	r3, r3, #1	; 0x1
30001bd0:	e50b3008 	str	r3, [fp, #-8]
30001bd4:	e51b3018 	ldr	r3, [fp, #-24]
30001bd8:	e3530000 	cmp	r3, #0	; 0x0
30001bdc:	03a03000 	moveq	r3, #0	; 0x0
30001be0:	13a03001 	movne	r3, #1	; 0x1
30001be4:	e20320ff 	and	r2, r3, #255	; 0xff
30001be8:	e51b3018 	ldr	r3, [fp, #-24]
30001bec:	e2433001 	sub	r3, r3, #1	; 0x1
30001bf0:	e50b3018 	str	r3, [fp, #-24]
30001bf4:	e3520000 	cmp	r2, #0	; 0x0
30001bf8:	1affffeb 	bne	30001bac <memmove+0x3c>
30001bfc:	ea00001c 	b	30001c74 <memmove+0x104>
30001c00:	e51b2010 	ldr	r2, [fp, #-16]
30001c04:	e51b3018 	ldr	r3, [fp, #-24]
30001c08:	e0823003 	add	r3, r2, r3
30001c0c:	e50b300c 	str	r3, [fp, #-12]
30001c10:	e51b2014 	ldr	r2, [fp, #-20]
30001c14:	e51b3018 	ldr	r3, [fp, #-24]
30001c18:	e0823003 	add	r3, r2, r3
30001c1c:	e50b3008 	str	r3, [fp, #-8]
30001c20:	ea000009 	b	30001c4c <memmove+0xdc>
30001c24:	e51b300c 	ldr	r3, [fp, #-12]
30001c28:	e2433001 	sub	r3, r3, #1	; 0x1
30001c2c:	e50b300c 	str	r3, [fp, #-12]
30001c30:	e51b3008 	ldr	r3, [fp, #-8]
30001c34:	e2433001 	sub	r3, r3, #1	; 0x1
30001c38:	e50b3008 	str	r3, [fp, #-8]
30001c3c:	e51b3008 	ldr	r3, [fp, #-8]
30001c40:	e5d33000 	ldrb	r3, [r3]
30001c44:	e51b200c 	ldr	r2, [fp, #-12]
30001c48:	e5c23000 	strb	r3, [r2]
30001c4c:	e51b3018 	ldr	r3, [fp, #-24]
30001c50:	e3530000 	cmp	r3, #0	; 0x0
30001c54:	03a03000 	moveq	r3, #0	; 0x0
30001c58:	13a03001 	movne	r3, #1	; 0x1
30001c5c:	e20320ff 	and	r2, r3, #255	; 0xff
30001c60:	e51b3018 	ldr	r3, [fp, #-24]
30001c64:	e2433001 	sub	r3, r3, #1	; 0x1
30001c68:	e50b3018 	str	r3, [fp, #-24]
30001c6c:	e3520000 	cmp	r2, #0	; 0x0
30001c70:	1affffeb 	bne	30001c24 <memmove+0xb4>
30001c74:	e51b3010 	ldr	r3, [fp, #-16]
30001c78:	e1a00003 	mov	r0, r3
30001c7c:	e28bd000 	add	sp, fp, #0	; 0x0
30001c80:	e8bd0800 	pop	{fp}
30001c84:	e12fff1e 	bx	lr

30001c88 <memcmp>:
30001c88:	e52db004 	push	{fp}		; (str fp, [sp, #-4]!)
30001c8c:	e28db000 	add	fp, sp, #0	; 0x0
30001c90:	e24dd024 	sub	sp, sp, #36	; 0x24
30001c94:	e50b0018 	str	r0, [fp, #-24]
30001c98:	e50b101c 	str	r1, [fp, #-28]
30001c9c:	e50b2020 	str	r2, [fp, #-32]
30001ca0:	e3a03000 	mov	r3, #0	; 0x0
30001ca4:	e50b3008 	str	r3, [fp, #-8]
30001ca8:	e51b3018 	ldr	r3, [fp, #-24]
30001cac:	e50b3010 	str	r3, [fp, #-16]
30001cb0:	e51b301c 	ldr	r3, [fp, #-28]
30001cb4:	e50b300c 	str	r3, [fp, #-12]
30001cb8:	ea000012 	b	30001d08 <memcmp+0x80>
30001cbc:	e51b3010 	ldr	r3, [fp, #-16]
30001cc0:	e5d33000 	ldrb	r3, [r3]
30001cc4:	e1a02003 	mov	r2, r3
30001cc8:	e51b300c 	ldr	r3, [fp, #-12]
30001ccc:	e5d33000 	ldrb	r3, [r3]
30001cd0:	e0633002 	rsb	r3, r3, r2
30001cd4:	e50b3008 	str	r3, [fp, #-8]
30001cd8:	e51b3008 	ldr	r3, [fp, #-8]
30001cdc:	e3530000 	cmp	r3, #0	; 0x0
30001ce0:	1a00000b 	bne	30001d14 <memcmp+0x8c>
30001ce4:	e51b3010 	ldr	r3, [fp, #-16]
30001ce8:	e2833001 	add	r3, r3, #1	; 0x1
30001cec:	e50b3010 	str	r3, [fp, #-16]
30001cf0:	e51b300c 	ldr	r3, [fp, #-12]
30001cf4:	e2833001 	add	r3, r3, #1	; 0x1
30001cf8:	e50b300c 	str	r3, [fp, #-12]
30001cfc:	e51b3020 	ldr	r3, [fp, #-32]
30001d00:	e2433001 	sub	r3, r3, #1	; 0x1
30001d04:	e50b3020 	str	r3, [fp, #-32]
30001d08:	e51b3020 	ldr	r3, [fp, #-32]
30001d0c:	e3530000 	cmp	r3, #0	; 0x0
30001d10:	1affffe9 	bne	30001cbc <memcmp+0x34>
30001d14:	e51b3008 	ldr	r3, [fp, #-8]
30001d18:	e1a00003 	mov	r0, r3
30001d1c:	e28bd000 	add	sp, fp, #0	; 0x0
30001d20:	e8bd0800 	pop	{fp}
30001d24:	e12fff1e 	bx	lr

30001d28 <memscan>:
30001d28:	e52db004 	push	{fp}		; (str fp, [sp, #-4]!)
30001d2c:	e28db000 	add	fp, sp, #0	; 0x0
30001d30:	e24dd01c 	sub	sp, sp, #28	; 0x1c
30001d34:	e50b0010 	str	r0, [fp, #-16]
30001d38:	e50b1014 	str	r1, [fp, #-20]
30001d3c:	e50b2018 	str	r2, [fp, #-24]
30001d40:	e51b3010 	ldr	r3, [fp, #-16]
30001d44:	e50b3008 	str	r3, [fp, #-8]
30001d48:	ea00000e 	b	30001d88 <memscan+0x60>
30001d4c:	e51b3008 	ldr	r3, [fp, #-8]
30001d50:	e5d33000 	ldrb	r3, [r3]
30001d54:	e1a02003 	mov	r2, r3
30001d58:	e51b3014 	ldr	r3, [fp, #-20]
30001d5c:	e1520003 	cmp	r2, r3
30001d60:	1a000002 	bne	30001d70 <memscan+0x48>
30001d64:	e51b3008 	ldr	r3, [fp, #-8]
30001d68:	e50b301c 	str	r3, [fp, #-28]
30001d6c:	ea00000a 	b	30001d9c <memscan+0x74>
30001d70:	e51b3008 	ldr	r3, [fp, #-8]
30001d74:	e2833001 	add	r3, r3, #1	; 0x1
30001d78:	e50b3008 	str	r3, [fp, #-8]
30001d7c:	e51b3018 	ldr	r3, [fp, #-24]
30001d80:	e2433001 	sub	r3, r3, #1	; 0x1
30001d84:	e50b3018 	str	r3, [fp, #-24]
30001d88:	e51b3018 	ldr	r3, [fp, #-24]
30001d8c:	e3530000 	cmp	r3, #0	; 0x0
30001d90:	1affffed 	bne	30001d4c <memscan+0x24>
30001d94:	e51b3008 	ldr	r3, [fp, #-8]
30001d98:	e50b301c 	str	r3, [fp, #-28]
30001d9c:	e51b301c 	ldr	r3, [fp, #-28]
30001da0:	e1a00003 	mov	r0, r3
30001da4:	e28bd000 	add	sp, fp, #0	; 0x0
30001da8:	e8bd0800 	pop	{fp}
30001dac:	e12fff1e 	bx	lr

30001db0 <strstr>:
30001db0:	e92d4800 	push	{fp, lr}
30001db4:	e28db004 	add	fp, sp, #4	; 0x4
30001db8:	e24dd018 	sub	sp, sp, #24	; 0x18
30001dbc:	e50b0010 	str	r0, [fp, #-16]
30001dc0:	e50b1014 	str	r1, [fp, #-20]
30001dc4:	e51b0014 	ldr	r0, [fp, #-20]
30001dc8:	ebfffdfb 	bl	300015bc <strlen>
30001dcc:	e1a03000 	mov	r3, r0
30001dd0:	e50b3008 	str	r3, [fp, #-8]
30001dd4:	e51b3008 	ldr	r3, [fp, #-8]
30001dd8:	e3530000 	cmp	r3, #0	; 0x0
30001ddc:	1a000002 	bne	30001dec <strstr+0x3c>
30001de0:	e51b3010 	ldr	r3, [fp, #-16]
30001de4:	e50b3018 	str	r3, [fp, #-24]
30001de8:	ea00001b 	b	30001e5c <strstr+0xac>
30001dec:	e51b0010 	ldr	r0, [fp, #-16]
30001df0:	ebfffdf1 	bl	300015bc <strlen>
30001df4:	e1a03000 	mov	r3, r0
30001df8:	e50b300c 	str	r3, [fp, #-12]
30001dfc:	ea000010 	b	30001e44 <strstr+0x94>
30001e00:	e51b300c 	ldr	r3, [fp, #-12]
30001e04:	e2433001 	sub	r3, r3, #1	; 0x1
30001e08:	e50b300c 	str	r3, [fp, #-12]
30001e0c:	e51b3008 	ldr	r3, [fp, #-8]
30001e10:	e51b0010 	ldr	r0, [fp, #-16]
30001e14:	e51b1014 	ldr	r1, [fp, #-20]
30001e18:	e1a02003 	mov	r2, r3
30001e1c:	ebffff99 	bl	30001c88 <memcmp>
30001e20:	e1a03000 	mov	r3, r0
30001e24:	e3530000 	cmp	r3, #0	; 0x0
30001e28:	1a000002 	bne	30001e38 <strstr+0x88>
30001e2c:	e51b3010 	ldr	r3, [fp, #-16]
30001e30:	e50b3018 	str	r3, [fp, #-24]
30001e34:	ea000008 	b	30001e5c <strstr+0xac>
30001e38:	e51b3010 	ldr	r3, [fp, #-16]
30001e3c:	e2833001 	add	r3, r3, #1	; 0x1
30001e40:	e50b3010 	str	r3, [fp, #-16]
30001e44:	e51b200c 	ldr	r2, [fp, #-12]
30001e48:	e51b3008 	ldr	r3, [fp, #-8]
30001e4c:	e1520003 	cmp	r2, r3
30001e50:	aaffffea 	bge	30001e00 <strstr+0x50>
30001e54:	e3a03000 	mov	r3, #0	; 0x0
30001e58:	e50b3018 	str	r3, [fp, #-24]
30001e5c:	e51b3018 	ldr	r3, [fp, #-24]
30001e60:	e1a00003 	mov	r0, r3
30001e64:	e24bd004 	sub	sp, fp, #4	; 0x4
30001e68:	e8bd4800 	pop	{fp, lr}
30001e6c:	e12fff1e 	bx	lr

30001e70 <memchr>:
30001e70:	e52db004 	push	{fp}		; (str fp, [sp, #-4]!)
30001e74:	e28db000 	add	fp, sp, #0	; 0x0
30001e78:	e24dd01c 	sub	sp, sp, #28	; 0x1c
30001e7c:	e50b0010 	str	r0, [fp, #-16]
30001e80:	e50b1014 	str	r1, [fp, #-20]
30001e84:	e50b2018 	str	r2, [fp, #-24]
30001e88:	e51b3010 	ldr	r3, [fp, #-16]
30001e8c:	e50b3008 	str	r3, [fp, #-8]
30001e90:	ea000010 	b	30001ed8 <memchr+0x68>
30001e94:	e51b3014 	ldr	r3, [fp, #-20]
30001e98:	e20320ff 	and	r2, r3, #255	; 0xff
30001e9c:	e51b3008 	ldr	r3, [fp, #-8]
30001ea0:	e5d33000 	ldrb	r3, [r3]
30001ea4:	e1520003 	cmp	r2, r3
30001ea8:	13a03000 	movne	r3, #0	; 0x0
30001eac:	03a03001 	moveq	r3, #1	; 0x1
30001eb0:	e20320ff 	and	r2, r3, #255	; 0xff
30001eb4:	e51b3008 	ldr	r3, [fp, #-8]
30001eb8:	e2833001 	add	r3, r3, #1	; 0x1
30001ebc:	e50b3008 	str	r3, [fp, #-8]
30001ec0:	e3520000 	cmp	r2, #0	; 0x0
30001ec4:	0a000003 	beq	30001ed8 <memchr+0x68>
30001ec8:	e51b3008 	ldr	r3, [fp, #-8]
30001ecc:	e2433001 	sub	r3, r3, #1	; 0x1
30001ed0:	e50b301c 	str	r3, [fp, #-28]
30001ed4:	ea00000b 	b	30001f08 <memchr+0x98>
30001ed8:	e51b3018 	ldr	r3, [fp, #-24]
30001edc:	e3530000 	cmp	r3, #0	; 0x0
30001ee0:	03a03000 	moveq	r3, #0	; 0x0
30001ee4:	13a03001 	movne	r3, #1	; 0x1
30001ee8:	e20320ff 	and	r2, r3, #255	; 0xff
30001eec:	e51b3018 	ldr	r3, [fp, #-24]
30001ef0:	e2433001 	sub	r3, r3, #1	; 0x1
30001ef4:	e50b3018 	str	r3, [fp, #-24]
30001ef8:	e3520000 	cmp	r2, #0	; 0x0
30001efc:	1affffe4 	bne	30001e94 <memchr+0x24>
30001f00:	e3a03000 	mov	r3, #0	; 0x0
30001f04:	e50b301c 	str	r3, [fp, #-28]
30001f08:	e51b301c 	ldr	r3, [fp, #-28]
30001f0c:	e1a00003 	mov	r0, r3
30001f10:	e28bd000 	add	sp, fp, #0	; 0x0
30001f14:	e8bd0800 	pop	{fp}
30001f18:	e12fff1e 	bx	lr

30001f1c <simple_strtoul>:
30001f1c:	e92d4800 	push	{fp, lr}
30001f20:	e28db004 	add	fp, sp, #4	; 0x4
30001f24:	e24dd020 	sub	sp, sp, #32	; 0x20
30001f28:	e59f31ec 	ldr	r3, [pc, #492]	; 3000211c <simple_strtoul+0x200>
30001f2c:	e50b3020 	str	r3, [fp, #-32]
30001f30:	e51b3020 	ldr	r3, [fp, #-32]
30001f34:	e08f3003 	add	r3, pc, r3
30001f38:	e50b3020 	str	r3, [fp, #-32]
30001f3c:	e50b0010 	str	r0, [fp, #-16]
30001f40:	e50b1014 	str	r1, [fp, #-20]
30001f44:	e50b2018 	str	r2, [fp, #-24]
30001f48:	e3a03000 	mov	r3, #0	; 0x0
30001f4c:	e50b300c 	str	r3, [fp, #-12]
30001f50:	e51b3018 	ldr	r3, [fp, #-24]
30001f54:	e3530000 	cmp	r3, #0	; 0x0
30001f58:	1a000022 	bne	30001fe8 <simple_strtoul+0xcc>
30001f5c:	e3a0300a 	mov	r3, #10	; 0xa
30001f60:	e50b3018 	str	r3, [fp, #-24]
30001f64:	e51b3010 	ldr	r3, [fp, #-16]
30001f68:	e5d33000 	ldrb	r3, [r3]
30001f6c:	e3530030 	cmp	r3, #48	; 0x30
30001f70:	1a000038 	bne	30002058 <simple_strtoul+0x13c>
30001f74:	e3a03008 	mov	r3, #8	; 0x8
30001f78:	e50b3018 	str	r3, [fp, #-24]
30001f7c:	e51b3010 	ldr	r3, [fp, #-16]
30001f80:	e2833001 	add	r3, r3, #1	; 0x1
30001f84:	e50b3010 	str	r3, [fp, #-16]
30001f88:	e51b3010 	ldr	r3, [fp, #-16]
30001f8c:	e5d33000 	ldrb	r3, [r3]
30001f90:	e1a00003 	mov	r0, r3
30001f94:	eb000062 	bl	30002124 <__toupper>
30001f98:	e1a03000 	mov	r3, r0
30001f9c:	e3530058 	cmp	r3, #88	; 0x58
30001fa0:	1a00002c 	bne	30002058 <simple_strtoul+0x13c>
30001fa4:	e51b3010 	ldr	r3, [fp, #-16]
30001fa8:	e2833001 	add	r3, r3, #1	; 0x1
30001fac:	e5d33000 	ldrb	r3, [r3]
30001fb0:	e1a02003 	mov	r2, r3
30001fb4:	e59f3164 	ldr	r3, [pc, #356]	; 30002120 <simple_strtoul+0x204>
30001fb8:	e51b1020 	ldr	r1, [fp, #-32]
30001fbc:	e7913003 	ldr	r3, [r1, r3]
30001fc0:	e7d33002 	ldrb	r3, [r3, r2]
30001fc4:	e2033044 	and	r3, r3, #68	; 0x44
30001fc8:	e3530000 	cmp	r3, #0	; 0x0
30001fcc:	0a000021 	beq	30002058 <simple_strtoul+0x13c>
30001fd0:	e51b3010 	ldr	r3, [fp, #-16]
30001fd4:	e2833001 	add	r3, r3, #1	; 0x1
30001fd8:	e50b3010 	str	r3, [fp, #-16]
30001fdc:	e3a03010 	mov	r3, #16	; 0x10
30001fe0:	e50b3018 	str	r3, [fp, #-24]
30001fe4:	ea00001b 	b	30002058 <simple_strtoul+0x13c>
30001fe8:	e51b3018 	ldr	r3, [fp, #-24]
30001fec:	e3530010 	cmp	r3, #16	; 0x10
30001ff0:	1a000018 	bne	30002058 <simple_strtoul+0x13c>
30001ff4:	e51b3010 	ldr	r3, [fp, #-16]
30001ff8:	e5d33000 	ldrb	r3, [r3]
30001ffc:	e3530030 	cmp	r3, #48	; 0x30
30002000:	1a000014 	bne	30002058 <simple_strtoul+0x13c>
30002004:	e51b3010 	ldr	r3, [fp, #-16]
30002008:	e2833001 	add	r3, r3, #1	; 0x1
3000200c:	e5d33000 	ldrb	r3, [r3]
30002010:	e1a00003 	mov	r0, r3
30002014:	eb000042 	bl	30002124 <__toupper>
30002018:	e1a03000 	mov	r3, r0
3000201c:	e3530058 	cmp	r3, #88	; 0x58
30002020:	1a00000c 	bne	30002058 <simple_strtoul+0x13c>
30002024:	e51b3010 	ldr	r3, [fp, #-16]
30002028:	e2833002 	add	r3, r3, #2	; 0x2
3000202c:	e50b3010 	str	r3, [fp, #-16]
30002030:	ea000008 	b	30002058 <simple_strtoul+0x13c>
30002034:	e51b200c 	ldr	r2, [fp, #-12]
30002038:	e51b3018 	ldr	r3, [fp, #-24]
3000203c:	e0020293 	mul	r2, r3, r2
30002040:	e51b3008 	ldr	r3, [fp, #-8]
30002044:	e0823003 	add	r3, r2, r3
30002048:	e50b300c 	str	r3, [fp, #-12]
3000204c:	e51b3010 	ldr	r3, [fp, #-16]
30002050:	e2833001 	add	r3, r3, #1	; 0x1
30002054:	e50b3010 	str	r3, [fp, #-16]
30002058:	e51b3010 	ldr	r3, [fp, #-16]
3000205c:	e5d33000 	ldrb	r3, [r3]
30002060:	e1a02003 	mov	r2, r3
30002064:	e59f30b4 	ldr	r3, [pc, #180]	; 30002120 <simple_strtoul+0x204>
30002068:	e51b1020 	ldr	r1, [fp, #-32]
3000206c:	e7913003 	ldr	r3, [r1, r3]
30002070:	e7d33002 	ldrb	r3, [r3, r2]
30002074:	e2033044 	and	r3, r3, #68	; 0x44
30002078:	e3530000 	cmp	r3, #0	; 0x0
3000207c:	0a00001b 	beq	300020f0 <simple_strtoul+0x1d4>
30002080:	e51b3010 	ldr	r3, [fp, #-16]
30002084:	e5d33000 	ldrb	r3, [r3]
30002088:	e1a02003 	mov	r2, r3
3000208c:	e59f308c 	ldr	r3, [pc, #140]	; 30002120 <simple_strtoul+0x204>
30002090:	e51b1020 	ldr	r1, [fp, #-32]
30002094:	e7913003 	ldr	r3, [r1, r3]
30002098:	e7d33002 	ldrb	r3, [r3, r2]
3000209c:	e2033004 	and	r3, r3, #4	; 0x4
300020a0:	e3530000 	cmp	r3, #0	; 0x0
300020a4:	0a000004 	beq	300020bc <simple_strtoul+0x1a0>
300020a8:	e51b3010 	ldr	r3, [fp, #-16]
300020ac:	e5d33000 	ldrb	r3, [r3]
300020b0:	e2433030 	sub	r3, r3, #48	; 0x30
300020b4:	e50b301c 	str	r3, [fp, #-28]
300020b8:	ea000006 	b	300020d8 <simple_strtoul+0x1bc>
300020bc:	e51b3010 	ldr	r3, [fp, #-16]
300020c0:	e5d33000 	ldrb	r3, [r3]
300020c4:	e1a00003 	mov	r0, r3
300020c8:	eb000015 	bl	30002124 <__toupper>
300020cc:	e1a03000 	mov	r3, r0
300020d0:	e2433037 	sub	r3, r3, #55	; 0x37
300020d4:	e50b301c 	str	r3, [fp, #-28]
300020d8:	e51b301c 	ldr	r3, [fp, #-28]
300020dc:	e50b3008 	str	r3, [fp, #-8]
300020e0:	e51b2008 	ldr	r2, [fp, #-8]
300020e4:	e51b3018 	ldr	r3, [fp, #-24]
300020e8:	e1520003 	cmp	r2, r3
300020ec:	3affffd0 	bcc	30002034 <simple_strtoul+0x118>
300020f0:	e51b3014 	ldr	r3, [fp, #-20]
300020f4:	e3530000 	cmp	r3, #0	; 0x0
300020f8:	0a000002 	beq	30002108 <simple_strtoul+0x1ec>
300020fc:	e51b2010 	ldr	r2, [fp, #-16]
30002100:	e51b3014 	ldr	r3, [fp, #-20]
30002104:	e5832000 	str	r2, [r3]
30002108:	e51b300c 	ldr	r3, [fp, #-12]
3000210c:	e1a00003 	mov	r0, r3
30002110:	e24bd004 	sub	sp, fp, #4	; 0x4
30002114:	e8bd4800 	pop	{fp, lr}
30002118:	e12fff1e 	bx	lr
3000211c:	cfffe0c4 	.word	0xcfffe0c4
30002120:	0000058c 	.word	0x0000058c

30002124 <__toupper>:
30002124:	e52db004 	push	{fp}		; (str fp, [sp, #-4]!)
30002128:	e28db000 	add	fp, sp, #0	; 0x0
3000212c:	e24dd00c 	sub	sp, sp, #12	; 0xc
30002130:	e59f2044 	ldr	r2, [pc, #68]	; 3000217c <__toupper+0x58>
30002134:	e08f2002 	add	r2, pc, r2
30002138:	e1a03000 	mov	r3, r0
3000213c:	e54b3005 	strb	r3, [fp, #-5]
30002140:	e55b1005 	ldrb	r1, [fp, #-5]
30002144:	e59f3034 	ldr	r3, [pc, #52]	; 30002180 <__toupper+0x5c>
30002148:	e7923003 	ldr	r3, [r2, r3]
3000214c:	e7d33001 	ldrb	r3, [r3, r1]
30002150:	e2033002 	and	r3, r3, #2	; 0x2
30002154:	e3530000 	cmp	r3, #0	; 0x0
30002158:	0a000002 	beq	30002168 <__toupper+0x44>
3000215c:	e55b3005 	ldrb	r3, [fp, #-5]
30002160:	e2433020 	sub	r3, r3, #32	; 0x20
30002164:	e54b3005 	strb	r3, [fp, #-5]
30002168:	e55b3005 	ldrb	r3, [fp, #-5]
3000216c:	e1a00003 	mov	r0, r3
30002170:	e28bd000 	add	sp, fp, #0	; 0x0
30002174:	e8bd0800 	pop	{fp}
30002178:	e12fff1e 	bx	lr
3000217c:	cfffdec4 	.word	0xcfffdec4
30002180:	0000058c 	.word	0x0000058c

30002184 <simple_strtol>:
30002184:	e92d4800 	push	{fp, lr}
30002188:	e28db004 	add	fp, sp, #4	; 0x4
3000218c:	e24dd010 	sub	sp, sp, #16	; 0x10
30002190:	e50b0008 	str	r0, [fp, #-8]
30002194:	e50b100c 	str	r1, [fp, #-12]
30002198:	e50b2010 	str	r2, [fp, #-16]
3000219c:	e51b3008 	ldr	r3, [fp, #-8]
300021a0:	e5d33000 	ldrb	r3, [r3]
300021a4:	e353002d 	cmp	r3, #45	; 0x2d
300021a8:	1a000009 	bne	300021d4 <simple_strtol+0x50>
300021ac:	e51b3008 	ldr	r3, [fp, #-8]
300021b0:	e2833001 	add	r3, r3, #1	; 0x1
300021b4:	e1a00003 	mov	r0, r3
300021b8:	e51b100c 	ldr	r1, [fp, #-12]
300021bc:	e51b2010 	ldr	r2, [fp, #-16]
300021c0:	ebffff55 	bl	30001f1c <simple_strtoul>
300021c4:	e1a03000 	mov	r3, r0
300021c8:	e2633000 	rsb	r3, r3, #0	; 0x0
300021cc:	e50b3014 	str	r3, [fp, #-20]
300021d0:	ea000005 	b	300021ec <simple_strtol+0x68>
300021d4:	e51b0008 	ldr	r0, [fp, #-8]
300021d8:	e51b100c 	ldr	r1, [fp, #-12]
300021dc:	e51b2010 	ldr	r2, [fp, #-16]
300021e0:	ebffff4d 	bl	30001f1c <simple_strtoul>
300021e4:	e1a03000 	mov	r3, r0
300021e8:	e50b3014 	str	r3, [fp, #-20]
300021ec:	e51b3014 	ldr	r3, [fp, #-20]
300021f0:	e1a00003 	mov	r0, r3
300021f4:	e24bd004 	sub	sp, fp, #4	; 0x4
300021f8:	e8bd4800 	pop	{fp, lr}
300021fc:	e12fff1e 	bx	lr

30002200 <simple_strtoull>:
30002200:	e92d4870 	push	{r4, r5, r6, fp, lr}
30002204:	e28db010 	add	fp, sp, #16	; 0x10
30002208:	e24dd03c 	sub	sp, sp, #60	; 0x3c
3000220c:	e59f32c0 	ldr	r3, [pc, #704]	; 300024d4 <simple_strtoull+0x2d4>
30002210:	e50b3048 	str	r3, [fp, #-72]
30002214:	e51b5048 	ldr	r5, [fp, #-72]
30002218:	e08f5005 	add	r5, pc, r5
3000221c:	e50b5048 	str	r5, [fp, #-72]
30002220:	e50b0028 	str	r0, [fp, #-40]
30002224:	e50b102c 	str	r1, [fp, #-44]
30002228:	e50b2030 	str	r2, [fp, #-48]
3000222c:	e3a03000 	mov	r3, #0	; 0x0
30002230:	e3a04000 	mov	r4, #0	; 0x0
30002234:	e50b3024 	str	r3, [fp, #-36]
30002238:	e50b4020 	str	r4, [fp, #-32]
3000223c:	e51b3030 	ldr	r3, [fp, #-48]
30002240:	e3530000 	cmp	r3, #0	; 0x0
30002244:	1a000022 	bne	300022d4 <simple_strtoull+0xd4>
30002248:	e3a0300a 	mov	r3, #10	; 0xa
3000224c:	e50b3030 	str	r3, [fp, #-48]
30002250:	e51b3028 	ldr	r3, [fp, #-40]
30002254:	e5d33000 	ldrb	r3, [r3]
30002258:	e3530030 	cmp	r3, #48	; 0x30
3000225c:	1a000045 	bne	30002378 <simple_strtoull+0x178>
30002260:	e3a03008 	mov	r3, #8	; 0x8
30002264:	e50b3030 	str	r3, [fp, #-48]
30002268:	e51b3028 	ldr	r3, [fp, #-40]
3000226c:	e2833001 	add	r3, r3, #1	; 0x1
30002270:	e50b3028 	str	r3, [fp, #-40]
30002274:	e51b3028 	ldr	r3, [fp, #-40]
30002278:	e5d33000 	ldrb	r3, [r3]
3000227c:	e1a00003 	mov	r0, r3
30002280:	ebffffa7 	bl	30002124 <__toupper>
30002284:	e1a03000 	mov	r3, r0
30002288:	e3530058 	cmp	r3, #88	; 0x58
3000228c:	1a000039 	bne	30002378 <simple_strtoull+0x178>
30002290:	e51b3028 	ldr	r3, [fp, #-40]
30002294:	e2833001 	add	r3, r3, #1	; 0x1
30002298:	e5d33000 	ldrb	r3, [r3]
3000229c:	e1a02003 	mov	r2, r3
300022a0:	e59f3230 	ldr	r3, [pc, #560]	; 300024d8 <simple_strtoull+0x2d8>
300022a4:	e51b6048 	ldr	r6, [fp, #-72]
300022a8:	e7963003 	ldr	r3, [r6, r3]
300022ac:	e7d33002 	ldrb	r3, [r3, r2]
300022b0:	e2033044 	and	r3, r3, #68	; 0x44
300022b4:	e3530000 	cmp	r3, #0	; 0x0
300022b8:	0a00002e 	beq	30002378 <simple_strtoull+0x178>
300022bc:	e51b3028 	ldr	r3, [fp, #-40]
300022c0:	e2833001 	add	r3, r3, #1	; 0x1
300022c4:	e50b3028 	str	r3, [fp, #-40]
300022c8:	e3a03010 	mov	r3, #16	; 0x10
300022cc:	e50b3030 	str	r3, [fp, #-48]
300022d0:	ea000028 	b	30002378 <simple_strtoull+0x178>
300022d4:	e51b3030 	ldr	r3, [fp, #-48]
300022d8:	e3530010 	cmp	r3, #16	; 0x10
300022dc:	1a000025 	bne	30002378 <simple_strtoull+0x178>
300022e0:	e51b3028 	ldr	r3, [fp, #-40]
300022e4:	e5d33000 	ldrb	r3, [r3]
300022e8:	e3530030 	cmp	r3, #48	; 0x30
300022ec:	1a000021 	bne	30002378 <simple_strtoull+0x178>
300022f0:	e51b3028 	ldr	r3, [fp, #-40]
300022f4:	e2833001 	add	r3, r3, #1	; 0x1
300022f8:	e5d33000 	ldrb	r3, [r3]
300022fc:	e1a00003 	mov	r0, r3
30002300:	ebffff87 	bl	30002124 <__toupper>
30002304:	e1a03000 	mov	r3, r0
30002308:	e3530058 	cmp	r3, #88	; 0x58
3000230c:	1a000019 	bne	30002378 <simple_strtoull+0x178>
30002310:	e51b3028 	ldr	r3, [fp, #-40]
30002314:	e2833002 	add	r3, r3, #2	; 0x2
30002318:	e50b3028 	str	r3, [fp, #-40]
3000231c:	ea000015 	b	30002378 <simple_strtoull+0x178>
30002320:	e51b3030 	ldr	r3, [fp, #-48]
30002324:	e3a04000 	mov	r4, #0	; 0x0
30002328:	e51b2024 	ldr	r2, [fp, #-36]
3000232c:	e0010294 	mul	r1, r4, r2
30002330:	e51b2020 	ldr	r2, [fp, #-32]
30002334:	e0020293 	mul	r2, r3, r2
30002338:	e0811002 	add	r1, r1, r2
3000233c:	e51b2024 	ldr	r2, [fp, #-36]
30002340:	e0865392 	umull	r5, r6, r2, r3
30002344:	e1a03005 	mov	r3, r5
30002348:	e1a04006 	mov	r4, r6
3000234c:	e0811004 	add	r1, r1, r4
30002350:	e1a04001 	mov	r4, r1
30002354:	e24b201c 	sub	r2, fp, #28	; 0x1c
30002358:	e8920006 	ldm	r2, {r1, r2}
3000235c:	e0933001 	adds	r3, r3, r1
30002360:	e0a44002 	adc	r4, r4, r2
30002364:	e50b3024 	str	r3, [fp, #-36]
30002368:	e50b4020 	str	r4, [fp, #-32]
3000236c:	e51b3028 	ldr	r3, [fp, #-40]
30002370:	e2833001 	add	r3, r3, #1	; 0x1
30002374:	e50b3028 	str	r3, [fp, #-40]
30002378:	e51b3028 	ldr	r3, [fp, #-40]
3000237c:	e5d33000 	ldrb	r3, [r3]
30002380:	e1a02003 	mov	r2, r3
30002384:	e59f314c 	ldr	r3, [pc, #332]	; 300024d8 <simple_strtoull+0x2d8>
30002388:	e51b6048 	ldr	r6, [fp, #-72]
3000238c:	e7963003 	ldr	r3, [r6, r3]
30002390:	e7d33002 	ldrb	r3, [r3, r2]
30002394:	e2033044 	and	r3, r3, #68	; 0x44
30002398:	e3530000 	cmp	r3, #0	; 0x0
3000239c:	0a00003f 	beq	300024a0 <simple_strtoull+0x2a0>
300023a0:	e51b3028 	ldr	r3, [fp, #-40]
300023a4:	e5d33000 	ldrb	r3, [r3]
300023a8:	e1a02003 	mov	r2, r3
300023ac:	e59f3124 	ldr	r3, [pc, #292]	; 300024d8 <simple_strtoull+0x2d8>
300023b0:	e51b1048 	ldr	r1, [fp, #-72]
300023b4:	e7913003 	ldr	r3, [r1, r3]
300023b8:	e7d33002 	ldrb	r3, [r3, r2]
300023bc:	e2033004 	and	r3, r3, #4	; 0x4
300023c0:	e3530000 	cmp	r3, #0	; 0x0
300023c4:	0a000004 	beq	300023dc <simple_strtoull+0x1dc>
300023c8:	e51b3028 	ldr	r3, [fp, #-40]
300023cc:	e5d33000 	ldrb	r3, [r3]
300023d0:	e2433030 	sub	r3, r3, #48	; 0x30
300023d4:	e50b3044 	str	r3, [fp, #-68]
300023d8:	ea000017 	b	3000243c <simple_strtoull+0x23c>
300023dc:	e51b3028 	ldr	r3, [fp, #-40]
300023e0:	e5d33000 	ldrb	r3, [r3]
300023e4:	e1a02003 	mov	r2, r3
300023e8:	e59f30e8 	ldr	r3, [pc, #232]	; 300024d8 <simple_strtoull+0x2d8>
300023ec:	e51b5048 	ldr	r5, [fp, #-72]
300023f0:	e7953003 	ldr	r3, [r5, r3]
300023f4:	e7d33002 	ldrb	r3, [r3, r2]
300023f8:	e2033002 	and	r3, r3, #2	; 0x2
300023fc:	e3530000 	cmp	r3, #0	; 0x0
30002400:	0a000007 	beq	30002424 <simple_strtoull+0x224>
30002404:	e51b3028 	ldr	r3, [fp, #-40]
30002408:	e5d33000 	ldrb	r3, [r3]
3000240c:	e1a00003 	mov	r0, r3
30002410:	ebffff43 	bl	30002124 <__toupper>
30002414:	e1a03000 	mov	r3, r0
30002418:	e2433037 	sub	r3, r3, #55	; 0x37
3000241c:	e50b3040 	str	r3, [fp, #-64]
30002420:	ea000003 	b	30002434 <simple_strtoull+0x234>
30002424:	e51b3028 	ldr	r3, [fp, #-40]
30002428:	e5d33000 	ldrb	r3, [r3]
3000242c:	e2433037 	sub	r3, r3, #55	; 0x37
30002430:	e50b3040 	str	r3, [fp, #-64]
30002434:	e51b6040 	ldr	r6, [fp, #-64]
30002438:	e50b6044 	str	r6, [fp, #-68]
3000243c:	e51b1044 	ldr	r1, [fp, #-68]
30002440:	e1a03001 	mov	r3, r1
30002444:	e1a04fc3 	asr	r4, r3, #31
30002448:	e50b301c 	str	r3, [fp, #-28]
3000244c:	e50b4018 	str	r4, [fp, #-24]
30002450:	e51b3030 	ldr	r3, [fp, #-48]
30002454:	e1a05003 	mov	r5, r3
30002458:	e3a06000 	mov	r6, #0	; 0x0
3000245c:	e50b503c 	str	r5, [fp, #-60]
30002460:	e50b6038 	str	r6, [fp, #-56]
30002464:	e51b3018 	ldr	r3, [fp, #-24]
30002468:	e51b6038 	ldr	r6, [fp, #-56]
3000246c:	e1530006 	cmp	r3, r6
30002470:	3affffaa 	bcc	30002320 <simple_strtoull+0x120>
30002474:	e51b3018 	ldr	r3, [fp, #-24]
30002478:	e51b1038 	ldr	r1, [fp, #-56]
3000247c:	e1530001 	cmp	r3, r1
30002480:	1a000006 	bne	300024a0 <simple_strtoull+0x2a0>
30002484:	e51b301c 	ldr	r3, [fp, #-28]
30002488:	e51b203c 	ldr	r2, [fp, #-60]
3000248c:	e1530002 	cmp	r3, r2
30002490:	3affffa2 	bcc	30002320 <simple_strtoull+0x120>
30002494:	e51b301c 	ldr	r3, [fp, #-28]
30002498:	e51b503c 	ldr	r5, [fp, #-60]
3000249c:	e1530005 	cmp	r3, r5
300024a0:	e51b302c 	ldr	r3, [fp, #-44]
300024a4:	e3530000 	cmp	r3, #0	; 0x0
300024a8:	0a000002 	beq	300024b8 <simple_strtoull+0x2b8>
300024ac:	e51b2028 	ldr	r2, [fp, #-40]
300024b0:	e51b302c 	ldr	r3, [fp, #-44]
300024b4:	e5832000 	str	r2, [r3]
300024b8:	e24b4024 	sub	r4, fp, #36	; 0x24
300024bc:	e8940018 	ldm	r4, {r3, r4}
300024c0:	e1a00003 	mov	r0, r3
300024c4:	e1a01004 	mov	r1, r4
300024c8:	e24bd010 	sub	sp, fp, #16	; 0x10
300024cc:	e8bd4870 	pop	{r4, r5, r6, fp, lr}
300024d0:	e12fff1e 	bx	lr
300024d4:	cfffdde0 	.word	0xcfffdde0
300024d8:	0000058c 	.word	0x0000058c

300024dc <simple_strtoll>:
300024dc:	e92d4810 	push	{r4, fp, lr}
300024e0:	e28db008 	add	fp, sp, #8	; 0x8
300024e4:	e24dd01c 	sub	sp, sp, #28	; 0x1c
300024e8:	e50b0010 	str	r0, [fp, #-16]
300024ec:	e50b1014 	str	r1, [fp, #-20]
300024f0:	e50b2018 	str	r2, [fp, #-24]
300024f4:	e51b3010 	ldr	r3, [fp, #-16]
300024f8:	e5d33000 	ldrb	r3, [r3]
300024fc:	e353002d 	cmp	r3, #45	; 0x2d
30002500:	1a00000c 	bne	30002538 <simple_strtoll+0x5c>
30002504:	e51b3010 	ldr	r3, [fp, #-16]
30002508:	e2833001 	add	r3, r3, #1	; 0x1
3000250c:	e1a00003 	mov	r0, r3
30002510:	e51b1014 	ldr	r1, [fp, #-20]
30002514:	e51b2018 	ldr	r2, [fp, #-24]
30002518:	ebffff38 	bl	30002200 <simple_strtoull>
3000251c:	e1a03000 	mov	r3, r0
30002520:	e1a04001 	mov	r4, r1
30002524:	e2733000 	rsbs	r3, r3, #0	; 0x0
30002528:	e2e44000 	rsc	r4, r4, #0	; 0x0
3000252c:	e50b3024 	str	r3, [fp, #-36]
30002530:	e50b4020 	str	r4, [fp, #-32]
30002534:	ea000007 	b	30002558 <simple_strtoll+0x7c>
30002538:	e51b0010 	ldr	r0, [fp, #-16]
3000253c:	e51b1014 	ldr	r1, [fp, #-20]
30002540:	e51b2018 	ldr	r2, [fp, #-24]
30002544:	ebffff2d 	bl	30002200 <simple_strtoull>
30002548:	e1a03000 	mov	r3, r0
3000254c:	e1a04001 	mov	r4, r1
30002550:	e50b3024 	str	r3, [fp, #-36]
30002554:	e50b4020 	str	r4, [fp, #-32]
30002558:	e24b4024 	sub	r4, fp, #36	; 0x24
3000255c:	e8940018 	ldm	r4, {r3, r4}
30002560:	e1a00003 	mov	r0, r3
30002564:	e1a01004 	mov	r1, r4
30002568:	e24bd008 	sub	sp, fp, #8	; 0x8
3000256c:	e8bd4810 	pop	{r4, fp, lr}
30002570:	e12fff1e 	bx	lr

30002574 <skip_atoi>:
30002574:	e52db004 	push	{fp}		; (str fp, [sp, #-4]!)
30002578:	e28db000 	add	fp, sp, #0	; 0x0
3000257c:	e24dd014 	sub	sp, sp, #20	; 0x14
30002580:	e59f1098 	ldr	r1, [pc, #152]	; 30002620 <skip_atoi+0xac>
30002584:	e50b1014 	str	r1, [fp, #-20]
30002588:	e51b3014 	ldr	r3, [fp, #-20]
3000258c:	e08f3003 	add	r3, pc, r3
30002590:	e50b3014 	str	r3, [fp, #-20]
30002594:	e50b0010 	str	r0, [fp, #-16]
30002598:	e3a03000 	mov	r3, #0	; 0x0
3000259c:	e50b3008 	str	r3, [fp, #-8]
300025a0:	ea00000e 	b	300025e0 <skip_atoi+0x6c>
300025a4:	e51b2008 	ldr	r2, [fp, #-8]
300025a8:	e1a03002 	mov	r3, r2
300025ac:	e1a03103 	lsl	r3, r3, #2
300025b0:	e0833002 	add	r3, r3, r2
300025b4:	e1a03083 	lsl	r3, r3, #1
300025b8:	e1a02003 	mov	r2, r3
300025bc:	e51b3010 	ldr	r3, [fp, #-16]
300025c0:	e5931000 	ldr	r1, [r3]
300025c4:	e5d13000 	ldrb	r3, [r1]
300025c8:	e0823003 	add	r3, r2, r3
300025cc:	e2433030 	sub	r3, r3, #48	; 0x30
300025d0:	e50b3008 	str	r3, [fp, #-8]
300025d4:	e2812001 	add	r2, r1, #1	; 0x1
300025d8:	e51b3010 	ldr	r3, [fp, #-16]
300025dc:	e5832000 	str	r2, [r3]
300025e0:	e51b3010 	ldr	r3, [fp, #-16]
300025e4:	e5933000 	ldr	r3, [r3]
300025e8:	e5d33000 	ldrb	r3, [r3]
300025ec:	e1a02003 	mov	r2, r3
300025f0:	e59f302c 	ldr	r3, [pc, #44]	; 30002624 <skip_atoi+0xb0>
300025f4:	e51b1014 	ldr	r1, [fp, #-20]
300025f8:	e7913003 	ldr	r3, [r1, r3]
300025fc:	e7d33002 	ldrb	r3, [r3, r2]
30002600:	e2033004 	and	r3, r3, #4	; 0x4
30002604:	e3530000 	cmp	r3, #0	; 0x0
30002608:	1affffe5 	bne	300025a4 <skip_atoi+0x30>
3000260c:	e51b3008 	ldr	r3, [fp, #-8]
30002610:	e1a00003 	mov	r0, r3
30002614:	e28bd000 	add	sp, fp, #0	; 0x0
30002618:	e8bd0800 	pop	{fp}
3000261c:	e12fff1e 	bx	lr
30002620:	cfffda6c 	.word	0xcfffda6c
30002624:	0000058c 	.word	0x0000058c

30002628 <number>:
30002628:	e92d4830 	push	{r4, r5, fp, lr}
3000262c:	e28db00c 	add	fp, sp, #12	; 0xc
30002630:	e24dd078 	sub	sp, sp, #120	; 0x78
30002634:	e59f4588 	ldr	r4, [pc, #1416]	; 30002bc4 <number+0x59c>
30002638:	e50b4084 	str	r4, [fp, #-132]
3000263c:	e51bc084 	ldr	ip, [fp, #-132]
30002640:	e08fc00c 	add	ip, pc, ip
30002644:	e50bc084 	str	ip, [fp, #-132]
30002648:	e50b0060 	str	r0, [fp, #-96]
3000264c:	e50b1064 	str	r1, [fp, #-100]
30002650:	e50b206c 	str	r2, [fp, #-108]
30002654:	e50b3068 	str	r3, [fp, #-104]
30002658:	e59b3010 	ldr	r3, [fp, #16]
3000265c:	e2033040 	and	r3, r3, #64	; 0x40
30002660:	e3530000 	cmp	r3, #0	; 0x0
30002664:	0a000004 	beq	3000267c <number+0x54>
30002668:	e59f3558 	ldr	r3, [pc, #1368]	; 30002bc8 <number+0x5a0>
3000266c:	e51b0084 	ldr	r0, [fp, #-132]
30002670:	e0803003 	add	r3, r0, r3
30002674:	e50b3080 	str	r3, [fp, #-128]
30002678:	ea000003 	b	3000268c <number+0x64>
3000267c:	e59f3548 	ldr	r3, [pc, #1352]	; 30002bcc <number+0x5a4>
30002680:	e51b1084 	ldr	r1, [fp, #-132]
30002684:	e0813003 	add	r3, r1, r3
30002688:	e50b3080 	str	r3, [fp, #-128]
3000268c:	e51b2080 	ldr	r2, [fp, #-128]
30002690:	e50b2014 	str	r2, [fp, #-20]
30002694:	e59b3010 	ldr	r3, [fp, #16]
30002698:	e2033010 	and	r3, r3, #16	; 0x10
3000269c:	e3530000 	cmp	r3, #0	; 0x0
300026a0:	0a000002 	beq	300026b0 <number+0x88>
300026a4:	e59b3010 	ldr	r3, [fp, #16]
300026a8:	e3c33001 	bic	r3, r3, #1	; 0x1
300026ac:	e58b3010 	str	r3, [fp, #16]
300026b0:	e59b3004 	ldr	r3, [fp, #4]
300026b4:	e3530001 	cmp	r3, #1	; 0x1
300026b8:	da000002 	ble	300026c8 <number+0xa0>
300026bc:	e59b3004 	ldr	r3, [fp, #4]
300026c0:	e3530024 	cmp	r3, #36	; 0x24
300026c4:	da000002 	ble	300026d4 <number+0xac>
300026c8:	e3a03000 	mov	r3, #0	; 0x0
300026cc:	e50b307c 	str	r3, [fp, #-124]
300026d0:	ea000136 	b	30002bb0 <number+0x588>
300026d4:	e59b3010 	ldr	r3, [fp, #16]
300026d8:	e2033001 	and	r3, r3, #1	; 0x1
300026dc:	e20330ff 	and	r3, r3, #255	; 0xff
300026e0:	e3530000 	cmp	r3, #0	; 0x0
300026e4:	0a000002 	beq	300026f4 <number+0xcc>
300026e8:	e3a04030 	mov	r4, #48	; 0x30
300026ec:	e50b4078 	str	r4, [fp, #-120]
300026f0:	ea000001 	b	300026fc <number+0xd4>
300026f4:	e3a0c020 	mov	ip, #32	; 0x20
300026f8:	e50bc078 	str	ip, [fp, #-120]
300026fc:	e51b0078 	ldr	r0, [fp, #-120]
30002700:	e1a03000 	mov	r3, r0
30002704:	e54b3016 	strb	r3, [fp, #-22]
30002708:	e3a03000 	mov	r3, #0	; 0x0
3000270c:	e54b3015 	strb	r3, [fp, #-21]
30002710:	e59b3010 	ldr	r3, [fp, #16]
30002714:	e2033002 	and	r3, r3, #2	; 0x2
30002718:	e3530000 	cmp	r3, #0	; 0x0
3000271c:	0a00002b 	beq	300027d0 <number+0x1a8>
30002720:	e24b206c 	sub	r2, fp, #108	; 0x6c
30002724:	e8920006 	ldm	r2, {r1, r2}
30002728:	e50b1074 	str	r1, [fp, #-116]
3000272c:	e50b2070 	str	r2, [fp, #-112]
30002730:	e51b2070 	ldr	r2, [fp, #-112]
30002734:	e3520000 	cmp	r2, #0	; 0x0
30002738:	ba000005 	blt	30002754 <number+0x12c>
3000273c:	e51b3070 	ldr	r3, [fp, #-112]
30002740:	e3530000 	cmp	r3, #0	; 0x0
30002744:	1a00000e 	bne	30002784 <number+0x15c>
30002748:	e51b4074 	ldr	r4, [fp, #-116]
3000274c:	e3540000 	cmp	r4, #0	; 0x0
30002750:	ea00000b 	b	30002784 <number+0x15c>
30002754:	e3a0302d 	mov	r3, #45	; 0x2d
30002758:	e54b3015 	strb	r3, [fp, #-21]
3000275c:	e24b406c 	sub	r4, fp, #108	; 0x6c
30002760:	e8940018 	ldm	r4, {r3, r4}
30002764:	e2733000 	rsbs	r3, r3, #0	; 0x0
30002768:	e2e44000 	rsc	r4, r4, #0	; 0x0
3000276c:	e50b306c 	str	r3, [fp, #-108]
30002770:	e50b4068 	str	r4, [fp, #-104]
30002774:	e59b3008 	ldr	r3, [fp, #8]
30002778:	e2433001 	sub	r3, r3, #1	; 0x1
3000277c:	e58b3008 	str	r3, [fp, #8]
30002780:	ea000012 	b	300027d0 <number+0x1a8>
30002784:	e59b3010 	ldr	r3, [fp, #16]
30002788:	e2033004 	and	r3, r3, #4	; 0x4
3000278c:	e3530000 	cmp	r3, #0	; 0x0
30002790:	0a000005 	beq	300027ac <number+0x184>
30002794:	e3a0302b 	mov	r3, #43	; 0x2b
30002798:	e54b3015 	strb	r3, [fp, #-21]
3000279c:	e59b3008 	ldr	r3, [fp, #8]
300027a0:	e2433001 	sub	r3, r3, #1	; 0x1
300027a4:	e58b3008 	str	r3, [fp, #8]
300027a8:	ea000008 	b	300027d0 <number+0x1a8>
300027ac:	e59b3010 	ldr	r3, [fp, #16]
300027b0:	e2033008 	and	r3, r3, #8	; 0x8
300027b4:	e3530000 	cmp	r3, #0	; 0x0
300027b8:	0a000004 	beq	300027d0 <number+0x1a8>
300027bc:	e3a03020 	mov	r3, #32	; 0x20
300027c0:	e54b3015 	strb	r3, [fp, #-21]
300027c4:	e59b3008 	ldr	r3, [fp, #8]
300027c8:	e2433001 	sub	r3, r3, #1	; 0x1
300027cc:	e58b3008 	str	r3, [fp, #8]
300027d0:	e59b3010 	ldr	r3, [fp, #16]
300027d4:	e2033020 	and	r3, r3, #32	; 0x20
300027d8:	e3530000 	cmp	r3, #0	; 0x0
300027dc:	0a00000c 	beq	30002814 <number+0x1ec>
300027e0:	e59b3004 	ldr	r3, [fp, #4]
300027e4:	e3530010 	cmp	r3, #16	; 0x10
300027e8:	1a000003 	bne	300027fc <number+0x1d4>
300027ec:	e59b3008 	ldr	r3, [fp, #8]
300027f0:	e2433002 	sub	r3, r3, #2	; 0x2
300027f4:	e58b3008 	str	r3, [fp, #8]
300027f8:	ea000005 	b	30002814 <number+0x1ec>
300027fc:	e59b3004 	ldr	r3, [fp, #4]
30002800:	e3530008 	cmp	r3, #8	; 0x8
30002804:	1a000002 	bne	30002814 <number+0x1ec>
30002808:	e59b3008 	ldr	r3, [fp, #8]
3000280c:	e2433001 	sub	r3, r3, #1	; 0x1
30002810:	e58b3008 	str	r3, [fp, #8]
30002814:	e3a03000 	mov	r3, #0	; 0x0
30002818:	e50b3010 	str	r3, [fp, #-16]
3000281c:	e51b306c 	ldr	r3, [fp, #-108]
30002820:	e51b2068 	ldr	r2, [fp, #-104]
30002824:	e1833002 	orr	r3, r3, r2
30002828:	e3530000 	cmp	r3, #0	; 0x0
3000282c:	1a00001f 	bne	300028b0 <number+0x288>
30002830:	e51b3010 	ldr	r3, [fp, #-16]
30002834:	e3e0204b 	mvn	r2, #75	; 0x4b
30002838:	e24bc00c 	sub	ip, fp, #12	; 0xc
3000283c:	e08c3003 	add	r3, ip, r3
30002840:	e0832002 	add	r2, r3, r2
30002844:	e3a03030 	mov	r3, #48	; 0x30
30002848:	e5c23000 	strb	r3, [r2]
3000284c:	e51b3010 	ldr	r3, [fp, #-16]
30002850:	e2833001 	add	r3, r3, #1	; 0x1
30002854:	e50b3010 	str	r3, [fp, #-16]
30002858:	ea000019 	b	300028c4 <number+0x29c>
3000285c:	e51b5010 	ldr	r5, [fp, #-16]
30002860:	e59b3004 	ldr	r3, [fp, #4]
30002864:	e1a04003 	mov	r4, r3
30002868:	e24b106c 	sub	r1, fp, #108	; 0x6c
3000286c:	e8910003 	ldm	r1, {r0, r1}
30002870:	eb00077a 	bl	30004660 <__do_div64>
30002874:	e50b206c 	str	r2, [fp, #-108]
30002878:	e50b3068 	str	r3, [fp, #-104]
3000287c:	e1a02001 	mov	r2, r1
30002880:	e51b3014 	ldr	r3, [fp, #-20]
30002884:	e0833002 	add	r3, r3, r2
30002888:	e5d31000 	ldrb	r1, [r3]
3000288c:	e3e0204b 	mvn	r2, #75	; 0x4b
30002890:	e24b000c 	sub	r0, fp, #12	; 0xc
30002894:	e0803005 	add	r3, r0, r5
30002898:	e0832002 	add	r2, r3, r2
3000289c:	e1a03001 	mov	r3, r1
300028a0:	e5c23000 	strb	r3, [r2]
300028a4:	e51b3010 	ldr	r3, [fp, #-16]
300028a8:	e2833001 	add	r3, r3, #1	; 0x1
300028ac:	e50b3010 	str	r3, [fp, #-16]
300028b0:	e51b306c 	ldr	r3, [fp, #-108]
300028b4:	e51b2068 	ldr	r2, [fp, #-104]
300028b8:	e1833002 	orr	r3, r3, r2
300028bc:	e3530000 	cmp	r3, #0	; 0x0
300028c0:	1affffe5 	bne	3000285c <number+0x234>
300028c4:	e51b2010 	ldr	r2, [fp, #-16]
300028c8:	e59b300c 	ldr	r3, [fp, #12]
300028cc:	e1520003 	cmp	r2, r3
300028d0:	da000001 	ble	300028dc <number+0x2b4>
300028d4:	e51b3010 	ldr	r3, [fp, #-16]
300028d8:	e58b300c 	str	r3, [fp, #12]
300028dc:	e59b2008 	ldr	r2, [fp, #8]
300028e0:	e59b300c 	ldr	r3, [fp, #12]
300028e4:	e0633002 	rsb	r3, r3, r2
300028e8:	e58b3008 	str	r3, [fp, #8]
300028ec:	e59b3010 	ldr	r3, [fp, #16]
300028f0:	e2033011 	and	r3, r3, #17	; 0x11
300028f4:	e3530000 	cmp	r3, #0	; 0x0
300028f8:	1a000014 	bne	30002950 <number+0x328>
300028fc:	ea000009 	b	30002928 <number+0x300>
30002900:	e51b2060 	ldr	r2, [fp, #-96]
30002904:	e51b3064 	ldr	r3, [fp, #-100]
30002908:	e1520003 	cmp	r2, r3
3000290c:	8a000002 	bhi	3000291c <number+0x2f4>
30002910:	e51b3060 	ldr	r3, [fp, #-96]
30002914:	e3a02020 	mov	r2, #32	; 0x20
30002918:	e5c32000 	strb	r2, [r3]
3000291c:	e51b3060 	ldr	r3, [fp, #-96]
30002920:	e2833001 	add	r3, r3, #1	; 0x1
30002924:	e50b3060 	str	r3, [fp, #-96]
30002928:	e59b3008 	ldr	r3, [fp, #8]
3000292c:	e3530000 	cmp	r3, #0	; 0x0
30002930:	d3a03000 	movle	r3, #0	; 0x0
30002934:	c3a03001 	movgt	r3, #1	; 0x1
30002938:	e20320ff 	and	r2, r3, #255	; 0xff
3000293c:	e59b3008 	ldr	r3, [fp, #8]
30002940:	e2433001 	sub	r3, r3, #1	; 0x1
30002944:	e58b3008 	str	r3, [fp, #8]
30002948:	e3520000 	cmp	r2, #0	; 0x0
3000294c:	1affffeb 	bne	30002900 <number+0x2d8>
30002950:	e55b3015 	ldrb	r3, [fp, #-21]
30002954:	e3530000 	cmp	r3, #0	; 0x0
30002958:	0a000009 	beq	30002984 <number+0x35c>
3000295c:	e51b2060 	ldr	r2, [fp, #-96]
30002960:	e51b3064 	ldr	r3, [fp, #-100]
30002964:	e1520003 	cmp	r2, r3
30002968:	8a000002 	bhi	30002978 <number+0x350>
3000296c:	e51b2060 	ldr	r2, [fp, #-96]
30002970:	e55b3015 	ldrb	r3, [fp, #-21]
30002974:	e5c23000 	strb	r3, [r2]
30002978:	e51b3060 	ldr	r3, [fp, #-96]
3000297c:	e2833001 	add	r3, r3, #1	; 0x1
30002980:	e50b3060 	str	r3, [fp, #-96]
30002984:	e59b3010 	ldr	r3, [fp, #16]
30002988:	e2033020 	and	r3, r3, #32	; 0x20
3000298c:	e3530000 	cmp	r3, #0	; 0x0
30002990:	0a000026 	beq	30002a30 <number+0x408>
30002994:	e59b3004 	ldr	r3, [fp, #4]
30002998:	e3530008 	cmp	r3, #8	; 0x8
3000299c:	1a00000a 	bne	300029cc <number+0x3a4>
300029a0:	e51b2060 	ldr	r2, [fp, #-96]
300029a4:	e51b3064 	ldr	r3, [fp, #-100]
300029a8:	e1520003 	cmp	r2, r3
300029ac:	8a000002 	bhi	300029bc <number+0x394>
300029b0:	e51b3060 	ldr	r3, [fp, #-96]
300029b4:	e3a02030 	mov	r2, #48	; 0x30
300029b8:	e5c32000 	strb	r2, [r3]
300029bc:	e51b3060 	ldr	r3, [fp, #-96]
300029c0:	e2833001 	add	r3, r3, #1	; 0x1
300029c4:	e50b3060 	str	r3, [fp, #-96]
300029c8:	ea000018 	b	30002a30 <number+0x408>
300029cc:	e59b3004 	ldr	r3, [fp, #4]
300029d0:	e3530010 	cmp	r3, #16	; 0x10
300029d4:	1a000015 	bne	30002a30 <number+0x408>
300029d8:	e51b2060 	ldr	r2, [fp, #-96]
300029dc:	e51b3064 	ldr	r3, [fp, #-100]
300029e0:	e1520003 	cmp	r2, r3
300029e4:	8a000002 	bhi	300029f4 <number+0x3cc>
300029e8:	e51b3060 	ldr	r3, [fp, #-96]
300029ec:	e3a02030 	mov	r2, #48	; 0x30
300029f0:	e5c32000 	strb	r2, [r3]
300029f4:	e51b3060 	ldr	r3, [fp, #-96]
300029f8:	e2833001 	add	r3, r3, #1	; 0x1
300029fc:	e50b3060 	str	r3, [fp, #-96]
30002a00:	e51b2060 	ldr	r2, [fp, #-96]
30002a04:	e51b3064 	ldr	r3, [fp, #-100]
30002a08:	e1520003 	cmp	r2, r3
30002a0c:	8a000004 	bhi	30002a24 <number+0x3fc>
30002a10:	e51b3014 	ldr	r3, [fp, #-20]
30002a14:	e2833021 	add	r3, r3, #33	; 0x21
30002a18:	e5d33000 	ldrb	r3, [r3]
30002a1c:	e51b2060 	ldr	r2, [fp, #-96]
30002a20:	e5c23000 	strb	r3, [r2]
30002a24:	e51b3060 	ldr	r3, [fp, #-96]
30002a28:	e2833001 	add	r3, r3, #1	; 0x1
30002a2c:	e50b3060 	str	r3, [fp, #-96]
30002a30:	e59b3010 	ldr	r3, [fp, #16]
30002a34:	e2033010 	and	r3, r3, #16	; 0x10
30002a38:	e3530000 	cmp	r3, #0	; 0x0
30002a3c:	1a00001f 	bne	30002ac0 <number+0x498>
30002a40:	ea000009 	b	30002a6c <number+0x444>
30002a44:	e51b2060 	ldr	r2, [fp, #-96]
30002a48:	e51b3064 	ldr	r3, [fp, #-100]
30002a4c:	e1520003 	cmp	r2, r3
30002a50:	8a000002 	bhi	30002a60 <number+0x438>
30002a54:	e51b2060 	ldr	r2, [fp, #-96]
30002a58:	e55b3016 	ldrb	r3, [fp, #-22]
30002a5c:	e5c23000 	strb	r3, [r2]
30002a60:	e51b3060 	ldr	r3, [fp, #-96]
30002a64:	e2833001 	add	r3, r3, #1	; 0x1
30002a68:	e50b3060 	str	r3, [fp, #-96]
30002a6c:	e59b3008 	ldr	r3, [fp, #8]
30002a70:	e3530000 	cmp	r3, #0	; 0x0
30002a74:	d3a03000 	movle	r3, #0	; 0x0
30002a78:	c3a03001 	movgt	r3, #1	; 0x1
30002a7c:	e20320ff 	and	r2, r3, #255	; 0xff
30002a80:	e59b3008 	ldr	r3, [fp, #8]
30002a84:	e2433001 	sub	r3, r3, #1	; 0x1
30002a88:	e58b3008 	str	r3, [fp, #8]
30002a8c:	e3520000 	cmp	r2, #0	; 0x0
30002a90:	1affffeb 	bne	30002a44 <number+0x41c>
30002a94:	ea000009 	b	30002ac0 <number+0x498>
30002a98:	e51b2060 	ldr	r2, [fp, #-96]
30002a9c:	e51b3064 	ldr	r3, [fp, #-100]
30002aa0:	e1520003 	cmp	r2, r3
30002aa4:	8a000002 	bhi	30002ab4 <number+0x48c>
30002aa8:	e51b3060 	ldr	r3, [fp, #-96]
30002aac:	e3a02030 	mov	r2, #48	; 0x30
30002ab0:	e5c32000 	strb	r2, [r3]
30002ab4:	e51b3060 	ldr	r3, [fp, #-96]
30002ab8:	e2833001 	add	r3, r3, #1	; 0x1
30002abc:	e50b3060 	str	r3, [fp, #-96]
30002ac0:	e59b200c 	ldr	r2, [fp, #12]
30002ac4:	e51b3010 	ldr	r3, [fp, #-16]
30002ac8:	e1520003 	cmp	r2, r3
30002acc:	d3a03000 	movle	r3, #0	; 0x0
30002ad0:	c3a03001 	movgt	r3, #1	; 0x1
30002ad4:	e20320ff 	and	r2, r3, #255	; 0xff
30002ad8:	e59b300c 	ldr	r3, [fp, #12]
30002adc:	e2433001 	sub	r3, r3, #1	; 0x1
30002ae0:	e58b300c 	str	r3, [fp, #12]
30002ae4:	e3520000 	cmp	r2, #0	; 0x0
30002ae8:	1affffea 	bne	30002a98 <number+0x470>
30002aec:	ea00000e 	b	30002b2c <number+0x504>
30002af0:	e51b2060 	ldr	r2, [fp, #-96]
30002af4:	e51b3064 	ldr	r3, [fp, #-100]
30002af8:	e1520003 	cmp	r2, r3
30002afc:	8a000007 	bhi	30002b20 <number+0x4f8>
30002b00:	e51b3010 	ldr	r3, [fp, #-16]
30002b04:	e3e0204b 	mvn	r2, #75	; 0x4b
30002b08:	e24b100c 	sub	r1, fp, #12	; 0xc
30002b0c:	e0813003 	add	r3, r1, r3
30002b10:	e0833002 	add	r3, r3, r2
30002b14:	e5d33000 	ldrb	r3, [r3]
30002b18:	e51b2060 	ldr	r2, [fp, #-96]
30002b1c:	e5c23000 	strb	r3, [r2]
30002b20:	e51b3060 	ldr	r3, [fp, #-96]
30002b24:	e2833001 	add	r3, r3, #1	; 0x1
30002b28:	e50b3060 	str	r3, [fp, #-96]
30002b2c:	e51b3010 	ldr	r3, [fp, #-16]
30002b30:	e3530000 	cmp	r3, #0	; 0x0
30002b34:	d3a03000 	movle	r3, #0	; 0x0
30002b38:	c3a03001 	movgt	r3, #1	; 0x1
30002b3c:	e20320ff 	and	r2, r3, #255	; 0xff
30002b40:	e51b3010 	ldr	r3, [fp, #-16]
30002b44:	e2433001 	sub	r3, r3, #1	; 0x1
30002b48:	e50b3010 	str	r3, [fp, #-16]
30002b4c:	e3520000 	cmp	r2, #0	; 0x0
30002b50:	1affffe6 	bne	30002af0 <number+0x4c8>
30002b54:	ea000009 	b	30002b80 <number+0x558>
30002b58:	e51b2060 	ldr	r2, [fp, #-96]
30002b5c:	e51b3064 	ldr	r3, [fp, #-100]
30002b60:	e1520003 	cmp	r2, r3
30002b64:	8a000002 	bhi	30002b74 <number+0x54c>
30002b68:	e51b3060 	ldr	r3, [fp, #-96]
30002b6c:	e3a02020 	mov	r2, #32	; 0x20
30002b70:	e5c32000 	strb	r2, [r3]
30002b74:	e51b3060 	ldr	r3, [fp, #-96]
30002b78:	e2833001 	add	r3, r3, #1	; 0x1
30002b7c:	e50b3060 	str	r3, [fp, #-96]
30002b80:	e59b3008 	ldr	r3, [fp, #8]
30002b84:	e3530000 	cmp	r3, #0	; 0x0
30002b88:	d3a03000 	movle	r3, #0	; 0x0
30002b8c:	c3a03001 	movgt	r3, #1	; 0x1
30002b90:	e20320ff 	and	r2, r3, #255	; 0xff
30002b94:	e59b3008 	ldr	r3, [fp, #8]
30002b98:	e2433001 	sub	r3, r3, #1	; 0x1
30002b9c:	e58b3008 	str	r3, [fp, #8]
30002ba0:	e3520000 	cmp	r2, #0	; 0x0
30002ba4:	1affffeb 	bne	30002b58 <number+0x530>
30002ba8:	e51b2060 	ldr	r2, [fp, #-96]
30002bac:	e50b207c 	str	r2, [fp, #-124]
30002bb0:	e51b307c 	ldr	r3, [fp, #-124]
30002bb4:	e1a00003 	mov	r0, r3
30002bb8:	e24bd00c 	sub	sp, fp, #12	; 0xc
30002bbc:	e8bd4830 	pop	{r4, r5, fp, lr}
30002bc0:	e12fff1e 	bx	lr
30002bc4:	cfffd9b8 	.word	0xcfffd9b8
30002bc8:	3000c134 	.word	0x3000c134
30002bcc:	3000c15c 	.word	0x3000c15c

30002bd0 <vsnprintf>:
30002bd0:	e92d4830 	push	{r4, r5, fp, lr}
30002bd4:	e28db00c 	add	fp, sp, #12	; 0xc
30002bd8:	e24dd070 	sub	sp, sp, #112	; 0x70
30002bdc:	e59fcb98 	ldr	ip, [pc, #2968]	; 3000377c <vsnprintf+0xbac>
30002be0:	e50bc06c 	str	ip, [fp, #-108]
30002be4:	e51bc06c 	ldr	ip, [fp, #-108]
30002be8:	e08fc00c 	add	ip, pc, ip
30002bec:	e50bc06c 	str	ip, [fp, #-108]
30002bf0:	e50b0058 	str	r0, [fp, #-88]
30002bf4:	e50b105c 	str	r1, [fp, #-92]
30002bf8:	e50b2060 	str	r2, [fp, #-96]
30002bfc:	e50b3064 	str	r3, [fp, #-100]
30002c00:	e51b305c 	ldr	r3, [fp, #-92]
30002c04:	e1a03fa3 	lsr	r3, r3, #31
30002c08:	e3530000 	cmp	r3, #0	; 0x0
30002c0c:	0a000007 	beq	30002c30 <vsnprintf+0x60>
30002c10:	e59f3b68 	ldr	r3, [pc, #2920]	; 30003780 <vsnprintf+0xbb0>
30002c14:	e51b106c 	ldr	r1, [fp, #-108]
30002c18:	e0812003 	add	r2, r1, r3
30002c1c:	e3a03000 	mov	r3, #0	; 0x0
30002c20:	e5823000 	str	r3, [r2]
30002c24:	e3a02000 	mov	r2, #0	; 0x0
30002c28:	e50b2068 	str	r2, [fp, #-104]
30002c2c:	ea0002cd 	b	30003768 <vsnprintf+0xb98>
30002c30:	e51b3058 	ldr	r3, [fp, #-88]
30002c34:	e50b3038 	str	r3, [fp, #-56]
30002c38:	e51b305c 	ldr	r3, [fp, #-92]
30002c3c:	e2432001 	sub	r2, r3, #1	; 0x1
30002c40:	e51b3058 	ldr	r3, [fp, #-88]
30002c44:	e0833002 	add	r3, r3, r2
30002c48:	e50b3034 	str	r3, [fp, #-52]
30002c4c:	e51b3058 	ldr	r3, [fp, #-88]
30002c50:	e2432001 	sub	r2, r3, #1	; 0x1
30002c54:	e51b3034 	ldr	r3, [fp, #-52]
30002c58:	e1520003 	cmp	r2, r3
30002c5c:	9a0002ab 	bls	30003710 <vsnprintf+0xb40>
30002c60:	e3e03000 	mvn	r3, #0	; 0x0
30002c64:	e50b3034 	str	r3, [fp, #-52]
30002c68:	e51b2034 	ldr	r2, [fp, #-52]
30002c6c:	e51b3058 	ldr	r3, [fp, #-88]
30002c70:	e0633002 	rsb	r3, r3, r2
30002c74:	e2833001 	add	r3, r3, #1	; 0x1
30002c78:	e50b305c 	str	r3, [fp, #-92]
30002c7c:	ea0002a3 	b	30003710 <vsnprintf+0xb40>
30002c80:	e51b3060 	ldr	r3, [fp, #-96]
30002c84:	e5d33000 	ldrb	r3, [r3]
30002c88:	e3530025 	cmp	r3, #37	; 0x25
30002c8c:	0a00000b 	beq	30002cc0 <vsnprintf+0xf0>
30002c90:	e51b2038 	ldr	r2, [fp, #-56]
30002c94:	e51b3034 	ldr	r3, [fp, #-52]
30002c98:	e1520003 	cmp	r2, r3
30002c9c:	8a000003 	bhi	30002cb0 <vsnprintf+0xe0>
30002ca0:	e51b3060 	ldr	r3, [fp, #-96]
30002ca4:	e5d33000 	ldrb	r3, [r3]
30002ca8:	e51b2038 	ldr	r2, [fp, #-56]
30002cac:	e5c23000 	strb	r3, [r2]
30002cb0:	e51b3038 	ldr	r3, [fp, #-56]
30002cb4:	e2833001 	add	r3, r3, #1	; 0x1
30002cb8:	e50b3038 	str	r3, [fp, #-56]
30002cbc:	ea000290 	b	30003704 <vsnprintf+0xb34>
30002cc0:	e3a03000 	mov	r3, #0	; 0x0
30002cc4:	e50b3028 	str	r3, [fp, #-40]
30002cc8:	e51b3060 	ldr	r3, [fp, #-96]
30002ccc:	e2833001 	add	r3, r3, #1	; 0x1
30002cd0:	e50b3060 	str	r3, [fp, #-96]
30002cd4:	e51b3060 	ldr	r3, [fp, #-96]
30002cd8:	e5d33000 	ldrb	r3, [r3]
30002cdc:	e2433020 	sub	r3, r3, #32	; 0x20
30002ce0:	e3530010 	cmp	r3, #16	; 0x10
30002ce4:	908ff103 	addls	pc, pc, r3, lsl #2
30002ce8:	ea000024 	b	30002d80 <vsnprintf+0x1b0>
30002cec:	ea000017 	b	30002d50 <vsnprintf+0x180>
30002cf0:	ea000022 	b	30002d80 <vsnprintf+0x1b0>
30002cf4:	ea000021 	b	30002d80 <vsnprintf+0x1b0>
30002cf8:	ea000018 	b	30002d60 <vsnprintf+0x190>
30002cfc:	ea00001f 	b	30002d80 <vsnprintf+0x1b0>
30002d00:	ea00001e 	b	30002d80 <vsnprintf+0x1b0>
30002d04:	ea00001d 	b	30002d80 <vsnprintf+0x1b0>
30002d08:	ea00001c 	b	30002d80 <vsnprintf+0x1b0>
30002d0c:	ea00001b 	b	30002d80 <vsnprintf+0x1b0>
30002d10:	ea00001a 	b	30002d80 <vsnprintf+0x1b0>
30002d14:	ea000019 	b	30002d80 <vsnprintf+0x1b0>
30002d18:	ea000008 	b	30002d40 <vsnprintf+0x170>
30002d1c:	ea000017 	b	30002d80 <vsnprintf+0x1b0>
30002d20:	ea000002 	b	30002d30 <vsnprintf+0x160>
30002d24:	ea000015 	b	30002d80 <vsnprintf+0x1b0>
30002d28:	ea000014 	b	30002d80 <vsnprintf+0x1b0>
30002d2c:	ea00000f 	b	30002d70 <vsnprintf+0x1a0>
30002d30:	e51b3028 	ldr	r3, [fp, #-40]
30002d34:	e3833010 	orr	r3, r3, #16	; 0x10
30002d38:	e50b3028 	str	r3, [fp, #-40]
30002d3c:	eaffffe1 	b	30002cc8 <vsnprintf+0xf8>
30002d40:	e51b3028 	ldr	r3, [fp, #-40]
30002d44:	e3833004 	orr	r3, r3, #4	; 0x4
30002d48:	e50b3028 	str	r3, [fp, #-40]
30002d4c:	eaffffdd 	b	30002cc8 <vsnprintf+0xf8>
30002d50:	e51b3028 	ldr	r3, [fp, #-40]
30002d54:	e3833008 	orr	r3, r3, #8	; 0x8
30002d58:	e50b3028 	str	r3, [fp, #-40]
30002d5c:	eaffffd9 	b	30002cc8 <vsnprintf+0xf8>
30002d60:	e51b3028 	ldr	r3, [fp, #-40]
30002d64:	e3833020 	orr	r3, r3, #32	; 0x20
30002d68:	e50b3028 	str	r3, [fp, #-40]
30002d6c:	eaffffd5 	b	30002cc8 <vsnprintf+0xf8>
30002d70:	e51b3028 	ldr	r3, [fp, #-40]
30002d74:	e3833001 	orr	r3, r3, #1	; 0x1
30002d78:	e50b3028 	str	r3, [fp, #-40]
30002d7c:	eaffffd1 	b	30002cc8 <vsnprintf+0xf8>
30002d80:	e3e03000 	mvn	r3, #0	; 0x0
30002d84:	e50b3024 	str	r3, [fp, #-36]
30002d88:	e51b3060 	ldr	r3, [fp, #-96]
30002d8c:	e5d33000 	ldrb	r3, [r3]
30002d90:	e1a02003 	mov	r2, r3
30002d94:	e59f39e8 	ldr	r3, [pc, #2536]	; 30003784 <vsnprintf+0xbb4>
30002d98:	e51bc06c 	ldr	ip, [fp, #-108]
30002d9c:	e79c3003 	ldr	r3, [ip, r3]
30002da0:	e7d33002 	ldrb	r3, [r3, r2]
30002da4:	e2033004 	and	r3, r3, #4	; 0x4
30002da8:	e3530000 	cmp	r3, #0	; 0x0
30002dac:	0a000005 	beq	30002dc8 <vsnprintf+0x1f8>
30002db0:	e24b3060 	sub	r3, fp, #96	; 0x60
30002db4:	e1a00003 	mov	r0, r3
30002db8:	ebfffded 	bl	30002574 <skip_atoi>
30002dbc:	e1a03000 	mov	r3, r0
30002dc0:	e50b3024 	str	r3, [fp, #-36]
30002dc4:	ea000016 	b	30002e24 <vsnprintf+0x254>
30002dc8:	e51b3060 	ldr	r3, [fp, #-96]
30002dcc:	e5d33000 	ldrb	r3, [r3]
30002dd0:	e353002a 	cmp	r3, #42	; 0x2a
30002dd4:	1a000012 	bne	30002e24 <vsnprintf+0x254>
30002dd8:	e51b3060 	ldr	r3, [fp, #-96]
30002ddc:	e2833001 	add	r3, r3, #1	; 0x1
30002de0:	e50b3060 	str	r3, [fp, #-96]
30002de4:	e51b3064 	ldr	r3, [fp, #-100]
30002de8:	e2833004 	add	r3, r3, #4	; 0x4
30002dec:	e50b3064 	str	r3, [fp, #-100]
30002df0:	e51b3064 	ldr	r3, [fp, #-100]
30002df4:	e2433004 	sub	r3, r3, #4	; 0x4
30002df8:	e5933000 	ldr	r3, [r3]
30002dfc:	e50b3024 	str	r3, [fp, #-36]
30002e00:	e51b3024 	ldr	r3, [fp, #-36]
30002e04:	e3530000 	cmp	r3, #0	; 0x0
30002e08:	aa000005 	bge	30002e24 <vsnprintf+0x254>
30002e0c:	e51b3024 	ldr	r3, [fp, #-36]
30002e10:	e2633000 	rsb	r3, r3, #0	; 0x0
30002e14:	e50b3024 	str	r3, [fp, #-36]
30002e18:	e51b3028 	ldr	r3, [fp, #-40]
30002e1c:	e3833010 	orr	r3, r3, #16	; 0x10
30002e20:	e50b3028 	str	r3, [fp, #-40]
30002e24:	e3e03000 	mvn	r3, #0	; 0x0
30002e28:	e50b3020 	str	r3, [fp, #-32]
30002e2c:	e51b3060 	ldr	r3, [fp, #-96]
30002e30:	e5d33000 	ldrb	r3, [r3]
30002e34:	e353002e 	cmp	r3, #46	; 0x2e
30002e38:	1a000025 	bne	30002ed4 <vsnprintf+0x304>
30002e3c:	e51b3060 	ldr	r3, [fp, #-96]
30002e40:	e2833001 	add	r3, r3, #1	; 0x1
30002e44:	e50b3060 	str	r3, [fp, #-96]
30002e48:	e51b3060 	ldr	r3, [fp, #-96]
30002e4c:	e5d33000 	ldrb	r3, [r3]
30002e50:	e1a02003 	mov	r2, r3
30002e54:	e59f3928 	ldr	r3, [pc, #2344]	; 30003784 <vsnprintf+0xbb4>
30002e58:	e51b106c 	ldr	r1, [fp, #-108]
30002e5c:	e7913003 	ldr	r3, [r1, r3]
30002e60:	e7d33002 	ldrb	r3, [r3, r2]
30002e64:	e2033004 	and	r3, r3, #4	; 0x4
30002e68:	e3530000 	cmp	r3, #0	; 0x0
30002e6c:	0a000005 	beq	30002e88 <vsnprintf+0x2b8>
30002e70:	e24b3060 	sub	r3, fp, #96	; 0x60
30002e74:	e1a00003 	mov	r0, r3
30002e78:	ebfffdbd 	bl	30002574 <skip_atoi>
30002e7c:	e1a03000 	mov	r3, r0
30002e80:	e50b3020 	str	r3, [fp, #-32]
30002e84:	ea00000d 	b	30002ec0 <vsnprintf+0x2f0>
30002e88:	e51b3060 	ldr	r3, [fp, #-96]
30002e8c:	e5d33000 	ldrb	r3, [r3]
30002e90:	e353002a 	cmp	r3, #42	; 0x2a
30002e94:	1a000009 	bne	30002ec0 <vsnprintf+0x2f0>
30002e98:	e51b3060 	ldr	r3, [fp, #-96]
30002e9c:	e2833001 	add	r3, r3, #1	; 0x1
30002ea0:	e50b3060 	str	r3, [fp, #-96]
30002ea4:	e51b3064 	ldr	r3, [fp, #-100]
30002ea8:	e2833004 	add	r3, r3, #4	; 0x4
30002eac:	e50b3064 	str	r3, [fp, #-100]
30002eb0:	e51b3064 	ldr	r3, [fp, #-100]
30002eb4:	e2433004 	sub	r3, r3, #4	; 0x4
30002eb8:	e5933000 	ldr	r3, [r3]
30002ebc:	e50b3020 	str	r3, [fp, #-32]
30002ec0:	e51b3020 	ldr	r3, [fp, #-32]
30002ec4:	e3530000 	cmp	r3, #0	; 0x0
30002ec8:	aa000001 	bge	30002ed4 <vsnprintf+0x304>
30002ecc:	e3a03000 	mov	r3, #0	; 0x0
30002ed0:	e50b3020 	str	r3, [fp, #-32]
30002ed4:	e3e03000 	mvn	r3, #0	; 0x0
30002ed8:	e50b301c 	str	r3, [fp, #-28]
30002edc:	e51b3060 	ldr	r3, [fp, #-96]
30002ee0:	e5d33000 	ldrb	r3, [r3]
30002ee4:	e3530068 	cmp	r3, #104	; 0x68
30002ee8:	0a00000f 	beq	30002f2c <vsnprintf+0x35c>
30002eec:	e51b3060 	ldr	r3, [fp, #-96]
30002ef0:	e5d33000 	ldrb	r3, [r3]
30002ef4:	e353006c 	cmp	r3, #108	; 0x6c
30002ef8:	0a00000b 	beq	30002f2c <vsnprintf+0x35c>
30002efc:	e51b3060 	ldr	r3, [fp, #-96]
30002f00:	e5d33000 	ldrb	r3, [r3]
30002f04:	e353004c 	cmp	r3, #76	; 0x4c
30002f08:	0a000007 	beq	30002f2c <vsnprintf+0x35c>
30002f0c:	e51b3060 	ldr	r3, [fp, #-96]
30002f10:	e5d33000 	ldrb	r3, [r3]
30002f14:	e353005a 	cmp	r3, #90	; 0x5a
30002f18:	0a000003 	beq	30002f2c <vsnprintf+0x35c>
30002f1c:	e51b3060 	ldr	r3, [fp, #-96]
30002f20:	e5d33000 	ldrb	r3, [r3]
30002f24:	e353007a 	cmp	r3, #122	; 0x7a
30002f28:	1a000011 	bne	30002f74 <vsnprintf+0x3a4>
30002f2c:	e51b3060 	ldr	r3, [fp, #-96]
30002f30:	e5d33000 	ldrb	r3, [r3]
30002f34:	e50b301c 	str	r3, [fp, #-28]
30002f38:	e51b3060 	ldr	r3, [fp, #-96]
30002f3c:	e2833001 	add	r3, r3, #1	; 0x1
30002f40:	e50b3060 	str	r3, [fp, #-96]
30002f44:	e51b301c 	ldr	r3, [fp, #-28]
30002f48:	e353006c 	cmp	r3, #108	; 0x6c
30002f4c:	1a000008 	bne	30002f74 <vsnprintf+0x3a4>
30002f50:	e51b3060 	ldr	r3, [fp, #-96]
30002f54:	e5d33000 	ldrb	r3, [r3]
30002f58:	e353006c 	cmp	r3, #108	; 0x6c
30002f5c:	1a000004 	bne	30002f74 <vsnprintf+0x3a4>
30002f60:	e3a0304c 	mov	r3, #76	; 0x4c
30002f64:	e50b301c 	str	r3, [fp, #-28]
30002f68:	e51b3060 	ldr	r3, [fp, #-96]
30002f6c:	e2833001 	add	r3, r3, #1	; 0x1
30002f70:	e50b3060 	str	r3, [fp, #-96]
30002f74:	e3a0300a 	mov	r3, #10	; 0xa
30002f78:	e50b303c 	str	r3, [fp, #-60]
30002f7c:	e51b3060 	ldr	r3, [fp, #-96]
30002f80:	e5d33000 	ldrb	r3, [r3]
30002f84:	e2433025 	sub	r3, r3, #37	; 0x25
30002f88:	e3530053 	cmp	r3, #83	; 0x53
30002f8c:	908ff103 	addls	pc, pc, r3, lsl #2
30002f90:	ea000153 	b	300034e4 <vsnprintf+0x914>
30002f94:	ea00013a 	b	30003484 <vsnprintf+0x8b4>
30002f98:	ea000151 	b	300034e4 <vsnprintf+0x914>
30002f9c:	ea000150 	b	300034e4 <vsnprintf+0x914>
30002fa0:	ea00014f 	b	300034e4 <vsnprintf+0x914>
30002fa4:	ea00014e 	b	300034e4 <vsnprintf+0x914>
30002fa8:	ea00014d 	b	300034e4 <vsnprintf+0x914>
30002fac:	ea00014c 	b	300034e4 <vsnprintf+0x914>
30002fb0:	ea00014b 	b	300034e4 <vsnprintf+0x914>
30002fb4:	ea00014a 	b	300034e4 <vsnprintf+0x914>
30002fb8:	ea000149 	b	300034e4 <vsnprintf+0x914>
30002fbc:	ea000148 	b	300034e4 <vsnprintf+0x914>
30002fc0:	ea000147 	b	300034e4 <vsnprintf+0x914>
30002fc4:	ea000146 	b	300034e4 <vsnprintf+0x914>
30002fc8:	ea000145 	b	300034e4 <vsnprintf+0x914>
30002fcc:	ea000144 	b	300034e4 <vsnprintf+0x914>
30002fd0:	ea000143 	b	300034e4 <vsnprintf+0x914>
30002fd4:	ea000142 	b	300034e4 <vsnprintf+0x914>
30002fd8:	ea000141 	b	300034e4 <vsnprintf+0x914>
30002fdc:	ea000140 	b	300034e4 <vsnprintf+0x914>
30002fe0:	ea00013f 	b	300034e4 <vsnprintf+0x914>
30002fe4:	ea00013e 	b	300034e4 <vsnprintf+0x914>
30002fe8:	ea00013d 	b	300034e4 <vsnprintf+0x914>
30002fec:	ea00013c 	b	300034e4 <vsnprintf+0x914>
30002ff0:	ea00013b 	b	300034e4 <vsnprintf+0x914>
30002ff4:	ea00013a 	b	300034e4 <vsnprintf+0x914>
30002ff8:	ea000139 	b	300034e4 <vsnprintf+0x914>
30002ffc:	ea000138 	b	300034e4 <vsnprintf+0x914>
30003000:	ea000137 	b	300034e4 <vsnprintf+0x914>
30003004:	ea000136 	b	300034e4 <vsnprintf+0x914>
30003008:	ea000135 	b	300034e4 <vsnprintf+0x914>
3000300c:	ea000134 	b	300034e4 <vsnprintf+0x914>
30003010:	ea000133 	b	300034e4 <vsnprintf+0x914>
30003014:	ea000132 	b	300034e4 <vsnprintf+0x914>
30003018:	ea000131 	b	300034e4 <vsnprintf+0x914>
3000301c:	ea000130 	b	300034e4 <vsnprintf+0x914>
30003020:	ea00012f 	b	300034e4 <vsnprintf+0x914>
30003024:	ea00012e 	b	300034e4 <vsnprintf+0x914>
30003028:	ea00012d 	b	300034e4 <vsnprintf+0x914>
3000302c:	ea00012c 	b	300034e4 <vsnprintf+0x914>
30003030:	ea00012b 	b	300034e4 <vsnprintf+0x914>
30003034:	ea00012a 	b	300034e4 <vsnprintf+0x914>
30003038:	ea000129 	b	300034e4 <vsnprintf+0x914>
3000303c:	ea000128 	b	300034e4 <vsnprintf+0x914>
30003040:	ea000127 	b	300034e4 <vsnprintf+0x914>
30003044:	ea000126 	b	300034e4 <vsnprintf+0x914>
30003048:	ea000125 	b	300034e4 <vsnprintf+0x914>
3000304c:	ea000124 	b	300034e4 <vsnprintf+0x914>
30003050:	ea000123 	b	300034e4 <vsnprintf+0x914>
30003054:	ea000122 	b	300034e4 <vsnprintf+0x914>
30003058:	ea000121 	b	300034e4 <vsnprintf+0x914>
3000305c:	ea000120 	b	300034e4 <vsnprintf+0x914>
30003060:	ea000115 	b	300034bc <vsnprintf+0x8ec>
30003064:	ea00011e 	b	300034e4 <vsnprintf+0x914>
30003068:	ea00011d 	b	300034e4 <vsnprintf+0x914>
3000306c:	ea00011c 	b	300034e4 <vsnprintf+0x914>
30003070:	ea00011b 	b	300034e4 <vsnprintf+0x914>
30003074:	ea00011a 	b	300034e4 <vsnprintf+0x914>
30003078:	ea000119 	b	300034e4 <vsnprintf+0x914>
3000307c:	ea000118 	b	300034e4 <vsnprintf+0x914>
30003080:	ea000117 	b	300034e4 <vsnprintf+0x914>
30003084:	ea000116 	b	300034e4 <vsnprintf+0x914>
30003088:	ea000115 	b	300034e4 <vsnprintf+0x914>
3000308c:	ea000014 	b	300030e4 <vsnprintf+0x514>
30003090:	ea00010f 	b	300034d4 <vsnprintf+0x904>
30003094:	ea000112 	b	300034e4 <vsnprintf+0x914>
30003098:	ea000111 	b	300034e4 <vsnprintf+0x914>
3000309c:	ea000110 	b	300034e4 <vsnprintf+0x914>
300030a0:	ea00010f 	b	300034e4 <vsnprintf+0x914>
300030a4:	ea00010a 	b	300034d4 <vsnprintf+0x904>
300030a8:	ea00010d 	b	300034e4 <vsnprintf+0x914>
300030ac:	ea00010c 	b	300034e4 <vsnprintf+0x914>
300030b0:	ea00010b 	b	300034e4 <vsnprintf+0x914>
300030b4:	ea00010a 	b	300034e4 <vsnprintf+0x914>
300030b8:	ea0000c0 	b	300033c0 <vsnprintf+0x7f0>
300030bc:	ea0000fb 	b	300034b0 <vsnprintf+0x8e0>
300030c0:	ea00009e 	b	30003340 <vsnprintf+0x770>
300030c4:	ea000106 	b	300034e4 <vsnprintf+0x914>
300030c8:	ea000105 	b	300034e4 <vsnprintf+0x914>
300030cc:	ea00003c 	b	300031c4 <vsnprintf+0x5f4>
300030d0:	ea000103 	b	300034e4 <vsnprintf+0x914>
300030d4:	ea000120 	b	3000355c <vsnprintf+0x98c>
300030d8:	ea000101 	b	300034e4 <vsnprintf+0x914>
300030dc:	ea000100 	b	300034e4 <vsnprintf+0x914>
300030e0:	ea0000f8 	b	300034c8 <vsnprintf+0x8f8>
300030e4:	e51b3028 	ldr	r3, [fp, #-40]
300030e8:	e2033010 	and	r3, r3, #16	; 0x10
300030ec:	e3530000 	cmp	r3, #0	; 0x0
300030f0:	1a000010 	bne	30003138 <vsnprintf+0x568>
300030f4:	ea000009 	b	30003120 <vsnprintf+0x550>
300030f8:	e51b2038 	ldr	r2, [fp, #-56]
300030fc:	e51b3034 	ldr	r3, [fp, #-52]
30003100:	e1520003 	cmp	r2, r3
30003104:	8a000002 	bhi	30003114 <vsnprintf+0x544>
30003108:	e51b3038 	ldr	r3, [fp, #-56]
3000310c:	e3a02020 	mov	r2, #32	; 0x20
30003110:	e5c32000 	strb	r2, [r3]
30003114:	e51b3038 	ldr	r3, [fp, #-56]
30003118:	e2833001 	add	r3, r3, #1	; 0x1
3000311c:	e50b3038 	str	r3, [fp, #-56]
30003120:	e51b3024 	ldr	r3, [fp, #-36]
30003124:	e2433001 	sub	r3, r3, #1	; 0x1
30003128:	e50b3024 	str	r3, [fp, #-36]
3000312c:	e51b3024 	ldr	r3, [fp, #-36]
30003130:	e3530000 	cmp	r3, #0	; 0x0
30003134:	caffffef 	bgt	300030f8 <vsnprintf+0x528>
30003138:	e51b3064 	ldr	r3, [fp, #-100]
3000313c:	e2833004 	add	r3, r3, #4	; 0x4
30003140:	e50b3064 	str	r3, [fp, #-100]
30003144:	e51b3064 	ldr	r3, [fp, #-100]
30003148:	e2433004 	sub	r3, r3, #4	; 0x4
3000314c:	e5933000 	ldr	r3, [r3]
30003150:	e54b302d 	strb	r3, [fp, #-45]
30003154:	e51b2038 	ldr	r2, [fp, #-56]
30003158:	e51b3034 	ldr	r3, [fp, #-52]
3000315c:	e1520003 	cmp	r2, r3
30003160:	8a000002 	bhi	30003170 <vsnprintf+0x5a0>
30003164:	e51b2038 	ldr	r2, [fp, #-56]
30003168:	e55b302d 	ldrb	r3, [fp, #-45]
3000316c:	e5c23000 	strb	r3, [r2]
30003170:	e51b3038 	ldr	r3, [fp, #-56]
30003174:	e2833001 	add	r3, r3, #1	; 0x1
30003178:	e50b3038 	str	r3, [fp, #-56]
3000317c:	ea000009 	b	300031a8 <vsnprintf+0x5d8>
30003180:	e51b2038 	ldr	r2, [fp, #-56]
30003184:	e51b3034 	ldr	r3, [fp, #-52]
30003188:	e1520003 	cmp	r2, r3
3000318c:	8a000002 	bhi	3000319c <vsnprintf+0x5cc>
30003190:	e51b3038 	ldr	r3, [fp, #-56]
30003194:	e3a02020 	mov	r2, #32	; 0x20
30003198:	e5c32000 	strb	r2, [r3]
3000319c:	e51b3038 	ldr	r3, [fp, #-56]
300031a0:	e2833001 	add	r3, r3, #1	; 0x1
300031a4:	e50b3038 	str	r3, [fp, #-56]
300031a8:	e51b3024 	ldr	r3, [fp, #-36]
300031ac:	e2433001 	sub	r3, r3, #1	; 0x1
300031b0:	e50b3024 	str	r3, [fp, #-36]
300031b4:	e51b3024 	ldr	r3, [fp, #-36]
300031b8:	e3530000 	cmp	r3, #0	; 0x0
300031bc:	caffffef 	bgt	30003180 <vsnprintf+0x5b0>
300031c0:	ea00014f 	b	30003704 <vsnprintf+0xb34>
300031c4:	e51b3064 	ldr	r3, [fp, #-100]
300031c8:	e2833004 	add	r3, r3, #4	; 0x4
300031cc:	e50b3064 	str	r3, [fp, #-100]
300031d0:	e51b3064 	ldr	r3, [fp, #-100]
300031d4:	e2433004 	sub	r3, r3, #4	; 0x4
300031d8:	e5933000 	ldr	r3, [r3]
300031dc:	e50b302c 	str	r3, [fp, #-44]
300031e0:	e51b202c 	ldr	r2, [fp, #-44]
300031e4:	e3a03fff 	mov	r3, #1020	; 0x3fc
300031e8:	e2833003 	add	r3, r3, #3	; 0x3
300031ec:	e1520003 	cmp	r2, r3
300031f0:	8a000003 	bhi	30003204 <vsnprintf+0x634>
300031f4:	e59f358c 	ldr	r3, [pc, #1420]	; 30003788 <vsnprintf+0xbb8>
300031f8:	e51b206c 	ldr	r2, [fp, #-108]
300031fc:	e0823003 	add	r3, r2, r3
30003200:	e50b302c 	str	r3, [fp, #-44]
30003204:	e51b3020 	ldr	r3, [fp, #-32]
30003208:	e51b002c 	ldr	r0, [fp, #-44]
3000320c:	e1a01003 	mov	r1, r3
30003210:	ebfff8fe 	bl	30001610 <strnlen>
30003214:	e1a03000 	mov	r3, r0
30003218:	e50b3050 	str	r3, [fp, #-80]
3000321c:	e51b3028 	ldr	r3, [fp, #-40]
30003220:	e2033010 	and	r3, r3, #16	; 0x10
30003224:	e3530000 	cmp	r3, #0	; 0x0
30003228:	1a000015 	bne	30003284 <vsnprintf+0x6b4>
3000322c:	ea000009 	b	30003258 <vsnprintf+0x688>
30003230:	e51b2038 	ldr	r2, [fp, #-56]
30003234:	e51b3034 	ldr	r3, [fp, #-52]
30003238:	e1520003 	cmp	r2, r3
3000323c:	8a000002 	bhi	3000324c <vsnprintf+0x67c>
30003240:	e51b3038 	ldr	r3, [fp, #-56]
30003244:	e3a02020 	mov	r2, #32	; 0x20
30003248:	e5c32000 	strb	r2, [r3]
3000324c:	e51b3038 	ldr	r3, [fp, #-56]
30003250:	e2833001 	add	r3, r3, #1	; 0x1
30003254:	e50b3038 	str	r3, [fp, #-56]
30003258:	e51b2024 	ldr	r2, [fp, #-36]
3000325c:	e51b3050 	ldr	r3, [fp, #-80]
30003260:	e1520003 	cmp	r2, r3
30003264:	d3a03000 	movle	r3, #0	; 0x0
30003268:	c3a03001 	movgt	r3, #1	; 0x1
3000326c:	e20320ff 	and	r2, r3, #255	; 0xff
30003270:	e51b3024 	ldr	r3, [fp, #-36]
30003274:	e2433001 	sub	r3, r3, #1	; 0x1
30003278:	e50b3024 	str	r3, [fp, #-36]
3000327c:	e3520000 	cmp	r2, #0	; 0x0
30003280:	1affffea 	bne	30003230 <vsnprintf+0x660>
30003284:	e3a03000 	mov	r3, #0	; 0x0
30003288:	e50b3040 	str	r3, [fp, #-64]
3000328c:	ea000010 	b	300032d4 <vsnprintf+0x704>
30003290:	e51b2038 	ldr	r2, [fp, #-56]
30003294:	e51b3034 	ldr	r3, [fp, #-52]
30003298:	e1520003 	cmp	r2, r3
3000329c:	8a000003 	bhi	300032b0 <vsnprintf+0x6e0>
300032a0:	e51b302c 	ldr	r3, [fp, #-44]
300032a4:	e5d33000 	ldrb	r3, [r3]
300032a8:	e51b2038 	ldr	r2, [fp, #-56]
300032ac:	e5c23000 	strb	r3, [r2]
300032b0:	e51b3038 	ldr	r3, [fp, #-56]
300032b4:	e2833001 	add	r3, r3, #1	; 0x1
300032b8:	e50b3038 	str	r3, [fp, #-56]
300032bc:	e51b302c 	ldr	r3, [fp, #-44]
300032c0:	e2833001 	add	r3, r3, #1	; 0x1
300032c4:	e50b302c 	str	r3, [fp, #-44]
300032c8:	e51b3040 	ldr	r3, [fp, #-64]
300032cc:	e2833001 	add	r3, r3, #1	; 0x1
300032d0:	e50b3040 	str	r3, [fp, #-64]
300032d4:	e51b2040 	ldr	r2, [fp, #-64]
300032d8:	e51b3050 	ldr	r3, [fp, #-80]
300032dc:	e1520003 	cmp	r2, r3
300032e0:	baffffea 	blt	30003290 <vsnprintf+0x6c0>
300032e4:	ea000009 	b	30003310 <vsnprintf+0x740>
300032e8:	e51b2038 	ldr	r2, [fp, #-56]
300032ec:	e51b3034 	ldr	r3, [fp, #-52]
300032f0:	e1520003 	cmp	r2, r3
300032f4:	8a000002 	bhi	30003304 <vsnprintf+0x734>
300032f8:	e51b3038 	ldr	r3, [fp, #-56]
300032fc:	e3a02020 	mov	r2, #32	; 0x20
30003300:	e5c32000 	strb	r2, [r3]
30003304:	e51b3038 	ldr	r3, [fp, #-56]
30003308:	e2833001 	add	r3, r3, #1	; 0x1
3000330c:	e50b3038 	str	r3, [fp, #-56]
30003310:	e51b2024 	ldr	r2, [fp, #-36]
30003314:	e51b3050 	ldr	r3, [fp, #-80]
30003318:	e1520003 	cmp	r2, r3
3000331c:	d3a03000 	movle	r3, #0	; 0x0
30003320:	c3a03001 	movgt	r3, #1	; 0x1
30003324:	e20320ff 	and	r2, r3, #255	; 0xff
30003328:	e51b3024 	ldr	r3, [fp, #-36]
3000332c:	e2433001 	sub	r3, r3, #1	; 0x1
30003330:	e50b3024 	str	r3, [fp, #-36]
30003334:	e3520000 	cmp	r2, #0	; 0x0
30003338:	1affffea 	bne	300032e8 <vsnprintf+0x718>
3000333c:	ea0000f0 	b	30003704 <vsnprintf+0xb34>
30003340:	e51b3024 	ldr	r3, [fp, #-36]
30003344:	e3730001 	cmn	r3, #1	; 0x1
30003348:	1a000004 	bne	30003360 <vsnprintf+0x790>
3000334c:	e3a03008 	mov	r3, #8	; 0x8
30003350:	e50b3024 	str	r3, [fp, #-36]
30003354:	e51b3028 	ldr	r3, [fp, #-40]
30003358:	e3833001 	orr	r3, r3, #1	; 0x1
3000335c:	e50b3028 	str	r3, [fp, #-40]
30003360:	e51b3064 	ldr	r3, [fp, #-100]
30003364:	e2833004 	add	r3, r3, #4	; 0x4
30003368:	e50b3064 	str	r3, [fp, #-100]
3000336c:	e51b3064 	ldr	r3, [fp, #-100]
30003370:	e2433004 	sub	r3, r3, #4	; 0x4
30003374:	e5933000 	ldr	r3, [r3]
30003378:	e1a04003 	mov	r4, r3
3000337c:	e3a05000 	mov	r5, #0	; 0x0
30003380:	e3a03010 	mov	r3, #16	; 0x10
30003384:	e58d3000 	str	r3, [sp]
30003388:	e51b3024 	ldr	r3, [fp, #-36]
3000338c:	e58d3004 	str	r3, [sp, #4]
30003390:	e51b3020 	ldr	r3, [fp, #-32]
30003394:	e58d3008 	str	r3, [sp, #8]
30003398:	e51b3028 	ldr	r3, [fp, #-40]
3000339c:	e58d300c 	str	r3, [sp, #12]
300033a0:	e51b0038 	ldr	r0, [fp, #-56]
300033a4:	e51b1034 	ldr	r1, [fp, #-52]
300033a8:	e1a02004 	mov	r2, r4
300033ac:	e1a03005 	mov	r3, r5
300033b0:	ebfffc9c 	bl	30002628 <number>
300033b4:	e1a03000 	mov	r3, r0
300033b8:	e50b3038 	str	r3, [fp, #-56]
300033bc:	ea0000d0 	b	30003704 <vsnprintf+0xb34>
300033c0:	e51b301c 	ldr	r3, [fp, #-28]
300033c4:	e353006c 	cmp	r3, #108	; 0x6c
300033c8:	1a00000c 	bne	30003400 <vsnprintf+0x830>
300033cc:	e51b3064 	ldr	r3, [fp, #-100]
300033d0:	e2833004 	add	r3, r3, #4	; 0x4
300033d4:	e50b3064 	str	r3, [fp, #-100]
300033d8:	e51b3064 	ldr	r3, [fp, #-100]
300033dc:	e2433004 	sub	r3, r3, #4	; 0x4
300033e0:	e5933000 	ldr	r3, [r3]
300033e4:	e50b3018 	str	r3, [fp, #-24]
300033e8:	e51b2038 	ldr	r2, [fp, #-56]
300033ec:	e51b3058 	ldr	r3, [fp, #-88]
300033f0:	e0632002 	rsb	r2, r3, r2
300033f4:	e51b3018 	ldr	r3, [fp, #-24]
300033f8:	e5832000 	str	r2, [r3]
300033fc:	ea0000c0 	b	30003704 <vsnprintf+0xb34>
30003400:	e51b301c 	ldr	r3, [fp, #-28]
30003404:	e353005a 	cmp	r3, #90	; 0x5a
30003408:	0a000002 	beq	30003418 <vsnprintf+0x848>
3000340c:	e51b301c 	ldr	r3, [fp, #-28]
30003410:	e353007a 	cmp	r3, #122	; 0x7a
30003414:	1a00000d 	bne	30003450 <vsnprintf+0x880>
30003418:	e51b3064 	ldr	r3, [fp, #-100]
3000341c:	e2833004 	add	r3, r3, #4	; 0x4
30003420:	e50b3064 	str	r3, [fp, #-100]
30003424:	e51b3064 	ldr	r3, [fp, #-100]
30003428:	e2433004 	sub	r3, r3, #4	; 0x4
3000342c:	e5933000 	ldr	r3, [r3]
30003430:	e50b3014 	str	r3, [fp, #-20]
30003434:	e51b2038 	ldr	r2, [fp, #-56]
30003438:	e51b3058 	ldr	r3, [fp, #-88]
3000343c:	e0633002 	rsb	r3, r3, r2
30003440:	e1a02003 	mov	r2, r3
30003444:	e51b3014 	ldr	r3, [fp, #-20]
30003448:	e5832000 	str	r2, [r3]
3000344c:	ea0000ac 	b	30003704 <vsnprintf+0xb34>
30003450:	e51b3064 	ldr	r3, [fp, #-100]
30003454:	e2833004 	add	r3, r3, #4	; 0x4
30003458:	e50b3064 	str	r3, [fp, #-100]
3000345c:	e51b3064 	ldr	r3, [fp, #-100]
30003460:	e2433004 	sub	r3, r3, #4	; 0x4
30003464:	e5933000 	ldr	r3, [r3]
30003468:	e50b3010 	str	r3, [fp, #-16]
3000346c:	e51b2038 	ldr	r2, [fp, #-56]
30003470:	e51b3058 	ldr	r3, [fp, #-88]
30003474:	e0632002 	rsb	r2, r3, r2
30003478:	e51b3010 	ldr	r3, [fp, #-16]
3000347c:	e5832000 	str	r2, [r3]
30003480:	ea00009f 	b	30003704 <vsnprintf+0xb34>
30003484:	e51b2038 	ldr	r2, [fp, #-56]
30003488:	e51b3034 	ldr	r3, [fp, #-52]
3000348c:	e1520003 	cmp	r2, r3
30003490:	8a000002 	bhi	300034a0 <vsnprintf+0x8d0>
30003494:	e51b3038 	ldr	r3, [fp, #-56]
30003498:	e3a02025 	mov	r2, #37	; 0x25
3000349c:	e5c32000 	strb	r2, [r3]
300034a0:	e51b3038 	ldr	r3, [fp, #-56]
300034a4:	e2833001 	add	r3, r3, #1	; 0x1
300034a8:	e50b3038 	str	r3, [fp, #-56]
300034ac:	ea000094 	b	30003704 <vsnprintf+0xb34>
300034b0:	e3a03008 	mov	r3, #8	; 0x8
300034b4:	e50b303c 	str	r3, [fp, #-60]
300034b8:	ea000027 	b	3000355c <vsnprintf+0x98c>
300034bc:	e51b3028 	ldr	r3, [fp, #-40]
300034c0:	e3833040 	orr	r3, r3, #64	; 0x40
300034c4:	e50b3028 	str	r3, [fp, #-40]
300034c8:	e3a03010 	mov	r3, #16	; 0x10
300034cc:	e50b303c 	str	r3, [fp, #-60]
300034d0:	ea000021 	b	3000355c <vsnprintf+0x98c>
300034d4:	e51b3028 	ldr	r3, [fp, #-40]
300034d8:	e3833002 	orr	r3, r3, #2	; 0x2
300034dc:	e50b3028 	str	r3, [fp, #-40]
300034e0:	ea00001d 	b	3000355c <vsnprintf+0x98c>
300034e4:	e51b2038 	ldr	r2, [fp, #-56]
300034e8:	e51b3034 	ldr	r3, [fp, #-52]
300034ec:	e1520003 	cmp	r2, r3
300034f0:	8a000002 	bhi	30003500 <vsnprintf+0x930>
300034f4:	e51b3038 	ldr	r3, [fp, #-56]
300034f8:	e3a02025 	mov	r2, #37	; 0x25
300034fc:	e5c32000 	strb	r2, [r3]
30003500:	e51b3038 	ldr	r3, [fp, #-56]
30003504:	e2833001 	add	r3, r3, #1	; 0x1
30003508:	e50b3038 	str	r3, [fp, #-56]
3000350c:	e51b3060 	ldr	r3, [fp, #-96]
30003510:	e5d33000 	ldrb	r3, [r3]
30003514:	e3530000 	cmp	r3, #0	; 0x0
30003518:	0a00000b 	beq	3000354c <vsnprintf+0x97c>
3000351c:	e51b2038 	ldr	r2, [fp, #-56]
30003520:	e51b3034 	ldr	r3, [fp, #-52]
30003524:	e1520003 	cmp	r2, r3
30003528:	8a000003 	bhi	3000353c <vsnprintf+0x96c>
3000352c:	e51b3060 	ldr	r3, [fp, #-96]
30003530:	e5d33000 	ldrb	r3, [r3]
30003534:	e51b2038 	ldr	r2, [fp, #-56]
30003538:	e5c23000 	strb	r3, [r2]
3000353c:	e51b3038 	ldr	r3, [fp, #-56]
30003540:	e2833001 	add	r3, r3, #1	; 0x1
30003544:	e50b3038 	str	r3, [fp, #-56]
30003548:	ea00006d 	b	30003704 <vsnprintf+0xb34>
3000354c:	e51b3060 	ldr	r3, [fp, #-96]
30003550:	e2433001 	sub	r3, r3, #1	; 0x1
30003554:	e50b3060 	str	r3, [fp, #-96]
30003558:	ea000069 	b	30003704 <vsnprintf+0xb34>
3000355c:	e51b301c 	ldr	r3, [fp, #-28]
30003560:	e353004c 	cmp	r3, #76	; 0x4c
30003564:	1a000008 	bne	3000358c <vsnprintf+0x9bc>
30003568:	e51b3064 	ldr	r3, [fp, #-100]
3000356c:	e2833008 	add	r3, r3, #8	; 0x8
30003570:	e50b3064 	str	r3, [fp, #-100]
30003574:	e51b3064 	ldr	r3, [fp, #-100]
30003578:	e2433008 	sub	r3, r3, #8	; 0x8
3000357c:	e8930018 	ldm	r3, {r3, r4}
30003580:	e50b304c 	str	r3, [fp, #-76]
30003584:	e50b4048 	str	r4, [fp, #-72]
30003588:	ea00004e 	b	300036c8 <vsnprintf+0xaf8>
3000358c:	e51b301c 	ldr	r3, [fp, #-28]
30003590:	e353006c 	cmp	r3, #108	; 0x6c
30003594:	1a000011 	bne	300035e0 <vsnprintf+0xa10>
30003598:	e51b3064 	ldr	r3, [fp, #-100]
3000359c:	e2833004 	add	r3, r3, #4	; 0x4
300035a0:	e50b3064 	str	r3, [fp, #-100]
300035a4:	e51b3064 	ldr	r3, [fp, #-100]
300035a8:	e2433004 	sub	r3, r3, #4	; 0x4
300035ac:	e5933000 	ldr	r3, [r3]
300035b0:	e3a04000 	mov	r4, #0	; 0x0
300035b4:	e50b304c 	str	r3, [fp, #-76]
300035b8:	e50b4048 	str	r4, [fp, #-72]
300035bc:	e51b3028 	ldr	r3, [fp, #-40]
300035c0:	e2033002 	and	r3, r3, #2	; 0x2
300035c4:	e3530000 	cmp	r3, #0	; 0x0
300035c8:	0a00003e 	beq	300036c8 <vsnprintf+0xaf8>
300035cc:	e51b304c 	ldr	r3, [fp, #-76]
300035d0:	e1a04fc3 	asr	r4, r3, #31
300035d4:	e50b304c 	str	r3, [fp, #-76]
300035d8:	e50b4048 	str	r4, [fp, #-72]
300035dc:	ea000039 	b	300036c8 <vsnprintf+0xaf8>
300035e0:	e51b301c 	ldr	r3, [fp, #-28]
300035e4:	e353005a 	cmp	r3, #90	; 0x5a
300035e8:	0a000002 	beq	300035f8 <vsnprintf+0xa28>
300035ec:	e51b301c 	ldr	r3, [fp, #-28]
300035f0:	e353007a 	cmp	r3, #122	; 0x7a
300035f4:	1a000009 	bne	30003620 <vsnprintf+0xa50>
300035f8:	e51b3064 	ldr	r3, [fp, #-100]
300035fc:	e2833004 	add	r3, r3, #4	; 0x4
30003600:	e50b3064 	str	r3, [fp, #-100]
30003604:	e51b3064 	ldr	r3, [fp, #-100]
30003608:	e2433004 	sub	r3, r3, #4	; 0x4
3000360c:	e5933000 	ldr	r3, [r3]
30003610:	e3a04000 	mov	r4, #0	; 0x0
30003614:	e50b304c 	str	r3, [fp, #-76]
30003618:	e50b4048 	str	r4, [fp, #-72]
3000361c:	ea000029 	b	300036c8 <vsnprintf+0xaf8>
30003620:	e51b301c 	ldr	r3, [fp, #-28]
30003624:	e3530068 	cmp	r3, #104	; 0x68
30003628:	1a000015 	bne	30003684 <vsnprintf+0xab4>
3000362c:	e51b3064 	ldr	r3, [fp, #-100]
30003630:	e2833004 	add	r3, r3, #4	; 0x4
30003634:	e50b3064 	str	r3, [fp, #-100]
30003638:	e51b3064 	ldr	r3, [fp, #-100]
3000363c:	e2433004 	sub	r3, r3, #4	; 0x4
30003640:	e5933000 	ldr	r3, [r3]
30003644:	e1a03803 	lsl	r3, r3, #16
30003648:	e1a03823 	lsr	r3, r3, #16
3000364c:	e3a04000 	mov	r4, #0	; 0x0
30003650:	e50b304c 	str	r3, [fp, #-76]
30003654:	e50b4048 	str	r4, [fp, #-72]
30003658:	e51b3028 	ldr	r3, [fp, #-40]
3000365c:	e2033002 	and	r3, r3, #2	; 0x2
30003660:	e3530000 	cmp	r3, #0	; 0x0
30003664:	0a000017 	beq	300036c8 <vsnprintf+0xaf8>
30003668:	e15b34bc 	ldrh	r3, [fp, #-76]
3000366c:	e1a03803 	lsl	r3, r3, #16
30003670:	e1a03843 	asr	r3, r3, #16
30003674:	e1a04fc3 	asr	r4, r3, #31
30003678:	e50b304c 	str	r3, [fp, #-76]
3000367c:	e50b4048 	str	r4, [fp, #-72]
30003680:	ea000010 	b	300036c8 <vsnprintf+0xaf8>
30003684:	e51b3064 	ldr	r3, [fp, #-100]
30003688:	e2833004 	add	r3, r3, #4	; 0x4
3000368c:	e50b3064 	str	r3, [fp, #-100]
30003690:	e51b3064 	ldr	r3, [fp, #-100]
30003694:	e2433004 	sub	r3, r3, #4	; 0x4
30003698:	e5933000 	ldr	r3, [r3]
3000369c:	e3a04000 	mov	r4, #0	; 0x0
300036a0:	e50b304c 	str	r3, [fp, #-76]
300036a4:	e50b4048 	str	r4, [fp, #-72]
300036a8:	e51b3028 	ldr	r3, [fp, #-40]
300036ac:	e2033002 	and	r3, r3, #2	; 0x2
300036b0:	e3530000 	cmp	r3, #0	; 0x0
300036b4:	0a000003 	beq	300036c8 <vsnprintf+0xaf8>
300036b8:	e51b304c 	ldr	r3, [fp, #-76]
300036bc:	e1a04fc3 	asr	r4, r3, #31
300036c0:	e50b304c 	str	r3, [fp, #-76]
300036c4:	e50b4048 	str	r4, [fp, #-72]
300036c8:	e51b303c 	ldr	r3, [fp, #-60]
300036cc:	e58d3000 	str	r3, [sp]
300036d0:	e51b3024 	ldr	r3, [fp, #-36]
300036d4:	e58d3004 	str	r3, [sp, #4]
300036d8:	e51b3020 	ldr	r3, [fp, #-32]
300036dc:	e58d3008 	str	r3, [sp, #8]
300036e0:	e51b3028 	ldr	r3, [fp, #-40]
300036e4:	e58d300c 	str	r3, [sp, #12]
300036e8:	e51b0038 	ldr	r0, [fp, #-56]
300036ec:	e51b1034 	ldr	r1, [fp, #-52]
300036f0:	e24b304c 	sub	r3, fp, #76	; 0x4c
300036f4:	e893000c 	ldm	r3, {r2, r3}
300036f8:	ebfffbca 	bl	30002628 <number>
300036fc:	e1a03000 	mov	r3, r0
30003700:	e50b3038 	str	r3, [fp, #-56]
30003704:	e51b3060 	ldr	r3, [fp, #-96]
30003708:	e2833001 	add	r3, r3, #1	; 0x1
3000370c:	e50b3060 	str	r3, [fp, #-96]
30003710:	e51b3060 	ldr	r3, [fp, #-96]
30003714:	e5d33000 	ldrb	r3, [r3]
30003718:	e3530000 	cmp	r3, #0	; 0x0
3000371c:	1afffd57 	bne	30002c80 <vsnprintf+0xb0>
30003720:	e51b2038 	ldr	r2, [fp, #-56]
30003724:	e51b3034 	ldr	r3, [fp, #-52]
30003728:	e1520003 	cmp	r2, r3
3000372c:	8a000003 	bhi	30003740 <vsnprintf+0xb70>
30003730:	e51b3038 	ldr	r3, [fp, #-56]
30003734:	e3a02000 	mov	r2, #0	; 0x0
30003738:	e5c32000 	strb	r2, [r3]
3000373c:	ea000005 	b	30003758 <vsnprintf+0xb88>
30003740:	e51b305c 	ldr	r3, [fp, #-92]
30003744:	e3530000 	cmp	r3, #0	; 0x0
30003748:	0a000002 	beq	30003758 <vsnprintf+0xb88>
3000374c:	e51b3034 	ldr	r3, [fp, #-52]
30003750:	e3a02000 	mov	r2, #0	; 0x0
30003754:	e5c32000 	strb	r2, [r3]
30003758:	e51b2038 	ldr	r2, [fp, #-56]
3000375c:	e51b3058 	ldr	r3, [fp, #-88]
30003760:	e0632002 	rsb	r2, r3, r2
30003764:	e50b2068 	str	r2, [fp, #-104]
30003768:	e51b3068 	ldr	r3, [fp, #-104]
3000376c:	e1a00003 	mov	r0, r3
30003770:	e24bd00c 	sub	sp, fp, #12	; 0xc
30003774:	e8bd4830 	pop	{r4, r5, fp, lr}
30003778:	e12fff1e 	bx	lr
3000377c:	cfffd410 	.word	0xcfffd410
30003780:	3000cfcc 	.word	0x3000cfcc
30003784:	0000058c 	.word	0x0000058c
30003788:	3000c184 	.word	0x3000c184

3000378c <vscnprintf>:
3000378c:	e92d4800 	push	{fp, lr}
30003790:	e28db004 	add	fp, sp, #4	; 0x4
30003794:	e24dd020 	sub	sp, sp, #32	; 0x20
30003798:	e50b0010 	str	r0, [fp, #-16]
3000379c:	e50b1014 	str	r1, [fp, #-20]
300037a0:	e50b2018 	str	r2, [fp, #-24]
300037a4:	e50b301c 	str	r3, [fp, #-28]
300037a8:	e51b0010 	ldr	r0, [fp, #-16]
300037ac:	e51b1014 	ldr	r1, [fp, #-20]
300037b0:	e51b2018 	ldr	r2, [fp, #-24]
300037b4:	e51b301c 	ldr	r3, [fp, #-28]
300037b8:	ebfffd04 	bl	30002bd0 <vsnprintf>
300037bc:	e1a03000 	mov	r3, r0
300037c0:	e50b3008 	str	r3, [fp, #-8]
300037c4:	e51b2008 	ldr	r2, [fp, #-8]
300037c8:	e51b3014 	ldr	r3, [fp, #-20]
300037cc:	e1520003 	cmp	r2, r3
300037d0:	3a000003 	bcc	300037e4 <vscnprintf+0x58>
300037d4:	e51b3014 	ldr	r3, [fp, #-20]
300037d8:	e2433001 	sub	r3, r3, #1	; 0x1
300037dc:	e50b3020 	str	r3, [fp, #-32]
300037e0:	ea000001 	b	300037ec <vscnprintf+0x60>
300037e4:	e51b3008 	ldr	r3, [fp, #-8]
300037e8:	e50b3020 	str	r3, [fp, #-32]
300037ec:	e51b3020 	ldr	r3, [fp, #-32]
300037f0:	e1a00003 	mov	r0, r3
300037f4:	e24bd004 	sub	sp, fp, #4	; 0x4
300037f8:	e8bd4800 	pop	{fp, lr}
300037fc:	e12fff1e 	bx	lr

30003800 <snprintf>:
30003800:	e92d000c 	push	{r2, r3}
30003804:	e92d4800 	push	{fp, lr}
30003808:	e28db004 	add	fp, sp, #4	; 0x4
3000380c:	e24dd010 	sub	sp, sp, #16	; 0x10
30003810:	e50b0010 	str	r0, [fp, #-16]
30003814:	e50b1014 	str	r1, [fp, #-20]
30003818:	e28b3004 	add	r3, fp, #4	; 0x4
3000381c:	e2833004 	add	r3, r3, #4	; 0x4
30003820:	e50b300c 	str	r3, [fp, #-12]
30003824:	e59b3004 	ldr	r3, [fp, #4]
30003828:	e51b0010 	ldr	r0, [fp, #-16]
3000382c:	e51b1014 	ldr	r1, [fp, #-20]
30003830:	e1a02003 	mov	r2, r3
30003834:	e51b300c 	ldr	r3, [fp, #-12]
30003838:	ebfffce4 	bl	30002bd0 <vsnprintf>
3000383c:	e1a03000 	mov	r3, r0
30003840:	e50b3008 	str	r3, [fp, #-8]
30003844:	e51b3008 	ldr	r3, [fp, #-8]
30003848:	e1a00003 	mov	r0, r3
3000384c:	e24bd004 	sub	sp, fp, #4	; 0x4
30003850:	e8bd4800 	pop	{fp, lr}
30003854:	e28dd008 	add	sp, sp, #8	; 0x8
30003858:	e12fff1e 	bx	lr

3000385c <scnprintf>:
3000385c:	e92d000c 	push	{r2, r3}
30003860:	e92d4800 	push	{fp, lr}
30003864:	e28db004 	add	fp, sp, #4	; 0x4
30003868:	e24dd018 	sub	sp, sp, #24	; 0x18
3000386c:	e50b0010 	str	r0, [fp, #-16]
30003870:	e50b1014 	str	r1, [fp, #-20]
30003874:	e28b3004 	add	r3, fp, #4	; 0x4
30003878:	e2833004 	add	r3, r3, #4	; 0x4
3000387c:	e50b300c 	str	r3, [fp, #-12]
30003880:	e59b3004 	ldr	r3, [fp, #4]
30003884:	e51b0010 	ldr	r0, [fp, #-16]
30003888:	e51b1014 	ldr	r1, [fp, #-20]
3000388c:	e1a02003 	mov	r2, r3
30003890:	e51b300c 	ldr	r3, [fp, #-12]
30003894:	ebfffccd 	bl	30002bd0 <vsnprintf>
30003898:	e1a03000 	mov	r3, r0
3000389c:	e50b3008 	str	r3, [fp, #-8]
300038a0:	e51b2008 	ldr	r2, [fp, #-8]
300038a4:	e51b3014 	ldr	r3, [fp, #-20]
300038a8:	e1520003 	cmp	r2, r3
300038ac:	3a000003 	bcc	300038c0 <scnprintf+0x64>
300038b0:	e51b3014 	ldr	r3, [fp, #-20]
300038b4:	e2433001 	sub	r3, r3, #1	; 0x1
300038b8:	e50b3018 	str	r3, [fp, #-24]
300038bc:	ea000001 	b	300038c8 <scnprintf+0x6c>
300038c0:	e51b3008 	ldr	r3, [fp, #-8]
300038c4:	e50b3018 	str	r3, [fp, #-24]
300038c8:	e51b3018 	ldr	r3, [fp, #-24]
300038cc:	e1a00003 	mov	r0, r3
300038d0:	e24bd004 	sub	sp, fp, #4	; 0x4
300038d4:	e8bd4800 	pop	{fp, lr}
300038d8:	e28dd008 	add	sp, sp, #8	; 0x8
300038dc:	e12fff1e 	bx	lr

300038e0 <vsprintf>:
300038e0:	e92d4800 	push	{fp, lr}
300038e4:	e28db004 	add	fp, sp, #4	; 0x4
300038e8:	e24dd010 	sub	sp, sp, #16	; 0x10
300038ec:	e50b0008 	str	r0, [fp, #-8]
300038f0:	e50b100c 	str	r1, [fp, #-12]
300038f4:	e50b2010 	str	r2, [fp, #-16]
300038f8:	e51b0008 	ldr	r0, [fp, #-8]
300038fc:	e3e01102 	mvn	r1, #-2147483648	; 0x80000000
30003900:	e51b200c 	ldr	r2, [fp, #-12]
30003904:	e51b3010 	ldr	r3, [fp, #-16]
30003908:	ebfffcb0 	bl	30002bd0 <vsnprintf>
3000390c:	e1a03000 	mov	r3, r0
30003910:	e1a00003 	mov	r0, r3
30003914:	e24bd004 	sub	sp, fp, #4	; 0x4
30003918:	e8bd4800 	pop	{fp, lr}
3000391c:	e12fff1e 	bx	lr

30003920 <sprintf>:
30003920:	e92d000e 	push	{r1, r2, r3}
30003924:	e92d4800 	push	{fp, lr}
30003928:	e28db004 	add	fp, sp, #4	; 0x4
3000392c:	e24dd014 	sub	sp, sp, #20	; 0x14
30003930:	e50b0014 	str	r0, [fp, #-20]
30003934:	e28b3004 	add	r3, fp, #4	; 0x4
30003938:	e2833004 	add	r3, r3, #4	; 0x4
3000393c:	e50b3010 	str	r3, [fp, #-16]
30003940:	e59b3004 	ldr	r3, [fp, #4]
30003944:	e51b0014 	ldr	r0, [fp, #-20]
30003948:	e1a01003 	mov	r1, r3
3000394c:	e51b2010 	ldr	r2, [fp, #-16]
30003950:	ebffffe2 	bl	300038e0 <vsprintf>
30003954:	e1a03000 	mov	r3, r0
30003958:	e50b300c 	str	r3, [fp, #-12]
3000395c:	e51b300c 	ldr	r3, [fp, #-12]
30003960:	e1a00003 	mov	r0, r3
30003964:	e24bd004 	sub	sp, fp, #4	; 0x4
30003968:	e8bd4800 	pop	{fp, lr}
3000396c:	e28dd00c 	add	sp, sp, #12	; 0xc
30003970:	e12fff1e 	bx	lr

30003974 <vsscanf>:
30003974:	e92d4810 	push	{r4, fp, lr}
30003978:	e28db008 	add	fp, sp, #8	; 0x8
3000397c:	e24dd074 	sub	sp, sp, #116	; 0x74
30003980:	e59f3c70 	ldr	r3, [pc, #3184]	; 300045f8 <vsscanf+0xc84>
30003984:	e50b3078 	str	r3, [fp, #-120]
30003988:	e51b3078 	ldr	r3, [fp, #-120]
3000398c:	e08f3003 	add	r3, pc, r3
30003990:	e50b3078 	str	r3, [fp, #-120]
30003994:	e50b0068 	str	r0, [fp, #-104]
30003998:	e50b106c 	str	r1, [fp, #-108]
3000399c:	e50b2070 	str	r2, [fp, #-112]
300039a0:	e51b3068 	ldr	r3, [fp, #-104]
300039a4:	e50b3060 	str	r3, [fp, #-96]
300039a8:	e3a03000 	mov	r3, #0	; 0x0
300039ac:	e50b3058 	str	r3, [fp, #-88]
300039b0:	e3a03000 	mov	r3, #0	; 0x0
300039b4:	e50b3048 	str	r3, [fp, #-72]
300039b8:	ea0002ff 	b	300045bc <vsscanf+0xc48>
300039bc:	e51b306c 	ldr	r3, [fp, #-108]
300039c0:	e5d33000 	ldrb	r3, [r3]
300039c4:	e1a02003 	mov	r2, r3
300039c8:	e59f3c2c 	ldr	r3, [pc, #3116]	; 300045fc <vsscanf+0xc88>
300039cc:	e51b1078 	ldr	r1, [fp, #-120]
300039d0:	e7913003 	ldr	r3, [r1, r3]
300039d4:	e7d33002 	ldrb	r3, [r3, r2]
300039d8:	e2033020 	and	r3, r3, #32	; 0x20
300039dc:	e3530000 	cmp	r3, #0	; 0x0
300039e0:	0a00001b 	beq	30003a54 <vsscanf+0xe0>
300039e4:	ea000002 	b	300039f4 <vsscanf+0x80>
300039e8:	e51b306c 	ldr	r3, [fp, #-108]
300039ec:	e2833001 	add	r3, r3, #1	; 0x1
300039f0:	e50b306c 	str	r3, [fp, #-108]
300039f4:	e51b306c 	ldr	r3, [fp, #-108]
300039f8:	e5d33000 	ldrb	r3, [r3]
300039fc:	e1a02003 	mov	r2, r3
30003a00:	e59f3bf4 	ldr	r3, [pc, #3060]	; 300045fc <vsscanf+0xc88>
30003a04:	e51b1078 	ldr	r1, [fp, #-120]
30003a08:	e7913003 	ldr	r3, [r1, r3]
30003a0c:	e7d33002 	ldrb	r3, [r3, r2]
30003a10:	e2033020 	and	r3, r3, #32	; 0x20
30003a14:	e3530000 	cmp	r3, #0	; 0x0
30003a18:	1afffff2 	bne	300039e8 <vsscanf+0x74>
30003a1c:	ea000002 	b	30003a2c <vsscanf+0xb8>
30003a20:	e51b3060 	ldr	r3, [fp, #-96]
30003a24:	e2833001 	add	r3, r3, #1	; 0x1
30003a28:	e50b3060 	str	r3, [fp, #-96]
30003a2c:	e51b3060 	ldr	r3, [fp, #-96]
30003a30:	e5d33000 	ldrb	r3, [r3]
30003a34:	e1a02003 	mov	r2, r3
30003a38:	e59f3bbc 	ldr	r3, [pc, #3004]	; 300045fc <vsscanf+0xc88>
30003a3c:	e51b1078 	ldr	r1, [fp, #-120]
30003a40:	e7913003 	ldr	r3, [r1, r3]
30003a44:	e7d33002 	ldrb	r3, [r3, r2]
30003a48:	e2033020 	and	r3, r3, #32	; 0x20
30003a4c:	e3530000 	cmp	r3, #0	; 0x0
30003a50:	1afffff2 	bne	30003a20 <vsscanf+0xac>
30003a54:	e51b306c 	ldr	r3, [fp, #-108]
30003a58:	e5d33000 	ldrb	r3, [r3]
30003a5c:	e3530025 	cmp	r3, #37	; 0x25
30003a60:	0a000013 	beq	30003ab4 <vsscanf+0x140>
30003a64:	e51b306c 	ldr	r3, [fp, #-108]
30003a68:	e5d33000 	ldrb	r3, [r3]
30003a6c:	e3530000 	cmp	r3, #0	; 0x0
30003a70:	0a00000f 	beq	30003ab4 <vsscanf+0x140>
30003a74:	e51b106c 	ldr	r1, [fp, #-108]
30003a78:	e5d12000 	ldrb	r2, [r1]
30003a7c:	e51b3060 	ldr	r3, [fp, #-96]
30003a80:	e5d33000 	ldrb	r3, [r3]
30003a84:	e1520003 	cmp	r2, r3
30003a88:	03a03000 	moveq	r3, #0	; 0x0
30003a8c:	13a03001 	movne	r3, #1	; 0x1
30003a90:	e20320ff 	and	r2, r3, #255	; 0xff
30003a94:	e2813001 	add	r3, r1, #1	; 0x1
30003a98:	e50b306c 	str	r3, [fp, #-108]
30003a9c:	e51b3060 	ldr	r3, [fp, #-96]
30003aa0:	e2833001 	add	r3, r3, #1	; 0x1
30003aa4:	e50b3060 	str	r3, [fp, #-96]
30003aa8:	e3520000 	cmp	r2, #0	; 0x0
30003aac:	1a0002ca 	bne	300045dc <vsscanf+0xc68>
30003ab0:	ea0002c1 	b	300045bc <vsscanf+0xc48>
30003ab4:	e51b306c 	ldr	r3, [fp, #-108]
30003ab8:	e5d33000 	ldrb	r3, [r3]
30003abc:	e3530000 	cmp	r3, #0	; 0x0
30003ac0:	0a0002c5 	beq	300045dc <vsscanf+0xc68>
30003ac4:	e51b306c 	ldr	r3, [fp, #-108]
30003ac8:	e2833001 	add	r3, r3, #1	; 0x1
30003acc:	e50b306c 	str	r3, [fp, #-108]
30003ad0:	e51b306c 	ldr	r3, [fp, #-108]
30003ad4:	e5d33000 	ldrb	r3, [r3]
30003ad8:	e353002a 	cmp	r3, #42	; 0x2a
30003adc:	1a000024 	bne	30003b74 <vsscanf+0x200>
30003ae0:	ea000002 	b	30003af0 <vsscanf+0x17c>
30003ae4:	e51b306c 	ldr	r3, [fp, #-108]
30003ae8:	e2833001 	add	r3, r3, #1	; 0x1
30003aec:	e50b306c 	str	r3, [fp, #-108]
30003af0:	e51b306c 	ldr	r3, [fp, #-108]
30003af4:	e5d33000 	ldrb	r3, [r3]
30003af8:	e1a02003 	mov	r2, r3
30003afc:	e59f3af8 	ldr	r3, [pc, #2808]	; 300045fc <vsscanf+0xc88>
30003b00:	e51b1078 	ldr	r1, [fp, #-120]
30003b04:	e7913003 	ldr	r3, [r1, r3]
30003b08:	e7d33002 	ldrb	r3, [r3, r2]
30003b0c:	e2033020 	and	r3, r3, #32	; 0x20
30003b10:	e3530000 	cmp	r3, #0	; 0x0
30003b14:	1a000007 	bne	30003b38 <vsscanf+0x1c4>
30003b18:	e51b306c 	ldr	r3, [fp, #-108]
30003b1c:	e5d33000 	ldrb	r3, [r3]
30003b20:	e3530000 	cmp	r3, #0	; 0x0
30003b24:	1affffee 	bne	30003ae4 <vsscanf+0x170>
30003b28:	ea000002 	b	30003b38 <vsscanf+0x1c4>
30003b2c:	e51b3060 	ldr	r3, [fp, #-96]
30003b30:	e2833001 	add	r3, r3, #1	; 0x1
30003b34:	e50b3060 	str	r3, [fp, #-96]
30003b38:	e51b3060 	ldr	r3, [fp, #-96]
30003b3c:	e5d33000 	ldrb	r3, [r3]
30003b40:	e1a02003 	mov	r2, r3
30003b44:	e59f3ab0 	ldr	r3, [pc, #2736]	; 300045fc <vsscanf+0xc88>
30003b48:	e51b1078 	ldr	r1, [fp, #-120]
30003b4c:	e7913003 	ldr	r3, [r1, r3]
30003b50:	e7d33002 	ldrb	r3, [r3, r2]
30003b54:	e2033020 	and	r3, r3, #32	; 0x20
30003b58:	e3530000 	cmp	r3, #0	; 0x0
30003b5c:	1a000296 	bne	300045bc <vsscanf+0xc48>
30003b60:	e51b3060 	ldr	r3, [fp, #-96]
30003b64:	e5d33000 	ldrb	r3, [r3]
30003b68:	e3530000 	cmp	r3, #0	; 0x0
30003b6c:	1affffee 	bne	30003b2c <vsscanf+0x1b8>
30003b70:	ea000291 	b	300045bc <vsscanf+0xc48>
30003b74:	e3e03000 	mvn	r3, #0	; 0x0
30003b78:	e50b304c 	str	r3, [fp, #-76]
30003b7c:	e51b306c 	ldr	r3, [fp, #-108]
30003b80:	e5d33000 	ldrb	r3, [r3]
30003b84:	e1a02003 	mov	r2, r3
30003b88:	e59f3a6c 	ldr	r3, [pc, #2668]	; 300045fc <vsscanf+0xc88>
30003b8c:	e51b1078 	ldr	r1, [fp, #-120]
30003b90:	e7913003 	ldr	r3, [r1, r3]
30003b94:	e7d33002 	ldrb	r3, [r3, r2]
30003b98:	e2033004 	and	r3, r3, #4	; 0x4
30003b9c:	e3530000 	cmp	r3, #0	; 0x0
30003ba0:	0a000004 	beq	30003bb8 <vsscanf+0x244>
30003ba4:	e24b306c 	sub	r3, fp, #108	; 0x6c
30003ba8:	e1a00003 	mov	r0, r3
30003bac:	ebfffa70 	bl	30002574 <skip_atoi>
30003bb0:	e1a03000 	mov	r3, r0
30003bb4:	e50b304c 	str	r3, [fp, #-76]
30003bb8:	e3e03000 	mvn	r3, #0	; 0x0
30003bbc:	e50b3054 	str	r3, [fp, #-84]
30003bc0:	e51b306c 	ldr	r3, [fp, #-108]
30003bc4:	e5d33000 	ldrb	r3, [r3]
30003bc8:	e3530068 	cmp	r3, #104	; 0x68
30003bcc:	0a00000f 	beq	30003c10 <vsscanf+0x29c>
30003bd0:	e51b306c 	ldr	r3, [fp, #-108]
30003bd4:	e5d33000 	ldrb	r3, [r3]
30003bd8:	e353006c 	cmp	r3, #108	; 0x6c
30003bdc:	0a00000b 	beq	30003c10 <vsscanf+0x29c>
30003be0:	e51b306c 	ldr	r3, [fp, #-108]
30003be4:	e5d33000 	ldrb	r3, [r3]
30003be8:	e353004c 	cmp	r3, #76	; 0x4c
30003bec:	0a000007 	beq	30003c10 <vsscanf+0x29c>
30003bf0:	e51b306c 	ldr	r3, [fp, #-108]
30003bf4:	e5d33000 	ldrb	r3, [r3]
30003bf8:	e353005a 	cmp	r3, #90	; 0x5a
30003bfc:	0a000003 	beq	30003c10 <vsscanf+0x29c>
30003c00:	e51b306c 	ldr	r3, [fp, #-108]
30003c04:	e5d33000 	ldrb	r3, [r3]
30003c08:	e353007a 	cmp	r3, #122	; 0x7a
30003c0c:	1a00001e 	bne	30003c8c <vsscanf+0x318>
30003c10:	e51b206c 	ldr	r2, [fp, #-108]
30003c14:	e5d23000 	ldrb	r3, [r2]
30003c18:	e50b3054 	str	r3, [fp, #-84]
30003c1c:	e2823001 	add	r3, r2, #1	; 0x1
30003c20:	e50b306c 	str	r3, [fp, #-108]
30003c24:	e51b306c 	ldr	r3, [fp, #-108]
30003c28:	e5d33000 	ldrb	r3, [r3]
30003c2c:	e1a02003 	mov	r2, r3
30003c30:	e51b3054 	ldr	r3, [fp, #-84]
30003c34:	e1520003 	cmp	r2, r3
30003c38:	13a03000 	movne	r3, #0	; 0x0
30003c3c:	03a03001 	moveq	r3, #1	; 0x1
30003c40:	e3530000 	cmp	r3, #0	; 0x0
30003c44:	0a000010 	beq	30003c8c <vsscanf+0x318>
30003c48:	e51b3054 	ldr	r3, [fp, #-84]
30003c4c:	e3530068 	cmp	r3, #104	; 0x68
30003c50:	1a000005 	bne	30003c6c <vsscanf+0x2f8>
30003c54:	e3a03048 	mov	r3, #72	; 0x48
30003c58:	e50b3054 	str	r3, [fp, #-84]
30003c5c:	e51b306c 	ldr	r3, [fp, #-108]
30003c60:	e2833001 	add	r3, r3, #1	; 0x1
30003c64:	e50b306c 	str	r3, [fp, #-108]
30003c68:	ea000007 	b	30003c8c <vsscanf+0x318>
30003c6c:	e51b3054 	ldr	r3, [fp, #-84]
30003c70:	e353006c 	cmp	r3, #108	; 0x6c
30003c74:	1a000004 	bne	30003c8c <vsscanf+0x318>
30003c78:	e3a0304c 	mov	r3, #76	; 0x4c
30003c7c:	e50b3054 	str	r3, [fp, #-84]
30003c80:	e51b306c 	ldr	r3, [fp, #-108]
30003c84:	e2833001 	add	r3, r3, #1	; 0x1
30003c88:	e50b306c 	str	r3, [fp, #-108]
30003c8c:	e3a0300a 	mov	r3, #10	; 0xa
30003c90:	e50b3050 	str	r3, [fp, #-80]
30003c94:	e3a03000 	mov	r3, #0	; 0x0
30003c98:	e50b3048 	str	r3, [fp, #-72]
30003c9c:	e51b306c 	ldr	r3, [fp, #-108]
30003ca0:	e5d33000 	ldrb	r3, [r3]
30003ca4:	e3530000 	cmp	r3, #0	; 0x0
30003ca8:	0a00024b 	beq	300045dc <vsscanf+0xc68>
30003cac:	e51b3060 	ldr	r3, [fp, #-96]
30003cb0:	e5d33000 	ldrb	r3, [r3]
30003cb4:	e3530000 	cmp	r3, #0	; 0x0
30003cb8:	0a000247 	beq	300045dc <vsscanf+0xc68>
30003cbc:	e51b206c 	ldr	r2, [fp, #-108]
30003cc0:	e5d23000 	ldrb	r3, [r2]
30003cc4:	e1a01003 	mov	r1, r3
30003cc8:	e2823001 	add	r3, r2, #1	; 0x1
30003ccc:	e50b306c 	str	r3, [fp, #-108]
30003cd0:	e2413025 	sub	r3, r1, #37	; 0x25
30003cd4:	e3530053 	cmp	r3, #83	; 0x53
30003cd8:	908ff103 	addls	pc, pc, r3, lsl #2
30003cdc:	ea0000e1 	b	30004068 <vsscanf+0x6f4>
30003ce0:	ea0000d2 	b	30004030 <vsscanf+0x6bc>
30003ce4:	ea0000df 	b	30004068 <vsscanf+0x6f4>
30003ce8:	ea0000de 	b	30004068 <vsscanf+0x6f4>
30003cec:	ea0000dd 	b	30004068 <vsscanf+0x6f4>
30003cf0:	ea0000dc 	b	30004068 <vsscanf+0x6f4>
30003cf4:	ea0000db 	b	30004068 <vsscanf+0x6f4>
30003cf8:	ea0000da 	b	30004068 <vsscanf+0x6f4>
30003cfc:	ea0000d9 	b	30004068 <vsscanf+0x6f4>
30003d00:	ea0000d8 	b	30004068 <vsscanf+0x6f4>
30003d04:	ea0000d7 	b	30004068 <vsscanf+0x6f4>
30003d08:	ea0000d6 	b	30004068 <vsscanf+0x6f4>
30003d0c:	ea0000d5 	b	30004068 <vsscanf+0x6f4>
30003d10:	ea0000d4 	b	30004068 <vsscanf+0x6f4>
30003d14:	ea0000d3 	b	30004068 <vsscanf+0x6f4>
30003d18:	ea0000d2 	b	30004068 <vsscanf+0x6f4>
30003d1c:	ea0000d1 	b	30004068 <vsscanf+0x6f4>
30003d20:	ea0000d0 	b	30004068 <vsscanf+0x6f4>
30003d24:	ea0000cf 	b	30004068 <vsscanf+0x6f4>
30003d28:	ea0000ce 	b	30004068 <vsscanf+0x6f4>
30003d2c:	ea0000cd 	b	30004068 <vsscanf+0x6f4>
30003d30:	ea0000cc 	b	30004068 <vsscanf+0x6f4>
30003d34:	ea0000cb 	b	30004068 <vsscanf+0x6f4>
30003d38:	ea0000ca 	b	30004068 <vsscanf+0x6f4>
30003d3c:	ea0000c9 	b	30004068 <vsscanf+0x6f4>
30003d40:	ea0000c8 	b	30004068 <vsscanf+0x6f4>
30003d44:	ea0000c7 	b	30004068 <vsscanf+0x6f4>
30003d48:	ea0000c6 	b	30004068 <vsscanf+0x6f4>
30003d4c:	ea0000c5 	b	30004068 <vsscanf+0x6f4>
30003d50:	ea0000c4 	b	30004068 <vsscanf+0x6f4>
30003d54:	ea0000c3 	b	30004068 <vsscanf+0x6f4>
30003d58:	ea0000c2 	b	30004068 <vsscanf+0x6f4>
30003d5c:	ea0000c1 	b	30004068 <vsscanf+0x6f4>
30003d60:	ea0000c0 	b	30004068 <vsscanf+0x6f4>
30003d64:	ea0000bf 	b	30004068 <vsscanf+0x6f4>
30003d68:	ea0000be 	b	30004068 <vsscanf+0x6f4>
30003d6c:	ea0000bd 	b	30004068 <vsscanf+0x6f4>
30003d70:	ea0000bc 	b	30004068 <vsscanf+0x6f4>
30003d74:	ea0000bb 	b	30004068 <vsscanf+0x6f4>
30003d78:	ea0000ba 	b	30004068 <vsscanf+0x6f4>
30003d7c:	ea0000b9 	b	30004068 <vsscanf+0x6f4>
30003d80:	ea0000b8 	b	30004068 <vsscanf+0x6f4>
30003d84:	ea0000b7 	b	30004068 <vsscanf+0x6f4>
30003d88:	ea0000b6 	b	30004068 <vsscanf+0x6f4>
30003d8c:	ea0000b5 	b	30004068 <vsscanf+0x6f4>
30003d90:	ea0000b4 	b	30004068 <vsscanf+0x6f4>
30003d94:	ea0000b3 	b	30004068 <vsscanf+0x6f4>
30003d98:	ea0000b2 	b	30004068 <vsscanf+0x6f4>
30003d9c:	ea0000b1 	b	30004068 <vsscanf+0x6f4>
30003da0:	ea0000b0 	b	30004068 <vsscanf+0x6f4>
30003da4:	ea0000af 	b	30004068 <vsscanf+0x6f4>
30003da8:	ea0000ae 	b	30004068 <vsscanf+0x6f4>
30003dac:	ea000097 	b	30004010 <vsscanf+0x69c>
30003db0:	ea0000ac 	b	30004068 <vsscanf+0x6f4>
30003db4:	ea0000ab 	b	30004068 <vsscanf+0x6f4>
30003db8:	ea0000aa 	b	30004068 <vsscanf+0x6f4>
30003dbc:	ea0000a9 	b	30004068 <vsscanf+0x6f4>
30003dc0:	ea0000a8 	b	30004068 <vsscanf+0x6f4>
30003dc4:	ea0000a7 	b	30004068 <vsscanf+0x6f4>
30003dc8:	ea0000a6 	b	30004068 <vsscanf+0x6f4>
30003dcc:	ea0000a5 	b	30004068 <vsscanf+0x6f4>
30003dd0:	ea0000a4 	b	30004068 <vsscanf+0x6f4>
30003dd4:	ea0000a3 	b	30004068 <vsscanf+0x6f4>
30003dd8:	ea000014 	b	30003e30 <vsscanf+0x4bc>
30003ddc:	ea000090 	b	30004024 <vsscanf+0x6b0>
30003de0:	ea0000a0 	b	30004068 <vsscanf+0x6f4>
30003de4:	ea00009f 	b	30004068 <vsscanf+0x6f4>
30003de8:	ea00009e 	b	30004068 <vsscanf+0x6f4>
30003dec:	ea00009d 	b	30004068 <vsscanf+0x6f4>
30003df0:	ea000089 	b	3000401c <vsscanf+0x6a8>
30003df4:	ea00009b 	b	30004068 <vsscanf+0x6f4>
30003df8:	ea00009a 	b	30004068 <vsscanf+0x6f4>
30003dfc:	ea000099 	b	30004068 <vsscanf+0x6f4>
30003e00:	ea000098 	b	30004068 <vsscanf+0x6f4>
30003e04:	ea000071 	b	30003fd0 <vsscanf+0x65c>
30003e08:	ea00007d 	b	30004004 <vsscanf+0x690>
30003e0c:	ea000095 	b	30004068 <vsscanf+0x6f4>
30003e10:	ea000094 	b	30004068 <vsscanf+0x6f4>
30003e14:	ea000093 	b	30004068 <vsscanf+0x6f4>
30003e18:	ea000028 	b	30003ec0 <vsscanf+0x54c>
30003e1c:	ea000091 	b	30004068 <vsscanf+0x6f4>
30003e20:	ea000096 	b	30004080 <vsscanf+0x70c>
30003e24:	ea00008f 	b	30004068 <vsscanf+0x6f4>
30003e28:	ea00008e 	b	30004068 <vsscanf+0x6f4>
30003e2c:	ea000077 	b	30004010 <vsscanf+0x69c>
30003e30:	e51b3070 	ldr	r3, [fp, #-112]
30003e34:	e2833004 	add	r3, r3, #4	; 0x4
30003e38:	e50b3070 	str	r3, [fp, #-112]
30003e3c:	e51b3070 	ldr	r3, [fp, #-112]
30003e40:	e2433004 	sub	r3, r3, #4	; 0x4
30003e44:	e5933000 	ldr	r3, [r3]
30003e48:	e50b3044 	str	r3, [fp, #-68]
30003e4c:	e51b304c 	ldr	r3, [fp, #-76]
30003e50:	e3730001 	cmn	r3, #1	; 0x1
30003e54:	1a000001 	bne	30003e60 <vsscanf+0x4ec>
30003e58:	e3a03001 	mov	r3, #1	; 0x1
30003e5c:	e50b304c 	str	r3, [fp, #-76]
30003e60:	e51b3060 	ldr	r3, [fp, #-96]
30003e64:	e5d33000 	ldrb	r3, [r3]
30003e68:	e51b2044 	ldr	r2, [fp, #-68]
30003e6c:	e5c23000 	strb	r3, [r2]
30003e70:	e51b3044 	ldr	r3, [fp, #-68]
30003e74:	e2833001 	add	r3, r3, #1	; 0x1
30003e78:	e50b3044 	str	r3, [fp, #-68]
30003e7c:	e51b3060 	ldr	r3, [fp, #-96]
30003e80:	e2833001 	add	r3, r3, #1	; 0x1
30003e84:	e50b3060 	str	r3, [fp, #-96]
30003e88:	e51b304c 	ldr	r3, [fp, #-76]
30003e8c:	e2433001 	sub	r3, r3, #1	; 0x1
30003e90:	e50b304c 	str	r3, [fp, #-76]
30003e94:	e51b304c 	ldr	r3, [fp, #-76]
30003e98:	e3530000 	cmp	r3, #0	; 0x0
30003e9c:	da000003 	ble	30003eb0 <vsscanf+0x53c>
30003ea0:	e51b3060 	ldr	r3, [fp, #-96]
30003ea4:	e5d33000 	ldrb	r3, [r3]
30003ea8:	e3530000 	cmp	r3, #0	; 0x0
30003eac:	1affffeb 	bne	30003e60 <vsscanf+0x4ec>
30003eb0:	e51b3058 	ldr	r3, [fp, #-88]
30003eb4:	e2833001 	add	r3, r3, #1	; 0x1
30003eb8:	e50b3058 	str	r3, [fp, #-88]
30003ebc:	ea0001be 	b	300045bc <vsscanf+0xc48>
30003ec0:	e51b3070 	ldr	r3, [fp, #-112]
30003ec4:	e2833004 	add	r3, r3, #4	; 0x4
30003ec8:	e50b3070 	str	r3, [fp, #-112]
30003ecc:	e51b3070 	ldr	r3, [fp, #-112]
30003ed0:	e2433004 	sub	r3, r3, #4	; 0x4
30003ed4:	e5933000 	ldr	r3, [r3]
30003ed8:	e50b3040 	str	r3, [fp, #-64]
30003edc:	e51b304c 	ldr	r3, [fp, #-76]
30003ee0:	e3730001 	cmn	r3, #1	; 0x1
30003ee4:	1a000005 	bne	30003f00 <vsscanf+0x58c>
30003ee8:	e3e03102 	mvn	r3, #-2147483648	; 0x80000000
30003eec:	e50b304c 	str	r3, [fp, #-76]
30003ef0:	ea000002 	b	30003f00 <vsscanf+0x58c>
30003ef4:	e51b3060 	ldr	r3, [fp, #-96]
30003ef8:	e2833001 	add	r3, r3, #1	; 0x1
30003efc:	e50b3060 	str	r3, [fp, #-96]
30003f00:	e51b3060 	ldr	r3, [fp, #-96]
30003f04:	e5d33000 	ldrb	r3, [r3]
30003f08:	e1a02003 	mov	r2, r3
30003f0c:	e59f36e8 	ldr	r3, [pc, #1768]	; 300045fc <vsscanf+0xc88>
30003f10:	e51b1078 	ldr	r1, [fp, #-120]
30003f14:	e7913003 	ldr	r3, [r1, r3]
30003f18:	e7d33002 	ldrb	r3, [r3, r2]
30003f1c:	e2033020 	and	r3, r3, #32	; 0x20
30003f20:	e3530000 	cmp	r3, #0	; 0x0
30003f24:	1afffff2 	bne	30003ef4 <vsscanf+0x580>
30003f28:	ea000009 	b	30003f54 <vsscanf+0x5e0>
30003f2c:	e51b3060 	ldr	r3, [fp, #-96]
30003f30:	e5d33000 	ldrb	r3, [r3]
30003f34:	e51b2040 	ldr	r2, [fp, #-64]
30003f38:	e5c23000 	strb	r3, [r2]
30003f3c:	e51b3040 	ldr	r3, [fp, #-64]
30003f40:	e2833001 	add	r3, r3, #1	; 0x1
30003f44:	e50b3040 	str	r3, [fp, #-64]
30003f48:	e51b3060 	ldr	r3, [fp, #-96]
30003f4c:	e2833001 	add	r3, r3, #1	; 0x1
30003f50:	e50b3060 	str	r3, [fp, #-96]
30003f54:	e51b3060 	ldr	r3, [fp, #-96]
30003f58:	e5d33000 	ldrb	r3, [r3]
30003f5c:	e3530000 	cmp	r3, #0	; 0x0
30003f60:	0a000013 	beq	30003fb4 <vsscanf+0x640>
30003f64:	e51b3060 	ldr	r3, [fp, #-96]
30003f68:	e5d33000 	ldrb	r3, [r3]
30003f6c:	e1a02003 	mov	r2, r3
30003f70:	e59f3684 	ldr	r3, [pc, #1668]	; 300045fc <vsscanf+0xc88>
30003f74:	e51b1078 	ldr	r1, [fp, #-120]
30003f78:	e7913003 	ldr	r3, [r1, r3]
30003f7c:	e7d33002 	ldrb	r3, [r3, r2]
30003f80:	e2033020 	and	r3, r3, #32	; 0x20
30003f84:	e3530000 	cmp	r3, #0	; 0x0
30003f88:	1a000009 	bne	30003fb4 <vsscanf+0x640>
30003f8c:	e51b304c 	ldr	r3, [fp, #-76]
30003f90:	e3530000 	cmp	r3, #0	; 0x0
30003f94:	03a03000 	moveq	r3, #0	; 0x0
30003f98:	13a03001 	movne	r3, #1	; 0x1
30003f9c:	e20320ff 	and	r2, r3, #255	; 0xff
30003fa0:	e51b304c 	ldr	r3, [fp, #-76]
30003fa4:	e2433001 	sub	r3, r3, #1	; 0x1
30003fa8:	e50b304c 	str	r3, [fp, #-76]
30003fac:	e3520000 	cmp	r2, #0	; 0x0
30003fb0:	1affffdd 	bne	30003f2c <vsscanf+0x5b8>
30003fb4:	e51b2040 	ldr	r2, [fp, #-64]
30003fb8:	e3a03000 	mov	r3, #0	; 0x0
30003fbc:	e5c23000 	strb	r3, [r2]
30003fc0:	e51b3058 	ldr	r3, [fp, #-88]
30003fc4:	e2833001 	add	r3, r3, #1	; 0x1
30003fc8:	e50b3058 	str	r3, [fp, #-88]
30003fcc:	ea00017a 	b	300045bc <vsscanf+0xc48>
30003fd0:	e51b3070 	ldr	r3, [fp, #-112]
30003fd4:	e2833004 	add	r3, r3, #4	; 0x4
30003fd8:	e50b3070 	str	r3, [fp, #-112]
30003fdc:	e51b3070 	ldr	r3, [fp, #-112]
30003fe0:	e2433004 	sub	r3, r3, #4	; 0x4
30003fe4:	e5933000 	ldr	r3, [r3]
30003fe8:	e50b303c 	str	r3, [fp, #-60]
30003fec:	e51b2060 	ldr	r2, [fp, #-96]
30003ff0:	e51b3068 	ldr	r3, [fp, #-104]
30003ff4:	e0632002 	rsb	r2, r3, r2
30003ff8:	e51b303c 	ldr	r3, [fp, #-60]
30003ffc:	e5832000 	str	r2, [r3]
30004000:	ea00016d 	b	300045bc <vsscanf+0xc48>
30004004:	e3a03008 	mov	r3, #8	; 0x8
30004008:	e50b3050 	str	r3, [fp, #-80]
3000400c:	ea00001b 	b	30004080 <vsscanf+0x70c>
30004010:	e3a03010 	mov	r3, #16	; 0x10
30004014:	e50b3050 	str	r3, [fp, #-80]
30004018:	ea000018 	b	30004080 <vsscanf+0x70c>
3000401c:	e3a03000 	mov	r3, #0	; 0x0
30004020:	e50b3050 	str	r3, [fp, #-80]
30004024:	e3a03001 	mov	r3, #1	; 0x1
30004028:	e50b3048 	str	r3, [fp, #-72]
3000402c:	ea000013 	b	30004080 <vsscanf+0x70c>
30004030:	e51b3060 	ldr	r3, [fp, #-96]
30004034:	e5d33000 	ldrb	r3, [r3]
30004038:	e3530025 	cmp	r3, #37	; 0x25
3000403c:	03a03000 	moveq	r3, #0	; 0x0
30004040:	13a03001 	movne	r3, #1	; 0x1
30004044:	e20320ff 	and	r2, r3, #255	; 0xff
30004048:	e51b3060 	ldr	r3, [fp, #-96]
3000404c:	e2833001 	add	r3, r3, #1	; 0x1
30004050:	e50b3060 	str	r3, [fp, #-96]
30004054:	e3520000 	cmp	r2, #0	; 0x0
30004058:	0a000157 	beq	300045bc <vsscanf+0xc48>
3000405c:	e51b3058 	ldr	r3, [fp, #-88]
30004060:	e50b3074 	str	r3, [fp, #-116]
30004064:	ea00015e 	b	300045e4 <vsscanf+0xc70>
30004068:	e51b1058 	ldr	r1, [fp, #-88]
3000406c:	e50b1074 	str	r1, [fp, #-116]
30004070:	ea00015b 	b	300045e4 <vsscanf+0xc70>
30004074:	e51b3060 	ldr	r3, [fp, #-96]
30004078:	e2833001 	add	r3, r3, #1	; 0x1
3000407c:	e50b3060 	str	r3, [fp, #-96]
30004080:	e51b3060 	ldr	r3, [fp, #-96]
30004084:	e5d33000 	ldrb	r3, [r3]
30004088:	e1a02003 	mov	r2, r3
3000408c:	e59f3568 	ldr	r3, [pc, #1384]	; 300045fc <vsscanf+0xc88>
30004090:	e51b1078 	ldr	r1, [fp, #-120]
30004094:	e7913003 	ldr	r3, [r1, r3]
30004098:	e7d33002 	ldrb	r3, [r3, r2]
3000409c:	e2033020 	and	r3, r3, #32	; 0x20
300040a0:	e3530000 	cmp	r3, #0	; 0x0
300040a4:	1afffff2 	bne	30004074 <vsscanf+0x700>
300040a8:	e51b3060 	ldr	r3, [fp, #-96]
300040ac:	e5d33000 	ldrb	r3, [r3]
300040b0:	e54b3059 	strb	r3, [fp, #-89]
300040b4:	e51b3048 	ldr	r3, [fp, #-72]
300040b8:	e3530000 	cmp	r3, #0	; 0x0
300040bc:	0a000006 	beq	300040dc <vsscanf+0x768>
300040c0:	e55b3059 	ldrb	r3, [fp, #-89]
300040c4:	e353002d 	cmp	r3, #45	; 0x2d
300040c8:	1a000003 	bne	300040dc <vsscanf+0x768>
300040cc:	e51b3060 	ldr	r3, [fp, #-96]
300040d0:	e2833001 	add	r3, r3, #1	; 0x1
300040d4:	e5d33000 	ldrb	r3, [r3]
300040d8:	e54b3059 	strb	r3, [fp, #-89]
300040dc:	e55b3059 	ldrb	r3, [fp, #-89]
300040e0:	e3530000 	cmp	r3, #0	; 0x0
300040e4:	0a00013c 	beq	300045dc <vsscanf+0xc68>
300040e8:	e51b3050 	ldr	r3, [fp, #-80]
300040ec:	e3530010 	cmp	r3, #16	; 0x10
300040f0:	1a000007 	bne	30004114 <vsscanf+0x7a0>
300040f4:	e55b2059 	ldrb	r2, [fp, #-89]
300040f8:	e59f34fc 	ldr	r3, [pc, #1276]	; 300045fc <vsscanf+0xc88>
300040fc:	e51b1078 	ldr	r1, [fp, #-120]
30004100:	e7913003 	ldr	r3, [r1, r3]
30004104:	e7d33002 	ldrb	r3, [r3, r2]
30004108:	e2033044 	and	r3, r3, #68	; 0x44
3000410c:	e3530000 	cmp	r3, #0	; 0x0
30004110:	0a000131 	beq	300045dc <vsscanf+0xc68>
30004114:	e51b3050 	ldr	r3, [fp, #-80]
30004118:	e353000a 	cmp	r3, #10	; 0xa
3000411c:	1a000007 	bne	30004140 <vsscanf+0x7cc>
30004120:	e55b2059 	ldrb	r2, [fp, #-89]
30004124:	e59f34d0 	ldr	r3, [pc, #1232]	; 300045fc <vsscanf+0xc88>
30004128:	e51b1078 	ldr	r1, [fp, #-120]
3000412c:	e7913003 	ldr	r3, [r1, r3]
30004130:	e7d33002 	ldrb	r3, [r3, r2]
30004134:	e2033004 	and	r3, r3, #4	; 0x4
30004138:	e3530000 	cmp	r3, #0	; 0x0
3000413c:	0a000126 	beq	300045dc <vsscanf+0xc68>
30004140:	e51b3050 	ldr	r3, [fp, #-80]
30004144:	e3530008 	cmp	r3, #8	; 0x8
30004148:	1a00000a 	bne	30004178 <vsscanf+0x804>
3000414c:	e55b2059 	ldrb	r2, [fp, #-89]
30004150:	e59f34a4 	ldr	r3, [pc, #1188]	; 300045fc <vsscanf+0xc88>
30004154:	e51b1078 	ldr	r1, [fp, #-120]
30004158:	e7913003 	ldr	r3, [r1, r3]
3000415c:	e7d33002 	ldrb	r3, [r3, r2]
30004160:	e2033004 	and	r3, r3, #4	; 0x4
30004164:	e3530000 	cmp	r3, #0	; 0x0
30004168:	0a00011b 	beq	300045dc <vsscanf+0xc68>
3000416c:	e55b3059 	ldrb	r3, [fp, #-89]
30004170:	e3530037 	cmp	r3, #55	; 0x37
30004174:	8a000118 	bhi	300045dc <vsscanf+0xc68>
30004178:	e51b3050 	ldr	r3, [fp, #-80]
3000417c:	e3530000 	cmp	r3, #0	; 0x0
30004180:	1a000007 	bne	300041a4 <vsscanf+0x830>
30004184:	e55b2059 	ldrb	r2, [fp, #-89]
30004188:	e59f346c 	ldr	r3, [pc, #1132]	; 300045fc <vsscanf+0xc88>
3000418c:	e51b1078 	ldr	r1, [fp, #-120]
30004190:	e7913003 	ldr	r3, [r1, r3]
30004194:	e7d33002 	ldrb	r3, [r3, r2]
30004198:	e2033004 	and	r3, r3, #4	; 0x4
3000419c:	e3530000 	cmp	r3, #0	; 0x0
300041a0:	0a00010d 	beq	300045dc <vsscanf+0xc68>
300041a4:	e51b3054 	ldr	r3, [fp, #-84]
300041a8:	e2433048 	sub	r3, r3, #72	; 0x48
300041ac:	e3530032 	cmp	r3, #50	; 0x32
300041b0:	908ff103 	addls	pc, pc, r3, lsl #2
300041b4:	ea0000d6 	b	30004514 <vsscanf+0xba0>
300041b8:	ea000031 	b	30004284 <vsscanf+0x910>
300041bc:	ea0000d4 	b	30004514 <vsscanf+0xba0>
300041c0:	ea0000d3 	b	30004514 <vsscanf+0xba0>
300041c4:	ea0000d2 	b	30004514 <vsscanf+0xba0>
300041c8:	ea00009c 	b	30004440 <vsscanf+0xacc>
300041cc:	ea0000d0 	b	30004514 <vsscanf+0xba0>
300041d0:	ea0000cf 	b	30004514 <vsscanf+0xba0>
300041d4:	ea0000ce 	b	30004514 <vsscanf+0xba0>
300041d8:	ea0000cd 	b	30004514 <vsscanf+0xba0>
300041dc:	ea0000cc 	b	30004514 <vsscanf+0xba0>
300041e0:	ea0000cb 	b	30004514 <vsscanf+0xba0>
300041e4:	ea0000ca 	b	30004514 <vsscanf+0xba0>
300041e8:	ea0000c9 	b	30004514 <vsscanf+0xba0>
300041ec:	ea0000c8 	b	30004514 <vsscanf+0xba0>
300041f0:	ea0000c7 	b	30004514 <vsscanf+0xba0>
300041f4:	ea0000c6 	b	30004514 <vsscanf+0xba0>
300041f8:	ea0000c5 	b	30004514 <vsscanf+0xba0>
300041fc:	ea0000c4 	b	30004514 <vsscanf+0xba0>
30004200:	ea0000b3 	b	300044d4 <vsscanf+0xb60>
30004204:	ea0000c2 	b	30004514 <vsscanf+0xba0>
30004208:	ea0000c1 	b	30004514 <vsscanf+0xba0>
3000420c:	ea0000c0 	b	30004514 <vsscanf+0xba0>
30004210:	ea0000bf 	b	30004514 <vsscanf+0xba0>
30004214:	ea0000be 	b	30004514 <vsscanf+0xba0>
30004218:	ea0000bd 	b	30004514 <vsscanf+0xba0>
3000421c:	ea0000bc 	b	30004514 <vsscanf+0xba0>
30004220:	ea0000bb 	b	30004514 <vsscanf+0xba0>
30004224:	ea0000ba 	b	30004514 <vsscanf+0xba0>
30004228:	ea0000b9 	b	30004514 <vsscanf+0xba0>
3000422c:	ea0000b8 	b	30004514 <vsscanf+0xba0>
30004230:	ea0000b7 	b	30004514 <vsscanf+0xba0>
30004234:	ea0000b6 	b	30004514 <vsscanf+0xba0>
30004238:	ea000036 	b	30004318 <vsscanf+0x9a4>
3000423c:	ea0000b4 	b	30004514 <vsscanf+0xba0>
30004240:	ea0000b3 	b	30004514 <vsscanf+0xba0>
30004244:	ea0000b2 	b	30004514 <vsscanf+0xba0>
30004248:	ea000059 	b	300043b4 <vsscanf+0xa40>
3000424c:	ea0000b0 	b	30004514 <vsscanf+0xba0>
30004250:	ea0000af 	b	30004514 <vsscanf+0xba0>
30004254:	ea0000ae 	b	30004514 <vsscanf+0xba0>
30004258:	ea0000ad 	b	30004514 <vsscanf+0xba0>
3000425c:	ea0000ac 	b	30004514 <vsscanf+0xba0>
30004260:	ea0000ab 	b	30004514 <vsscanf+0xba0>
30004264:	ea0000aa 	b	30004514 <vsscanf+0xba0>
30004268:	ea0000a9 	b	30004514 <vsscanf+0xba0>
3000426c:	ea0000a8 	b	30004514 <vsscanf+0xba0>
30004270:	ea0000a7 	b	30004514 <vsscanf+0xba0>
30004274:	ea0000a6 	b	30004514 <vsscanf+0xba0>
30004278:	ea0000a5 	b	30004514 <vsscanf+0xba0>
3000427c:	ea0000a4 	b	30004514 <vsscanf+0xba0>
30004280:	ea000093 	b	300044d4 <vsscanf+0xb60>
30004284:	e51b3048 	ldr	r3, [fp, #-72]
30004288:	e3530000 	cmp	r3, #0	; 0x0
3000428c:	0a000010 	beq	300042d4 <vsscanf+0x960>
30004290:	e51b3070 	ldr	r3, [fp, #-112]
30004294:	e2833004 	add	r3, r3, #4	; 0x4
30004298:	e50b3070 	str	r3, [fp, #-112]
3000429c:	e51b3070 	ldr	r3, [fp, #-112]
300042a0:	e2433004 	sub	r3, r3, #4	; 0x4
300042a4:	e5933000 	ldr	r3, [r3]
300042a8:	e50b3038 	str	r3, [fp, #-56]
300042ac:	e51b2050 	ldr	r2, [fp, #-80]
300042b0:	e24b3064 	sub	r3, fp, #100	; 0x64
300042b4:	e51b0060 	ldr	r0, [fp, #-96]
300042b8:	e1a01003 	mov	r1, r3
300042bc:	ebfff7b0 	bl	30002184 <simple_strtol>
300042c0:	e1a03000 	mov	r3, r0
300042c4:	e20330ff 	and	r3, r3, #255	; 0xff
300042c8:	e51b2038 	ldr	r2, [fp, #-56]
300042cc:	e5c23000 	strb	r3, [r2]
300042d0:	ea0000b1 	b	3000459c <vsscanf+0xc28>
300042d4:	e51b3070 	ldr	r3, [fp, #-112]
300042d8:	e2833004 	add	r3, r3, #4	; 0x4
300042dc:	e50b3070 	str	r3, [fp, #-112]
300042e0:	e51b3070 	ldr	r3, [fp, #-112]
300042e4:	e2433004 	sub	r3, r3, #4	; 0x4
300042e8:	e5933000 	ldr	r3, [r3]
300042ec:	e50b3034 	str	r3, [fp, #-52]
300042f0:	e51b2050 	ldr	r2, [fp, #-80]
300042f4:	e24b3064 	sub	r3, fp, #100	; 0x64
300042f8:	e51b0060 	ldr	r0, [fp, #-96]
300042fc:	e1a01003 	mov	r1, r3
30004300:	ebfff705 	bl	30001f1c <simple_strtoul>
30004304:	e1a03000 	mov	r3, r0
30004308:	e20330ff 	and	r3, r3, #255	; 0xff
3000430c:	e51b2034 	ldr	r2, [fp, #-52]
30004310:	e5c23000 	strb	r3, [r2]
30004314:	ea0000a0 	b	3000459c <vsscanf+0xc28>
30004318:	e51b3048 	ldr	r3, [fp, #-72]
3000431c:	e3530000 	cmp	r3, #0	; 0x0
30004320:	0a000011 	beq	3000436c <vsscanf+0x9f8>
30004324:	e51b3070 	ldr	r3, [fp, #-112]
30004328:	e2833004 	add	r3, r3, #4	; 0x4
3000432c:	e50b3070 	str	r3, [fp, #-112]
30004330:	e51b3070 	ldr	r3, [fp, #-112]
30004334:	e2433004 	sub	r3, r3, #4	; 0x4
30004338:	e5933000 	ldr	r3, [r3]
3000433c:	e50b3030 	str	r3, [fp, #-48]
30004340:	e51b2050 	ldr	r2, [fp, #-80]
30004344:	e24b3064 	sub	r3, fp, #100	; 0x64
30004348:	e51b0060 	ldr	r0, [fp, #-96]
3000434c:	e1a01003 	mov	r1, r3
30004350:	ebfff78b 	bl	30002184 <simple_strtol>
30004354:	e1a03000 	mov	r3, r0
30004358:	e1a03803 	lsl	r3, r3, #16
3000435c:	e1a02823 	lsr	r2, r3, #16
30004360:	e51b3030 	ldr	r3, [fp, #-48]
30004364:	e1c320b0 	strh	r2, [r3]
30004368:	ea00008b 	b	3000459c <vsscanf+0xc28>
3000436c:	e51b3070 	ldr	r3, [fp, #-112]
30004370:	e2833004 	add	r3, r3, #4	; 0x4
30004374:	e50b3070 	str	r3, [fp, #-112]
30004378:	e51b3070 	ldr	r3, [fp, #-112]
3000437c:	e2433004 	sub	r3, r3, #4	; 0x4
30004380:	e5933000 	ldr	r3, [r3]
30004384:	e50b302c 	str	r3, [fp, #-44]
30004388:	e51b2050 	ldr	r2, [fp, #-80]
3000438c:	e24b3064 	sub	r3, fp, #100	; 0x64
30004390:	e51b0060 	ldr	r0, [fp, #-96]
30004394:	e1a01003 	mov	r1, r3
30004398:	ebfff6df 	bl	30001f1c <simple_strtoul>
3000439c:	e1a03000 	mov	r3, r0
300043a0:	e1a03803 	lsl	r3, r3, #16
300043a4:	e1a02823 	lsr	r2, r3, #16
300043a8:	e51b302c 	ldr	r3, [fp, #-44]
300043ac:	e1c320b0 	strh	r2, [r3]
300043b0:	ea000079 	b	3000459c <vsscanf+0xc28>
300043b4:	e51b3048 	ldr	r3, [fp, #-72]
300043b8:	e3530000 	cmp	r3, #0	; 0x0
300043bc:	0a00000f 	beq	30004400 <vsscanf+0xa8c>
300043c0:	e51b3070 	ldr	r3, [fp, #-112]
300043c4:	e2833004 	add	r3, r3, #4	; 0x4
300043c8:	e50b3070 	str	r3, [fp, #-112]
300043cc:	e51b3070 	ldr	r3, [fp, #-112]
300043d0:	e2433004 	sub	r3, r3, #4	; 0x4
300043d4:	e5933000 	ldr	r3, [r3]
300043d8:	e50b3028 	str	r3, [fp, #-40]
300043dc:	e51b2050 	ldr	r2, [fp, #-80]
300043e0:	e24b3064 	sub	r3, fp, #100	; 0x64
300043e4:	e51b0060 	ldr	r0, [fp, #-96]
300043e8:	e1a01003 	mov	r1, r3
300043ec:	ebfff764 	bl	30002184 <simple_strtol>
300043f0:	e1a02000 	mov	r2, r0
300043f4:	e51b3028 	ldr	r3, [fp, #-40]
300043f8:	e5832000 	str	r2, [r3]
300043fc:	ea000066 	b	3000459c <vsscanf+0xc28>
30004400:	e51b3070 	ldr	r3, [fp, #-112]
30004404:	e2833004 	add	r3, r3, #4	; 0x4
30004408:	e50b3070 	str	r3, [fp, #-112]
3000440c:	e51b3070 	ldr	r3, [fp, #-112]
30004410:	e2433004 	sub	r3, r3, #4	; 0x4
30004414:	e5933000 	ldr	r3, [r3]
30004418:	e50b3024 	str	r3, [fp, #-36]
3000441c:	e51b2050 	ldr	r2, [fp, #-80]
30004420:	e24b3064 	sub	r3, fp, #100	; 0x64
30004424:	e51b0060 	ldr	r0, [fp, #-96]
30004428:	e1a01003 	mov	r1, r3
3000442c:	ebfff6ba 	bl	30001f1c <simple_strtoul>
30004430:	e1a02000 	mov	r2, r0
30004434:	e51b3024 	ldr	r3, [fp, #-36]
30004438:	e5832000 	str	r2, [r3]
3000443c:	ea000056 	b	3000459c <vsscanf+0xc28>
30004440:	e51b3048 	ldr	r3, [fp, #-72]
30004444:	e3530000 	cmp	r3, #0	; 0x0
30004448:	0a000010 	beq	30004490 <vsscanf+0xb1c>
3000444c:	e51b3070 	ldr	r3, [fp, #-112]
30004450:	e2833004 	add	r3, r3, #4	; 0x4
30004454:	e50b3070 	str	r3, [fp, #-112]
30004458:	e51b3070 	ldr	r3, [fp, #-112]
3000445c:	e2433004 	sub	r3, r3, #4	; 0x4
30004460:	e5933000 	ldr	r3, [r3]
30004464:	e50b3020 	str	r3, [fp, #-32]
30004468:	e51b2050 	ldr	r2, [fp, #-80]
3000446c:	e24b3064 	sub	r3, fp, #100	; 0x64
30004470:	e51b0060 	ldr	r0, [fp, #-96]
30004474:	e1a01003 	mov	r1, r3
30004478:	ebfff817 	bl	300024dc <simple_strtoll>
3000447c:	e1a03000 	mov	r3, r0
30004480:	e1a04001 	mov	r4, r1
30004484:	e51b2020 	ldr	r2, [fp, #-32]
30004488:	e8820018 	stm	r2, {r3, r4}
3000448c:	ea000042 	b	3000459c <vsscanf+0xc28>
30004490:	e51b3070 	ldr	r3, [fp, #-112]
30004494:	e2833004 	add	r3, r3, #4	; 0x4
30004498:	e50b3070 	str	r3, [fp, #-112]
3000449c:	e51b3070 	ldr	r3, [fp, #-112]
300044a0:	e2433004 	sub	r3, r3, #4	; 0x4
300044a4:	e5933000 	ldr	r3, [r3]
300044a8:	e50b301c 	str	r3, [fp, #-28]
300044ac:	e51b2050 	ldr	r2, [fp, #-80]
300044b0:	e24b3064 	sub	r3, fp, #100	; 0x64
300044b4:	e51b0060 	ldr	r0, [fp, #-96]
300044b8:	e1a01003 	mov	r1, r3
300044bc:	ebfff74f 	bl	30002200 <simple_strtoull>
300044c0:	e1a03000 	mov	r3, r0
300044c4:	e1a04001 	mov	r4, r1
300044c8:	e51b201c 	ldr	r2, [fp, #-28]
300044cc:	e8820018 	stm	r2, {r3, r4}
300044d0:	ea000031 	b	3000459c <vsscanf+0xc28>
300044d4:	e51b3070 	ldr	r3, [fp, #-112]
300044d8:	e2833004 	add	r3, r3, #4	; 0x4
300044dc:	e50b3070 	str	r3, [fp, #-112]
300044e0:	e51b3070 	ldr	r3, [fp, #-112]
300044e4:	e2433004 	sub	r3, r3, #4	; 0x4
300044e8:	e5933000 	ldr	r3, [r3]
300044ec:	e50b3018 	str	r3, [fp, #-24]
300044f0:	e51b2050 	ldr	r2, [fp, #-80]
300044f4:	e24b3064 	sub	r3, fp, #100	; 0x64
300044f8:	e51b0060 	ldr	r0, [fp, #-96]
300044fc:	e1a01003 	mov	r1, r3
30004500:	ebfff685 	bl	30001f1c <simple_strtoul>
30004504:	e1a02000 	mov	r2, r0
30004508:	e51b3018 	ldr	r3, [fp, #-24]
3000450c:	e5832000 	str	r2, [r3]
30004510:	ea000021 	b	3000459c <vsscanf+0xc28>
30004514:	e51b3048 	ldr	r3, [fp, #-72]
30004518:	e3530000 	cmp	r3, #0	; 0x0
3000451c:	0a00000f 	beq	30004560 <vsscanf+0xbec>
30004520:	e51b3070 	ldr	r3, [fp, #-112]
30004524:	e2833004 	add	r3, r3, #4	; 0x4
30004528:	e50b3070 	str	r3, [fp, #-112]
3000452c:	e51b3070 	ldr	r3, [fp, #-112]
30004530:	e2433004 	sub	r3, r3, #4	; 0x4
30004534:	e5933000 	ldr	r3, [r3]
30004538:	e50b3014 	str	r3, [fp, #-20]
3000453c:	e51b2050 	ldr	r2, [fp, #-80]
30004540:	e24b3064 	sub	r3, fp, #100	; 0x64
30004544:	e51b0060 	ldr	r0, [fp, #-96]
30004548:	e1a01003 	mov	r1, r3
3000454c:	ebfff70c 	bl	30002184 <simple_strtol>
30004550:	e1a02000 	mov	r2, r0
30004554:	e51b3014 	ldr	r3, [fp, #-20]
30004558:	e5832000 	str	r2, [r3]
3000455c:	ea00000e 	b	3000459c <vsscanf+0xc28>
30004560:	e51b3070 	ldr	r3, [fp, #-112]
30004564:	e2833004 	add	r3, r3, #4	; 0x4
30004568:	e50b3070 	str	r3, [fp, #-112]
3000456c:	e51b3070 	ldr	r3, [fp, #-112]
30004570:	e2433004 	sub	r3, r3, #4	; 0x4
30004574:	e5933000 	ldr	r3, [r3]
30004578:	e50b3010 	str	r3, [fp, #-16]
3000457c:	e51b2050 	ldr	r2, [fp, #-80]
30004580:	e24b3064 	sub	r3, fp, #100	; 0x64
30004584:	e51b0060 	ldr	r0, [fp, #-96]
30004588:	e1a01003 	mov	r1, r3
3000458c:	ebfff662 	bl	30001f1c <simple_strtoul>
30004590:	e1a02000 	mov	r2, r0
30004594:	e51b3010 	ldr	r3, [fp, #-16]
30004598:	e5832000 	str	r2, [r3]
3000459c:	e51b3058 	ldr	r3, [fp, #-88]
300045a0:	e2833001 	add	r3, r3, #1	; 0x1
300045a4:	e50b3058 	str	r3, [fp, #-88]
300045a8:	e51b3064 	ldr	r3, [fp, #-100]
300045ac:	e3530000 	cmp	r3, #0	; 0x0
300045b0:	0a000009 	beq	300045dc <vsscanf+0xc68>
300045b4:	e51b3064 	ldr	r3, [fp, #-100]
300045b8:	e50b3060 	str	r3, [fp, #-96]
300045bc:	e51b306c 	ldr	r3, [fp, #-108]
300045c0:	e5d33000 	ldrb	r3, [r3]
300045c4:	e3530000 	cmp	r3, #0	; 0x0
300045c8:	0a000003 	beq	300045dc <vsscanf+0xc68>
300045cc:	e51b3060 	ldr	r3, [fp, #-96]
300045d0:	e5d33000 	ldrb	r3, [r3]
300045d4:	e3530000 	cmp	r3, #0	; 0x0
300045d8:	1afffcf7 	bne	300039bc <vsscanf+0x48>
300045dc:	e51b3058 	ldr	r3, [fp, #-88]
300045e0:	e50b3074 	str	r3, [fp, #-116]
300045e4:	e51b3074 	ldr	r3, [fp, #-116]
300045e8:	e1a00003 	mov	r0, r3
300045ec:	e24bd008 	sub	sp, fp, #8	; 0x8
300045f0:	e8bd4810 	pop	{r4, fp, lr}
300045f4:	e12fff1e 	bx	lr
300045f8:	cfffc66c 	.word	0xcfffc66c
300045fc:	0000058c 	.word	0x0000058c

30004600 <sscanf>:
30004600:	e92d000e 	push	{r1, r2, r3}
30004604:	e92d4800 	push	{fp, lr}
30004608:	e28db004 	add	fp, sp, #4	; 0x4
3000460c:	e24dd014 	sub	sp, sp, #20	; 0x14
30004610:	e50b0014 	str	r0, [fp, #-20]
30004614:	e28b3004 	add	r3, fp, #4	; 0x4
30004618:	e2833004 	add	r3, r3, #4	; 0x4
3000461c:	e50b3010 	str	r3, [fp, #-16]
30004620:	e59b3004 	ldr	r3, [fp, #4]
30004624:	e51b0014 	ldr	r0, [fp, #-20]
30004628:	e1a01003 	mov	r1, r3
3000462c:	e51b2010 	ldr	r2, [fp, #-16]
30004630:	ebfffccf 	bl	30003974 <vsscanf>
30004634:	e1a03000 	mov	r3, r0
30004638:	e50b300c 	str	r3, [fp, #-12]
3000463c:	e51b300c 	ldr	r3, [fp, #-12]
30004640:	e1a00003 	mov	r0, r3
30004644:	e24bd004 	sub	sp, fp, #4	; 0x4
30004648:	e8bd4800 	pop	{fp, lr}
3000464c:	e28dd00c 	add	sp, sp, #12	; 0xc
30004650:	e12fff1e 	bx	lr
	...

30004660 <__do_div64>:
30004660:	e254c001 	subs	ip, r4, #1	; 0x1
30004664:	9a00003f 	bls	30004768 <__do_div64+0x108>
30004668:	e11c0004 	tst	ip, r4
3000466c:	0a000028 	beq	30004714 <__do_div64+0xb4>
30004670:	e1510004 	cmp	r1, r4
30004674:	e3a03000 	mov	r3, #0	; 0x0
30004678:	3a00000c 	bcc	300046b0 <__do_div64+0x50>
3000467c:	e1a02004 	mov	r2, r4
30004680:	e3a0c001 	mov	ip, #1	; 0x1
30004684:	e3520102 	cmp	r2, #-2147483648	; 0x80000000
30004688:	31520001 	cmpcc	r2, r1
3000468c:	31a02082 	lslcc	r2, r2, #1
30004690:	31a0c08c 	lslcc	ip, ip, #1
30004694:	3afffffa 	bcc	30004684 <__do_div64+0x24>
30004698:	e1510002 	cmp	r1, r2
3000469c:	2183300c 	orrcs	r3, r3, ip
300046a0:	20511002 	subscs	r1, r1, r2
300046a4:	11b0c0ac 	lsrsne	ip, ip, #1
300046a8:	e1a020a2 	lsr	r2, r2, #1
300046ac:	1afffff9 	bne	30004698 <__do_div64+0x38>
300046b0:	e3510000 	cmp	r1, #0	; 0x0
300046b4:	e3a02000 	mov	r2, #0	; 0x0
300046b8:	01500004 	cmpeq	r0, r4
300046bc:	31a01000 	movcc	r1, r0
300046c0:	31a0f00e 	movcc	pc, lr
300046c4:	e3a0c102 	mov	ip, #-2147483648	; 0x80000000
300046c8:	e1b00080 	lsls	r0, r0, #1
300046cc:	e0b11001 	adcs	r1, r1, r1
300046d0:	0a000005 	beq	300046ec <__do_div64+0x8c>
300046d4:	31510004 	cmpcc	r1, r4
300046d8:	2182200c 	orrcs	r2, r2, ip
300046dc:	20411004 	subcs	r1, r1, r4
300046e0:	e1b0c0ac 	lsrs	ip, ip, #1
300046e4:	1afffff7 	bne	300046c8 <__do_div64+0x68>
300046e8:	e1a0f00e 	mov	pc, lr
300046ec:	2afffff9 	bcs	300046d8 <__do_div64+0x78>
300046f0:	e3500000 	cmp	r0, #0	; 0x0
300046f4:	01a0f00e 	moveq	pc, lr
300046f8:	e1b00080 	lsls	r0, r0, #1
300046fc:	e1a0c0ac 	lsr	ip, ip, #1
30004700:	3afffffc 	bcc	300046f8 <__do_div64+0x98>
30004704:	e1b0c0ac 	lsrs	ip, ip, #1
30004708:	e3a01001 	mov	r1, #1	; 0x1
3000470c:	1affffed 	bne	300046c8 <__do_div64+0x68>
30004710:	e1a0f00e 	mov	pc, lr
30004714:	e1a02004 	mov	r2, r4
30004718:	e3540801 	cmp	r4, #65536	; 0x10000
3000471c:	e3a0c000 	mov	ip, #0	; 0x0
30004720:	21a02822 	lsrcs	r2, r2, #16
30004724:	23a0c010 	movcs	ip, #16	; 0x10
30004728:	e3520c01 	cmp	r2, #256	; 0x100
3000472c:	21a02422 	lsrcs	r2, r2, #8
30004730:	228cc008 	addcs	ip, ip, #8	; 0x8
30004734:	e3520010 	cmp	r2, #16	; 0x10
30004738:	21a02222 	lsrcs	r2, r2, #4
3000473c:	228cc004 	addcs	ip, ip, #4	; 0x4
30004740:	e3520004 	cmp	r2, #4	; 0x4
30004744:	828cc003 	addhi	ip, ip, #3	; 0x3
30004748:	908cc0a2 	addls	ip, ip, r2, lsr #1
3000474c:	e1a03c31 	lsr	r3, r1, ip
30004750:	e1a02c30 	lsr	r2, r0, ip
30004754:	e26cc020 	rsb	ip, ip, #32	; 0x20
30004758:	e1822c11 	orr	r2, r2, r1, lsl ip
3000475c:	e1a01c10 	lsl	r1, r0, ip
30004760:	e1a01c31 	lsr	r1, r1, ip
30004764:	e1a0f00e 	mov	pc, lr
30004768:	01a02000 	moveq	r2, r0
3000476c:	01a03001 	moveq	r3, r1
30004770:	03a01000 	moveq	r1, #0	; 0x0
30004774:	01a0f00e 	moveq	pc, lr
30004778:	e52de004 	push	{lr}		; (str lr, [sp, #-4]!)
3000477c:	e3a02000 	mov	r2, #0	; 0x0
30004780:	e3a03000 	mov	r3, #0	; 0x0
30004784:	e3a01000 	mov	r1, #0	; 0x0
30004788:	e49df004 	pop	{pc}		; (ldr pc, [sp], #4)
3000478c:	e1a00000 	nop			(mov r0,r0)

30004790 <__udivsi3>:
30004790:	e2512001 	subs	r2, r1, #1	; 0x1
30004794:	01a0f00e 	moveq	pc, lr
30004798:	3a0000e5 	bcc	30004b34 <Ldiv0>
3000479c:	e1500001 	cmp	r0, r1
300047a0:	9a000022 	bls	30004830 <__udivsi3+0xa0>
300047a4:	e1110002 	tst	r1, r2
300047a8:	0a000023 	beq	3000483c <__udivsi3+0xac>
300047ac:	e311020e 	tst	r1, #-536870912	; 0xe0000000
300047b0:	01a01181 	lsleq	r1, r1, #3
300047b4:	03a03008 	moveq	r3, #8	; 0x8
300047b8:	13a03001 	movne	r3, #1	; 0x1
300047bc:	e3510201 	cmp	r1, #268435456	; 0x10000000
300047c0:	31510000 	cmpcc	r1, r0
300047c4:	31a01201 	lslcc	r1, r1, #4
300047c8:	31a03203 	lslcc	r3, r3, #4
300047cc:	3afffffa 	bcc	300047bc <__udivsi3+0x2c>
300047d0:	e3510102 	cmp	r1, #-2147483648	; 0x80000000
300047d4:	31510000 	cmpcc	r1, r0
300047d8:	31a01081 	lslcc	r1, r1, #1
300047dc:	31a03083 	lslcc	r3, r3, #1
300047e0:	3afffffa 	bcc	300047d0 <__udivsi3+0x40>
300047e4:	e3a02000 	mov	r2, #0	; 0x0
300047e8:	e1500001 	cmp	r0, r1
300047ec:	20400001 	subcs	r0, r0, r1
300047f0:	21822003 	orrcs	r2, r2, r3
300047f4:	e15000a1 	cmp	r0, r1, lsr #1
300047f8:	204000a1 	subcs	r0, r0, r1, lsr #1
300047fc:	218220a3 	orrcs	r2, r2, r3, lsr #1
30004800:	e1500121 	cmp	r0, r1, lsr #2
30004804:	20400121 	subcs	r0, r0, r1, lsr #2
30004808:	21822123 	orrcs	r2, r2, r3, lsr #2
3000480c:	e15001a1 	cmp	r0, r1, lsr #3
30004810:	204001a1 	subcs	r0, r0, r1, lsr #3
30004814:	218221a3 	orrcs	r2, r2, r3, lsr #3
30004818:	e3500000 	cmp	r0, #0	; 0x0
3000481c:	11b03223 	lsrsne	r3, r3, #4
30004820:	11a01221 	lsrne	r1, r1, #4
30004824:	1affffef 	bne	300047e8 <__udivsi3+0x58>
30004828:	e1a00002 	mov	r0, r2
3000482c:	e1a0f00e 	mov	pc, lr
30004830:	03a00001 	moveq	r0, #1	; 0x1
30004834:	13a00000 	movne	r0, #0	; 0x0
30004838:	e1a0f00e 	mov	pc, lr
3000483c:	e3510801 	cmp	r1, #65536	; 0x10000
30004840:	21a01821 	lsrcs	r1, r1, #16
30004844:	23a02010 	movcs	r2, #16	; 0x10
30004848:	33a02000 	movcc	r2, #0	; 0x0
3000484c:	e3510c01 	cmp	r1, #256	; 0x100
30004850:	21a01421 	lsrcs	r1, r1, #8
30004854:	22822008 	addcs	r2, r2, #8	; 0x8
30004858:	e3510010 	cmp	r1, #16	; 0x10
3000485c:	21a01221 	lsrcs	r1, r1, #4
30004860:	22822004 	addcs	r2, r2, #4	; 0x4
30004864:	e3510004 	cmp	r1, #4	; 0x4
30004868:	82822003 	addhi	r2, r2, #3	; 0x3
3000486c:	908220a1 	addls	r2, r2, r1, lsr #1
30004870:	e1a00230 	lsr	r0, r0, r2
30004874:	e1a0f00e 	mov	pc, lr
30004878:	90909090 	.word	0x90909090
3000487c:	90909090 	.word	0x90909090

30004880 <__umodsi3>:
30004880:	e2512001 	subs	r2, r1, #1	; 0x1
30004884:	3a0000aa 	bcc	30004b34 <Ldiv0>
30004888:	11500001 	cmpne	r0, r1
3000488c:	03a00000 	moveq	r0, #0	; 0x0
30004890:	81110002 	tsthi	r1, r2
30004894:	00000002 	andeq	r0, r0, r2
30004898:	91a0f00e 	movls	pc, lr
3000489c:	e3a02000 	mov	r2, #0	; 0x0
300048a0:	e3510201 	cmp	r1, #268435456	; 0x10000000
300048a4:	31510000 	cmpcc	r1, r0
300048a8:	31a01201 	lslcc	r1, r1, #4
300048ac:	32822004 	addcc	r2, r2, #4	; 0x4
300048b0:	3afffffa 	bcc	300048a0 <__umodsi3+0x20>
300048b4:	e3510102 	cmp	r1, #-2147483648	; 0x80000000
300048b8:	31510000 	cmpcc	r1, r0
300048bc:	31a01081 	lslcc	r1, r1, #1
300048c0:	32822001 	addcc	r2, r2, #1	; 0x1
300048c4:	3afffffa 	bcc	300048b4 <__umodsi3+0x34>
300048c8:	e2522003 	subs	r2, r2, #3	; 0x3
300048cc:	ba00000e 	blt	3000490c <__umodsi3+0x8c>
300048d0:	e1500001 	cmp	r0, r1
300048d4:	20400001 	subcs	r0, r0, r1
300048d8:	e15000a1 	cmp	r0, r1, lsr #1
300048dc:	204000a1 	subcs	r0, r0, r1, lsr #1
300048e0:	e1500121 	cmp	r0, r1, lsr #2
300048e4:	20400121 	subcs	r0, r0, r1, lsr #2
300048e8:	e15001a1 	cmp	r0, r1, lsr #3
300048ec:	204001a1 	subcs	r0, r0, r1, lsr #3
300048f0:	e3500001 	cmp	r0, #1	; 0x1
300048f4:	e1a01221 	lsr	r1, r1, #4
300048f8:	a2522004 	subsge	r2, r2, #4	; 0x4
300048fc:	aafffff3 	bge	300048d0 <__umodsi3+0x50>
30004900:	e3120003 	tst	r2, #3	; 0x3
30004904:	13300000 	teqne	r0, #0	; 0x0
30004908:	0a00000a 	beq	30004938 <__umodsi3+0xb8>
3000490c:	e3720002 	cmn	r2, #2	; 0x2
30004910:	ba000006 	blt	30004930 <__umodsi3+0xb0>
30004914:	0a000002 	beq	30004924 <__umodsi3+0xa4>
30004918:	e1500001 	cmp	r0, r1
3000491c:	20400001 	subcs	r0, r0, r1
30004920:	e1a010a1 	lsr	r1, r1, #1
30004924:	e1500001 	cmp	r0, r1
30004928:	20400001 	subcs	r0, r0, r1
3000492c:	e1a010a1 	lsr	r1, r1, #1
30004930:	e1500001 	cmp	r0, r1
30004934:	20400001 	subcs	r0, r0, r1
30004938:	e1a0f00e 	mov	pc, lr
3000493c:	90909090 	.word	0x90909090

30004940 <__divsi3>:
30004940:	e3510000 	cmp	r1, #0	; 0x0
30004944:	e020c001 	eor	ip, r0, r1
30004948:	0a000079 	beq	30004b34 <Ldiv0>
3000494c:	42611000 	rsbmi	r1, r1, #0	; 0x0
30004950:	e2512001 	subs	r2, r1, #1	; 0x1
30004954:	0a000027 	beq	300049f8 <__divsi3+0xb8>
30004958:	e1b03000 	movs	r3, r0
3000495c:	42603000 	rsbmi	r3, r0, #0	; 0x0
30004960:	e1530001 	cmp	r3, r1
30004964:	9a000026 	bls	30004a04 <__divsi3+0xc4>
30004968:	e1110002 	tst	r1, r2
3000496c:	0a000028 	beq	30004a14 <__divsi3+0xd4>
30004970:	e311020e 	tst	r1, #-536870912	; 0xe0000000
30004974:	01a01181 	lsleq	r1, r1, #3
30004978:	03a02008 	moveq	r2, #8	; 0x8
3000497c:	13a02001 	movne	r2, #1	; 0x1
30004980:	e3510201 	cmp	r1, #268435456	; 0x10000000
30004984:	31510003 	cmpcc	r1, r3
30004988:	31a01201 	lslcc	r1, r1, #4
3000498c:	31a02202 	lslcc	r2, r2, #4
30004990:	3afffffa 	bcc	30004980 <__divsi3+0x40>
30004994:	e3510102 	cmp	r1, #-2147483648	; 0x80000000
30004998:	31510003 	cmpcc	r1, r3
3000499c:	31a01081 	lslcc	r1, r1, #1
300049a0:	31a02082 	lslcc	r2, r2, #1
300049a4:	3afffffa 	bcc	30004994 <__divsi3+0x54>
300049a8:	e3a00000 	mov	r0, #0	; 0x0
300049ac:	e1530001 	cmp	r3, r1
300049b0:	20433001 	subcs	r3, r3, r1
300049b4:	21800002 	orrcs	r0, r0, r2
300049b8:	e15300a1 	cmp	r3, r1, lsr #1
300049bc:	204330a1 	subcs	r3, r3, r1, lsr #1
300049c0:	218000a2 	orrcs	r0, r0, r2, lsr #1
300049c4:	e1530121 	cmp	r3, r1, lsr #2
300049c8:	20433121 	subcs	r3, r3, r1, lsr #2
300049cc:	21800122 	orrcs	r0, r0, r2, lsr #2
300049d0:	e15301a1 	cmp	r3, r1, lsr #3
300049d4:	204331a1 	subcs	r3, r3, r1, lsr #3
300049d8:	218001a2 	orrcs	r0, r0, r2, lsr #3
300049dc:	e3530000 	cmp	r3, #0	; 0x0
300049e0:	11b02222 	lsrsne	r2, r2, #4
300049e4:	11a01221 	lsrne	r1, r1, #4
300049e8:	1affffef 	bne	300049ac <__divsi3+0x6c>
300049ec:	e35c0000 	cmp	ip, #0	; 0x0
300049f0:	42600000 	rsbmi	r0, r0, #0	; 0x0
300049f4:	e1a0f00e 	mov	pc, lr
300049f8:	e13c0000 	teq	ip, r0
300049fc:	42600000 	rsbmi	r0, r0, #0	; 0x0
30004a00:	e1a0f00e 	mov	pc, lr
30004a04:	33a00000 	movcc	r0, #0	; 0x0
30004a08:	01a00fcc 	asreq	r0, ip, #31
30004a0c:	03800001 	orreq	r0, r0, #1	; 0x1
30004a10:	e1a0f00e 	mov	pc, lr
30004a14:	e3510801 	cmp	r1, #65536	; 0x10000
30004a18:	21a01821 	lsrcs	r1, r1, #16
30004a1c:	23a02010 	movcs	r2, #16	; 0x10
30004a20:	33a02000 	movcc	r2, #0	; 0x0
30004a24:	e3510c01 	cmp	r1, #256	; 0x100
30004a28:	21a01421 	lsrcs	r1, r1, #8
30004a2c:	22822008 	addcs	r2, r2, #8	; 0x8
30004a30:	e3510010 	cmp	r1, #16	; 0x10
30004a34:	21a01221 	lsrcs	r1, r1, #4
30004a38:	22822004 	addcs	r2, r2, #4	; 0x4
30004a3c:	e3510004 	cmp	r1, #4	; 0x4
30004a40:	82822003 	addhi	r2, r2, #3	; 0x3
30004a44:	908220a1 	addls	r2, r2, r1, lsr #1
30004a48:	e35c0000 	cmp	ip, #0	; 0x0
30004a4c:	e1a00233 	lsr	r0, r3, r2
30004a50:	42600000 	rsbmi	r0, r0, #0	; 0x0
30004a54:	e1a0f00e 	mov	pc, lr
30004a58:	90909090 	.word	0x90909090
30004a5c:	90909090 	.word	0x90909090

30004a60 <__modsi3>:
30004a60:	e3510000 	cmp	r1, #0	; 0x0
30004a64:	0a000032 	beq	30004b34 <Ldiv0>
30004a68:	42611000 	rsbmi	r1, r1, #0	; 0x0
30004a6c:	e1b0c000 	movs	ip, r0
30004a70:	42600000 	rsbmi	r0, r0, #0	; 0x0
30004a74:	e2512001 	subs	r2, r1, #1	; 0x1
30004a78:	11500001 	cmpne	r0, r1
30004a7c:	03a00000 	moveq	r0, #0	; 0x0
30004a80:	81110002 	tsthi	r1, r2
30004a84:	00000002 	andeq	r0, r0, r2
30004a88:	9a000026 	bls	30004b28 <__modsi3+0xc8>
30004a8c:	e3a02000 	mov	r2, #0	; 0x0
30004a90:	e3510201 	cmp	r1, #268435456	; 0x10000000
30004a94:	31510000 	cmpcc	r1, r0
30004a98:	31a01201 	lslcc	r1, r1, #4
30004a9c:	32822004 	addcc	r2, r2, #4	; 0x4
30004aa0:	3afffffa 	bcc	30004a90 <__modsi3+0x30>
30004aa4:	e3510102 	cmp	r1, #-2147483648	; 0x80000000
30004aa8:	31510000 	cmpcc	r1, r0
30004aac:	31a01081 	lslcc	r1, r1, #1
30004ab0:	32822001 	addcc	r2, r2, #1	; 0x1
30004ab4:	3afffffa 	bcc	30004aa4 <__modsi3+0x44>
30004ab8:	e2522003 	subs	r2, r2, #3	; 0x3
30004abc:	ba00000e 	blt	30004afc <__modsi3+0x9c>
30004ac0:	e1500001 	cmp	r0, r1
30004ac4:	20400001 	subcs	r0, r0, r1
30004ac8:	e15000a1 	cmp	r0, r1, lsr #1
30004acc:	204000a1 	subcs	r0, r0, r1, lsr #1
30004ad0:	e1500121 	cmp	r0, r1, lsr #2
30004ad4:	20400121 	subcs	r0, r0, r1, lsr #2
30004ad8:	e15001a1 	cmp	r0, r1, lsr #3
30004adc:	204001a1 	subcs	r0, r0, r1, lsr #3
30004ae0:	e3500001 	cmp	r0, #1	; 0x1
30004ae4:	e1a01221 	lsr	r1, r1, #4
30004ae8:	a2522004 	subsge	r2, r2, #4	; 0x4
30004aec:	aafffff3 	bge	30004ac0 <__modsi3+0x60>
30004af0:	e3120003 	tst	r2, #3	; 0x3
30004af4:	13300000 	teqne	r0, #0	; 0x0
30004af8:	0a00000a 	beq	30004b28 <__modsi3+0xc8>
30004afc:	e3720002 	cmn	r2, #2	; 0x2
30004b00:	ba000006 	blt	30004b20 <__modsi3+0xc0>
30004b04:	0a000002 	beq	30004b14 <__modsi3+0xb4>
30004b08:	e1500001 	cmp	r0, r1
30004b0c:	20400001 	subcs	r0, r0, r1
30004b10:	e1a010a1 	lsr	r1, r1, #1
30004b14:	e1500001 	cmp	r0, r1
30004b18:	20400001 	subcs	r0, r0, r1
30004b1c:	e1a010a1 	lsr	r1, r1, #1
30004b20:	e1500001 	cmp	r0, r1
30004b24:	20400001 	subcs	r0, r0, r1
30004b28:	e35c0000 	cmp	ip, #0	; 0x0
30004b2c:	42600000 	rsbmi	r0, r0, #0	; 0x0
30004b30:	e1a0f00e 	mov	pc, lr

30004b34 <Ldiv0>:
30004b34:	e52de004 	push	{lr}		; (str lr, [sp, #-4]!)
30004b38:	e3a00000 	mov	r0, #0	; 0x0
30004b3c:	e49df004 	pop	{pc}		; (ldr pc, [sp], #4)

30004b40 <PutPixel>:
30004b40:	e92d4800 	push	{fp, lr}
30004b44:	e28db004 	add	fp, sp, #4	; 0x4
30004b48:	e24dd030 	sub	sp, sp, #48	; 0x30
30004b4c:	e50b0028 	str	r0, [fp, #-40]
30004b50:	e50b102c 	str	r1, [fp, #-44]
30004b54:	e50b2030 	str	r2, [fp, #-48]
30004b58:	eb000478 	bl	30005d40 <GetLcdBpp>
30004b5c:	e1a03000 	mov	r3, r0
30004b60:	e50b301c 	str	r3, [fp, #-28]
30004b64:	eb000468 	bl	30005d0c <GetLcdFBbase>
30004b68:	e1a03000 	mov	r3, r0
30004b6c:	e50b3018 	str	r3, [fp, #-24]
30004b70:	eb00047f 	bl	30005d74 <GetLcdXsize>
30004b74:	e1a03000 	mov	r3, r0
30004b78:	e50b3014 	str	r3, [fp, #-20]
30004b7c:	e51b301c 	ldr	r3, [fp, #-28]
30004b80:	e50b3034 	str	r3, [fp, #-52]
30004b84:	e51b3034 	ldr	r3, [fp, #-52]
30004b88:	e3530010 	cmp	r3, #16	; 0x10
30004b8c:	0a000013 	beq	30004be0 <PutPixel+0xa0>
30004b90:	e51b3034 	ldr	r3, [fp, #-52]
30004b94:	e3530018 	cmp	r3, #24	; 0x18
30004b98:	0a000003 	beq	30004bac <PutPixel+0x6c>
30004b9c:	e51b3034 	ldr	r3, [fp, #-52]
30004ba0:	e3530008 	cmp	r3, #8	; 0x8
30004ba4:	0a00002d 	beq	30004c60 <PutPixel+0x120>
30004ba8:	ea000038 	b	30004c90 <PutPixel+0x150>
30004bac:	e51b202c 	ldr	r2, [fp, #-44]
30004bb0:	e51b3014 	ldr	r3, [fp, #-20]
30004bb4:	e0020293 	mul	r2, r3, r2
30004bb8:	e51b3028 	ldr	r3, [fp, #-40]
30004bbc:	e0823003 	add	r3, r2, r3
30004bc0:	e1a02103 	lsl	r2, r3, #2
30004bc4:	e51b3018 	ldr	r3, [fp, #-24]
30004bc8:	e0823003 	add	r3, r2, r3
30004bcc:	e50b3010 	str	r3, [fp, #-16]
30004bd0:	e51b2010 	ldr	r2, [fp, #-16]
30004bd4:	e51b3030 	ldr	r3, [fp, #-48]
30004bd8:	e5823000 	str	r3, [r2]
30004bdc:	ea00002b 	b	30004c90 <PutPixel+0x150>
30004be0:	e51b202c 	ldr	r2, [fp, #-44]
30004be4:	e51b3014 	ldr	r3, [fp, #-20]
30004be8:	e0020293 	mul	r2, r3, r2
30004bec:	e51b3028 	ldr	r3, [fp, #-40]
30004bf0:	e0823003 	add	r3, r2, r3
30004bf4:	e1a02083 	lsl	r2, r3, #1
30004bf8:	e51b3018 	ldr	r3, [fp, #-24]
30004bfc:	e0823003 	add	r3, r2, r3
30004c00:	e50b300c 	str	r3, [fp, #-12]
30004c04:	e51b3030 	ldr	r3, [fp, #-48]
30004c08:	e1a039a3 	lsr	r3, r3, #19
30004c0c:	e54b301f 	strb	r3, [fp, #-31]
30004c10:	e51b3030 	ldr	r3, [fp, #-48]
30004c14:	e1a03523 	lsr	r3, r3, #10
30004c18:	e54b301e 	strb	r3, [fp, #-30]
30004c1c:	e51b3030 	ldr	r3, [fp, #-48]
30004c20:	e1a031a3 	lsr	r3, r3, #3
30004c24:	e54b301d 	strb	r3, [fp, #-29]
30004c28:	e55b301f 	ldrb	r3, [fp, #-31]
30004c2c:	e1a02583 	lsl	r2, r3, #11
30004c30:	e55b301e 	ldrb	r3, [fp, #-30]
30004c34:	e1a03283 	lsl	r3, r3, #5
30004c38:	e1822003 	orr	r2, r2, r3
30004c3c:	e55b301d 	ldrb	r3, [fp, #-29]
30004c40:	e1823003 	orr	r3, r2, r3
30004c44:	e50b3030 	str	r3, [fp, #-48]
30004c48:	e51b3030 	ldr	r3, [fp, #-48]
30004c4c:	e1a03803 	lsl	r3, r3, #16
30004c50:	e1a02823 	lsr	r2, r3, #16
30004c54:	e51b300c 	ldr	r3, [fp, #-12]
30004c58:	e1c320b0 	strh	r2, [r3]
30004c5c:	ea00000b 	b	30004c90 <PutPixel+0x150>
30004c60:	e51b202c 	ldr	r2, [fp, #-44]
30004c64:	e51b3014 	ldr	r3, [fp, #-20]
30004c68:	e0020293 	mul	r2, r3, r2
30004c6c:	e51b3028 	ldr	r3, [fp, #-40]
30004c70:	e0822003 	add	r2, r2, r3
30004c74:	e51b3018 	ldr	r3, [fp, #-24]
30004c78:	e0823003 	add	r3, r2, r3
30004c7c:	e50b3008 	str	r3, [fp, #-8]
30004c80:	e51b3030 	ldr	r3, [fp, #-48]
30004c84:	e20330ff 	and	r3, r3, #255	; 0xff
30004c88:	e51b2008 	ldr	r2, [fp, #-8]
30004c8c:	e5c23000 	strb	r3, [r2]
30004c90:	e24bd004 	sub	sp, fp, #4	; 0x4
30004c94:	e8bd4800 	pop	{fp, lr}
30004c98:	e12fff1e 	bx	lr

30004c9c <DrawLine>:
30004c9c:	e92d4800 	push	{fp, lr}
30004ca0:	e28db004 	add	fp, sp, #4	; 0x4
30004ca4:	e24dd020 	sub	sp, sp, #32	; 0x20
30004ca8:	e50b0018 	str	r0, [fp, #-24]
30004cac:	e50b101c 	str	r1, [fp, #-28]
30004cb0:	e50b2020 	str	r2, [fp, #-32]
30004cb4:	e50b3024 	str	r3, [fp, #-36]
30004cb8:	e51b2020 	ldr	r2, [fp, #-32]
30004cbc:	e51b3018 	ldr	r3, [fp, #-24]
30004cc0:	e0633002 	rsb	r3, r3, r2
30004cc4:	e50b3010 	str	r3, [fp, #-16]
30004cc8:	e51b2024 	ldr	r2, [fp, #-36]
30004ccc:	e51b301c 	ldr	r3, [fp, #-28]
30004cd0:	e0633002 	rsb	r3, r3, r2
30004cd4:	e50b300c 	str	r3, [fp, #-12]
30004cd8:	e51b3010 	ldr	r3, [fp, #-16]
30004cdc:	e3530000 	cmp	r3, #0	; 0x0
30004ce0:	ba0000a5 	blt	30004f7c <DrawLine+0x2e0>
30004ce4:	e51b300c 	ldr	r3, [fp, #-12]
30004ce8:	e3530000 	cmp	r3, #0	; 0x0
30004cec:	ba00004f 	blt	30004e30 <DrawLine+0x194>
30004cf0:	e51b2010 	ldr	r2, [fp, #-16]
30004cf4:	e51b300c 	ldr	r3, [fp, #-12]
30004cf8:	e1520003 	cmp	r2, r3
30004cfc:	ba000025 	blt	30004d98 <DrawLine+0xfc>
30004d00:	e51b2010 	ldr	r2, [fp, #-16]
30004d04:	e1a03fa2 	lsr	r3, r2, #31
30004d08:	e0833002 	add	r3, r3, r2
30004d0c:	e1a030c3 	asr	r3, r3, #1
30004d10:	e1a02003 	mov	r2, r3
30004d14:	e51b300c 	ldr	r3, [fp, #-12]
30004d18:	e0623003 	rsb	r3, r2, r3
30004d1c:	e50b3008 	str	r3, [fp, #-8]
30004d20:	ea000017 	b	30004d84 <DrawLine+0xe8>
30004d24:	e51b3018 	ldr	r3, [fp, #-24]
30004d28:	e51b201c 	ldr	r2, [fp, #-28]
30004d2c:	e59bc004 	ldr	ip, [fp, #4]
30004d30:	e1a00003 	mov	r0, r3
30004d34:	e1a01002 	mov	r1, r2
30004d38:	e1a0200c 	mov	r2, ip
30004d3c:	ebffff7f 	bl	30004b40 <PutPixel>
30004d40:	e51b3008 	ldr	r3, [fp, #-8]
30004d44:	e3530000 	cmp	r3, #0	; 0x0
30004d48:	da000006 	ble	30004d68 <DrawLine+0xcc>
30004d4c:	e51b301c 	ldr	r3, [fp, #-28]
30004d50:	e2833001 	add	r3, r3, #1	; 0x1
30004d54:	e50b301c 	str	r3, [fp, #-28]
30004d58:	e51b2008 	ldr	r2, [fp, #-8]
30004d5c:	e51b3010 	ldr	r3, [fp, #-16]
30004d60:	e0633002 	rsb	r3, r3, r2
30004d64:	e50b3008 	str	r3, [fp, #-8]
30004d68:	e51b3018 	ldr	r3, [fp, #-24]
30004d6c:	e2833001 	add	r3, r3, #1	; 0x1
30004d70:	e50b3018 	str	r3, [fp, #-24]
30004d74:	e51b2008 	ldr	r2, [fp, #-8]
30004d78:	e51b300c 	ldr	r3, [fp, #-12]
30004d7c:	e0823003 	add	r3, r2, r3
30004d80:	e50b3008 	str	r3, [fp, #-8]
30004d84:	e51b2018 	ldr	r2, [fp, #-24]
30004d88:	e51b3020 	ldr	r3, [fp, #-32]
30004d8c:	e1520003 	cmp	r2, r3
30004d90:	daffffe3 	ble	30004d24 <DrawLine+0x88>
30004d94:	ea000120 	b	3000521c <DrawLine+0x580>
30004d98:	e51b200c 	ldr	r2, [fp, #-12]
30004d9c:	e1a03fa2 	lsr	r3, r2, #31
30004da0:	e0833002 	add	r3, r3, r2
30004da4:	e1a030c3 	asr	r3, r3, #1
30004da8:	e1a02003 	mov	r2, r3
30004dac:	e51b3010 	ldr	r3, [fp, #-16]
30004db0:	e0623003 	rsb	r3, r2, r3
30004db4:	e50b3008 	str	r3, [fp, #-8]
30004db8:	ea000017 	b	30004e1c <DrawLine+0x180>
30004dbc:	e51b3018 	ldr	r3, [fp, #-24]
30004dc0:	e51b201c 	ldr	r2, [fp, #-28]
30004dc4:	e59bc004 	ldr	ip, [fp, #4]
30004dc8:	e1a00003 	mov	r0, r3
30004dcc:	e1a01002 	mov	r1, r2
30004dd0:	e1a0200c 	mov	r2, ip
30004dd4:	ebffff59 	bl	30004b40 <PutPixel>
30004dd8:	e51b3008 	ldr	r3, [fp, #-8]
30004ddc:	e3530000 	cmp	r3, #0	; 0x0
30004de0:	da000006 	ble	30004e00 <DrawLine+0x164>
30004de4:	e51b3018 	ldr	r3, [fp, #-24]
30004de8:	e2833001 	add	r3, r3, #1	; 0x1
30004dec:	e50b3018 	str	r3, [fp, #-24]
30004df0:	e51b2008 	ldr	r2, [fp, #-8]
30004df4:	e51b300c 	ldr	r3, [fp, #-12]
30004df8:	e0633002 	rsb	r3, r3, r2
30004dfc:	e50b3008 	str	r3, [fp, #-8]
30004e00:	e51b301c 	ldr	r3, [fp, #-28]
30004e04:	e2833001 	add	r3, r3, #1	; 0x1
30004e08:	e50b301c 	str	r3, [fp, #-28]
30004e0c:	e51b2008 	ldr	r2, [fp, #-8]
30004e10:	e51b3010 	ldr	r3, [fp, #-16]
30004e14:	e0823003 	add	r3, r2, r3
30004e18:	e50b3008 	str	r3, [fp, #-8]
30004e1c:	e51b201c 	ldr	r2, [fp, #-28]
30004e20:	e51b3024 	ldr	r3, [fp, #-36]
30004e24:	e1520003 	cmp	r2, r3
30004e28:	daffffe3 	ble	30004dbc <DrawLine+0x120>
30004e2c:	ea0000fa 	b	3000521c <DrawLine+0x580>
30004e30:	e51b300c 	ldr	r3, [fp, #-12]
30004e34:	e2633000 	rsb	r3, r3, #0	; 0x0
30004e38:	e50b300c 	str	r3, [fp, #-12]
30004e3c:	e51b2010 	ldr	r2, [fp, #-16]
30004e40:	e51b300c 	ldr	r3, [fp, #-12]
30004e44:	e1520003 	cmp	r2, r3
30004e48:	ba000025 	blt	30004ee4 <DrawLine+0x248>
30004e4c:	e51b2010 	ldr	r2, [fp, #-16]
30004e50:	e1a03fa2 	lsr	r3, r2, #31
30004e54:	e0833002 	add	r3, r3, r2
30004e58:	e1a030c3 	asr	r3, r3, #1
30004e5c:	e1a02003 	mov	r2, r3
30004e60:	e51b300c 	ldr	r3, [fp, #-12]
30004e64:	e0623003 	rsb	r3, r2, r3
30004e68:	e50b3008 	str	r3, [fp, #-8]
30004e6c:	ea000017 	b	30004ed0 <DrawLine+0x234>
30004e70:	e51b3018 	ldr	r3, [fp, #-24]
30004e74:	e51b201c 	ldr	r2, [fp, #-28]
30004e78:	e59bc004 	ldr	ip, [fp, #4]
30004e7c:	e1a00003 	mov	r0, r3
30004e80:	e1a01002 	mov	r1, r2
30004e84:	e1a0200c 	mov	r2, ip
30004e88:	ebffff2c 	bl	30004b40 <PutPixel>
30004e8c:	e51b3008 	ldr	r3, [fp, #-8]
30004e90:	e3530000 	cmp	r3, #0	; 0x0
30004e94:	da000006 	ble	30004eb4 <DrawLine+0x218>
30004e98:	e51b301c 	ldr	r3, [fp, #-28]
30004e9c:	e2433001 	sub	r3, r3, #1	; 0x1
30004ea0:	e50b301c 	str	r3, [fp, #-28]
30004ea4:	e51b2008 	ldr	r2, [fp, #-8]
30004ea8:	e51b3010 	ldr	r3, [fp, #-16]
30004eac:	e0633002 	rsb	r3, r3, r2
30004eb0:	e50b3008 	str	r3, [fp, #-8]
30004eb4:	e51b3018 	ldr	r3, [fp, #-24]
30004eb8:	e2833001 	add	r3, r3, #1	; 0x1
30004ebc:	e50b3018 	str	r3, [fp, #-24]
30004ec0:	e51b2008 	ldr	r2, [fp, #-8]
30004ec4:	e51b300c 	ldr	r3, [fp, #-12]
30004ec8:	e0823003 	add	r3, r2, r3
30004ecc:	e50b3008 	str	r3, [fp, #-8]
30004ed0:	e51b2018 	ldr	r2, [fp, #-24]
30004ed4:	e51b3020 	ldr	r3, [fp, #-32]
30004ed8:	e1520003 	cmp	r2, r3
30004edc:	daffffe3 	ble	30004e70 <DrawLine+0x1d4>
30004ee0:	ea0000cd 	b	3000521c <DrawLine+0x580>
30004ee4:	e51b200c 	ldr	r2, [fp, #-12]
30004ee8:	e1a03fa2 	lsr	r3, r2, #31
30004eec:	e0833002 	add	r3, r3, r2
30004ef0:	e1a030c3 	asr	r3, r3, #1
30004ef4:	e1a02003 	mov	r2, r3
30004ef8:	e51b3010 	ldr	r3, [fp, #-16]
30004efc:	e0623003 	rsb	r3, r2, r3
30004f00:	e50b3008 	str	r3, [fp, #-8]
30004f04:	ea000017 	b	30004f68 <DrawLine+0x2cc>
30004f08:	e51b3018 	ldr	r3, [fp, #-24]
30004f0c:	e51b201c 	ldr	r2, [fp, #-28]
30004f10:	e59bc004 	ldr	ip, [fp, #4]
30004f14:	e1a00003 	mov	r0, r3
30004f18:	e1a01002 	mov	r1, r2
30004f1c:	e1a0200c 	mov	r2, ip
30004f20:	ebffff06 	bl	30004b40 <PutPixel>
30004f24:	e51b3008 	ldr	r3, [fp, #-8]
30004f28:	e3530000 	cmp	r3, #0	; 0x0
30004f2c:	da000006 	ble	30004f4c <DrawLine+0x2b0>
30004f30:	e51b3018 	ldr	r3, [fp, #-24]
30004f34:	e2833001 	add	r3, r3, #1	; 0x1
30004f38:	e50b3018 	str	r3, [fp, #-24]
30004f3c:	e51b2008 	ldr	r2, [fp, #-8]
30004f40:	e51b300c 	ldr	r3, [fp, #-12]
30004f44:	e0633002 	rsb	r3, r3, r2
30004f48:	e50b3008 	str	r3, [fp, #-8]
30004f4c:	e51b301c 	ldr	r3, [fp, #-28]
30004f50:	e2433001 	sub	r3, r3, #1	; 0x1
30004f54:	e50b301c 	str	r3, [fp, #-28]
30004f58:	e51b2008 	ldr	r2, [fp, #-8]
30004f5c:	e51b3010 	ldr	r3, [fp, #-16]
30004f60:	e0823003 	add	r3, r2, r3
30004f64:	e50b3008 	str	r3, [fp, #-8]
30004f68:	e51b201c 	ldr	r2, [fp, #-28]
30004f6c:	e51b3024 	ldr	r3, [fp, #-36]
30004f70:	e1520003 	cmp	r2, r3
30004f74:	aaffffe3 	bge	30004f08 <DrawLine+0x26c>
30004f78:	ea0000a7 	b	3000521c <DrawLine+0x580>
30004f7c:	e51b3010 	ldr	r3, [fp, #-16]
30004f80:	e2633000 	rsb	r3, r3, #0	; 0x0
30004f84:	e50b3010 	str	r3, [fp, #-16]
30004f88:	e51b300c 	ldr	r3, [fp, #-12]
30004f8c:	e3530000 	cmp	r3, #0	; 0x0
30004f90:	ba00004f 	blt	300050d4 <DrawLine+0x438>
30004f94:	e51b2010 	ldr	r2, [fp, #-16]
30004f98:	e51b300c 	ldr	r3, [fp, #-12]
30004f9c:	e1520003 	cmp	r2, r3
30004fa0:	ba000025 	blt	3000503c <DrawLine+0x3a0>
30004fa4:	e51b2010 	ldr	r2, [fp, #-16]
30004fa8:	e1a03fa2 	lsr	r3, r2, #31
30004fac:	e0833002 	add	r3, r3, r2
30004fb0:	e1a030c3 	asr	r3, r3, #1
30004fb4:	e1a02003 	mov	r2, r3
30004fb8:	e51b300c 	ldr	r3, [fp, #-12]
30004fbc:	e0623003 	rsb	r3, r2, r3
30004fc0:	e50b3008 	str	r3, [fp, #-8]
30004fc4:	ea000017 	b	30005028 <DrawLine+0x38c>
30004fc8:	e51b3018 	ldr	r3, [fp, #-24]
30004fcc:	e51b201c 	ldr	r2, [fp, #-28]
30004fd0:	e59bc004 	ldr	ip, [fp, #4]
30004fd4:	e1a00003 	mov	r0, r3
30004fd8:	e1a01002 	mov	r1, r2
30004fdc:	e1a0200c 	mov	r2, ip
30004fe0:	ebfffed6 	bl	30004b40 <PutPixel>
30004fe4:	e51b3008 	ldr	r3, [fp, #-8]
30004fe8:	e3530000 	cmp	r3, #0	; 0x0
30004fec:	da000006 	ble	3000500c <DrawLine+0x370>
30004ff0:	e51b301c 	ldr	r3, [fp, #-28]
30004ff4:	e2833001 	add	r3, r3, #1	; 0x1
30004ff8:	e50b301c 	str	r3, [fp, #-28]
30004ffc:	e51b2008 	ldr	r2, [fp, #-8]
30005000:	e51b3010 	ldr	r3, [fp, #-16]
30005004:	e0633002 	rsb	r3, r3, r2
30005008:	e50b3008 	str	r3, [fp, #-8]
3000500c:	e51b3018 	ldr	r3, [fp, #-24]
30005010:	e2433001 	sub	r3, r3, #1	; 0x1
30005014:	e50b3018 	str	r3, [fp, #-24]
30005018:	e51b2008 	ldr	r2, [fp, #-8]
3000501c:	e51b300c 	ldr	r3, [fp, #-12]
30005020:	e0823003 	add	r3, r2, r3
30005024:	e50b3008 	str	r3, [fp, #-8]
30005028:	e51b2018 	ldr	r2, [fp, #-24]
3000502c:	e51b3020 	ldr	r3, [fp, #-32]
30005030:	e1520003 	cmp	r2, r3
30005034:	aaffffe3 	bge	30004fc8 <DrawLine+0x32c>
30005038:	ea000077 	b	3000521c <DrawLine+0x580>
3000503c:	e51b200c 	ldr	r2, [fp, #-12]
30005040:	e1a03fa2 	lsr	r3, r2, #31
30005044:	e0833002 	add	r3, r3, r2
30005048:	e1a030c3 	asr	r3, r3, #1
3000504c:	e1a02003 	mov	r2, r3
30005050:	e51b3010 	ldr	r3, [fp, #-16]
30005054:	e0623003 	rsb	r3, r2, r3
30005058:	e50b3008 	str	r3, [fp, #-8]
3000505c:	ea000017 	b	300050c0 <DrawLine+0x424>
30005060:	e51b3018 	ldr	r3, [fp, #-24]
30005064:	e51b201c 	ldr	r2, [fp, #-28]
30005068:	e59bc004 	ldr	ip, [fp, #4]
3000506c:	e1a00003 	mov	r0, r3
30005070:	e1a01002 	mov	r1, r2
30005074:	e1a0200c 	mov	r2, ip
30005078:	ebfffeb0 	bl	30004b40 <PutPixel>
3000507c:	e51b3008 	ldr	r3, [fp, #-8]
30005080:	e3530000 	cmp	r3, #0	; 0x0
30005084:	da000006 	ble	300050a4 <DrawLine+0x408>
30005088:	e51b3018 	ldr	r3, [fp, #-24]
3000508c:	e2433001 	sub	r3, r3, #1	; 0x1
30005090:	e50b3018 	str	r3, [fp, #-24]
30005094:	e51b2008 	ldr	r2, [fp, #-8]
30005098:	e51b300c 	ldr	r3, [fp, #-12]
3000509c:	e0633002 	rsb	r3, r3, r2
300050a0:	e50b3008 	str	r3, [fp, #-8]
300050a4:	e51b301c 	ldr	r3, [fp, #-28]
300050a8:	e2833001 	add	r3, r3, #1	; 0x1
300050ac:	e50b301c 	str	r3, [fp, #-28]
300050b0:	e51b2008 	ldr	r2, [fp, #-8]
300050b4:	e51b3010 	ldr	r3, [fp, #-16]
300050b8:	e0823003 	add	r3, r2, r3
300050bc:	e50b3008 	str	r3, [fp, #-8]
300050c0:	e51b201c 	ldr	r2, [fp, #-28]
300050c4:	e51b3024 	ldr	r3, [fp, #-36]
300050c8:	e1520003 	cmp	r2, r3
300050cc:	daffffe3 	ble	30005060 <DrawLine+0x3c4>
300050d0:	ea000051 	b	3000521c <DrawLine+0x580>
300050d4:	e51b300c 	ldr	r3, [fp, #-12]
300050d8:	e2633000 	rsb	r3, r3, #0	; 0x0
300050dc:	e50b300c 	str	r3, [fp, #-12]
300050e0:	e51b2010 	ldr	r2, [fp, #-16]
300050e4:	e51b300c 	ldr	r3, [fp, #-12]
300050e8:	e1520003 	cmp	r2, r3
300050ec:	ba000025 	blt	30005188 <DrawLine+0x4ec>
300050f0:	e51b2010 	ldr	r2, [fp, #-16]
300050f4:	e1a03fa2 	lsr	r3, r2, #31
300050f8:	e0833002 	add	r3, r3, r2
300050fc:	e1a030c3 	asr	r3, r3, #1
30005100:	e1a02003 	mov	r2, r3
30005104:	e51b300c 	ldr	r3, [fp, #-12]
30005108:	e0623003 	rsb	r3, r2, r3
3000510c:	e50b3008 	str	r3, [fp, #-8]
30005110:	ea000017 	b	30005174 <DrawLine+0x4d8>
30005114:	e51b3018 	ldr	r3, [fp, #-24]
30005118:	e51b201c 	ldr	r2, [fp, #-28]
3000511c:	e59bc004 	ldr	ip, [fp, #4]
30005120:	e1a00003 	mov	r0, r3
30005124:	e1a01002 	mov	r1, r2
30005128:	e1a0200c 	mov	r2, ip
3000512c:	ebfffe83 	bl	30004b40 <PutPixel>
30005130:	e51b3008 	ldr	r3, [fp, #-8]
30005134:	e3530000 	cmp	r3, #0	; 0x0
30005138:	da000006 	ble	30005158 <DrawLine+0x4bc>
3000513c:	e51b301c 	ldr	r3, [fp, #-28]
30005140:	e2433001 	sub	r3, r3, #1	; 0x1
30005144:	e50b301c 	str	r3, [fp, #-28]
30005148:	e51b2008 	ldr	r2, [fp, #-8]
3000514c:	e51b3010 	ldr	r3, [fp, #-16]
30005150:	e0633002 	rsb	r3, r3, r2
30005154:	e50b3008 	str	r3, [fp, #-8]
30005158:	e51b3018 	ldr	r3, [fp, #-24]
3000515c:	e2433001 	sub	r3, r3, #1	; 0x1
30005160:	e50b3018 	str	r3, [fp, #-24]
30005164:	e51b2008 	ldr	r2, [fp, #-8]
30005168:	e51b300c 	ldr	r3, [fp, #-12]
3000516c:	e0823003 	add	r3, r2, r3
30005170:	e50b3008 	str	r3, [fp, #-8]
30005174:	e51b2018 	ldr	r2, [fp, #-24]
30005178:	e51b3020 	ldr	r3, [fp, #-32]
3000517c:	e1520003 	cmp	r2, r3
30005180:	aaffffe3 	bge	30005114 <DrawLine+0x478>
30005184:	ea000024 	b	3000521c <DrawLine+0x580>
30005188:	e51b200c 	ldr	r2, [fp, #-12]
3000518c:	e1a03fa2 	lsr	r3, r2, #31
30005190:	e0833002 	add	r3, r3, r2
30005194:	e1a030c3 	asr	r3, r3, #1
30005198:	e1a02003 	mov	r2, r3
3000519c:	e51b3010 	ldr	r3, [fp, #-16]
300051a0:	e0623003 	rsb	r3, r2, r3
300051a4:	e50b3008 	str	r3, [fp, #-8]
300051a8:	ea000017 	b	3000520c <DrawLine+0x570>
300051ac:	e51b3018 	ldr	r3, [fp, #-24]
300051b0:	e51b201c 	ldr	r2, [fp, #-28]
300051b4:	e59bc004 	ldr	ip, [fp, #4]
300051b8:	e1a00003 	mov	r0, r3
300051bc:	e1a01002 	mov	r1, r2
300051c0:	e1a0200c 	mov	r2, ip
300051c4:	ebfffe5d 	bl	30004b40 <PutPixel>
300051c8:	e51b3008 	ldr	r3, [fp, #-8]
300051cc:	e3530000 	cmp	r3, #0	; 0x0
300051d0:	da000006 	ble	300051f0 <DrawLine+0x554>
300051d4:	e51b3018 	ldr	r3, [fp, #-24]
300051d8:	e2433001 	sub	r3, r3, #1	; 0x1
300051dc:	e50b3018 	str	r3, [fp, #-24]
300051e0:	e51b2008 	ldr	r2, [fp, #-8]
300051e4:	e51b300c 	ldr	r3, [fp, #-12]
300051e8:	e0633002 	rsb	r3, r3, r2
300051ec:	e50b3008 	str	r3, [fp, #-8]
300051f0:	e51b301c 	ldr	r3, [fp, #-28]
300051f4:	e2433001 	sub	r3, r3, #1	; 0x1
300051f8:	e50b301c 	str	r3, [fp, #-28]
300051fc:	e51b2008 	ldr	r2, [fp, #-8]
30005200:	e51b3010 	ldr	r3, [fp, #-16]
30005204:	e0823003 	add	r3, r2, r3
30005208:	e50b3008 	str	r3, [fp, #-8]
3000520c:	e51b201c 	ldr	r2, [fp, #-28]
30005210:	e51b3024 	ldr	r3, [fp, #-36]
30005214:	e1520003 	cmp	r2, r3
30005218:	aaffffe3 	bge	300051ac <DrawLine+0x510>
3000521c:	e24bd004 	sub	sp, fp, #4	; 0x4
30005220:	e8bd4800 	pop	{fp, lr}
30005224:	e12fff1e 	bx	lr

30005228 <Mire>:
30005228:	e92d4800 	push	{fp, lr}
3000522c:	e28db004 	add	fp, sp, #4	; 0x4
30005230:	e24dd018 	sub	sp, sp, #24	; 0x18
30005234:	eb0002ce 	bl	30005d74 <GetLcdXsize>
30005238:	e1a03000 	mov	r3, r0
3000523c:	e50b300c 	str	r3, [fp, #-12]
30005240:	eb0002d8 	bl	30005da8 <GetLcdYsize>
30005244:	e1a03000 	mov	r3, r0
30005248:	e50b3008 	str	r3, [fp, #-8]
3000524c:	e3a03000 	mov	r3, #0	; 0x0
30005250:	e50b3018 	str	r3, [fp, #-24]
30005254:	ea000044 	b	3000536c <Mire+0x144>
30005258:	e3a03000 	mov	r3, #0	; 0x0
3000525c:	e50b301c 	str	r3, [fp, #-28]
30005260:	ea00003a 	b	30005350 <Mire+0x128>
30005264:	e51b300c 	ldr	r3, [fp, #-12]
30005268:	e1a020a3 	lsr	r2, r3, #1
3000526c:	e51b301c 	ldr	r3, [fp, #-28]
30005270:	e0621003 	rsb	r1, r2, r3
30005274:	e51b300c 	ldr	r3, [fp, #-12]
30005278:	e1a020a3 	lsr	r2, r3, #1
3000527c:	e51b301c 	ldr	r3, [fp, #-28]
30005280:	e0623003 	rsb	r3, r2, r3
30005284:	e0000193 	mul	r0, r3, r1
30005288:	e51b3008 	ldr	r3, [fp, #-8]
3000528c:	e1a020a3 	lsr	r2, r3, #1
30005290:	e51b3018 	ldr	r3, [fp, #-24]
30005294:	e0621003 	rsb	r1, r2, r3
30005298:	e51b3008 	ldr	r3, [fp, #-8]
3000529c:	e1a020a3 	lsr	r2, r3, #1
300052a0:	e51b3018 	ldr	r3, [fp, #-24]
300052a4:	e0623003 	rsb	r3, r2, r3
300052a8:	e0030391 	mul	r3, r1, r3
300052ac:	e0803003 	add	r3, r0, r3
300052b0:	e1a03323 	lsr	r3, r3, #6
300052b4:	e50b3014 	str	r3, [fp, #-20]
300052b8:	e51b3014 	ldr	r3, [fp, #-20]
300052bc:	e1a031a3 	lsr	r3, r3, #3
300052c0:	e54b3010 	strb	r3, [fp, #-16]
300052c4:	e51b3014 	ldr	r3, [fp, #-20]
300052c8:	e1a03123 	lsr	r3, r3, #2
300052cc:	e54b300f 	strb	r3, [fp, #-15]
300052d0:	e51b3014 	ldr	r3, [fp, #-20]
300052d4:	e1a030a3 	lsr	r3, r3, #1
300052d8:	e54b300e 	strb	r3, [fp, #-14]
300052dc:	e51b3014 	ldr	r3, [fp, #-20]
300052e0:	e1a03083 	lsl	r3, r3, #1
300052e4:	e54b300d 	strb	r3, [fp, #-13]
300052e8:	e55b300d 	ldrb	r3, [fp, #-13]
300052ec:	e1a02c03 	lsl	r2, r3, #24
300052f0:	e51b3014 	ldr	r3, [fp, #-20]
300052f4:	e1833002 	orr	r3, r3, r2
300052f8:	e50b3014 	str	r3, [fp, #-20]
300052fc:	e55b3010 	ldrb	r3, [fp, #-16]
30005300:	e1a02803 	lsl	r2, r3, #16
30005304:	e51b3014 	ldr	r3, [fp, #-20]
30005308:	e1833002 	orr	r3, r3, r2
3000530c:	e50b3014 	str	r3, [fp, #-20]
30005310:	e55b300f 	ldrb	r3, [fp, #-15]
30005314:	e1a02403 	lsl	r2, r3, #8
30005318:	e51b3014 	ldr	r3, [fp, #-20]
3000531c:	e1833002 	orr	r3, r3, r2
30005320:	e50b3014 	str	r3, [fp, #-20]
30005324:	e55b200e 	ldrb	r2, [fp, #-14]
30005328:	e51b3014 	ldr	r3, [fp, #-20]
3000532c:	e1833002 	orr	r3, r3, r2
30005330:	e50b3014 	str	r3, [fp, #-20]
30005334:	e51b001c 	ldr	r0, [fp, #-28]
30005338:	e51b1018 	ldr	r1, [fp, #-24]
3000533c:	e51b2014 	ldr	r2, [fp, #-20]
30005340:	ebfffdfe 	bl	30004b40 <PutPixel>
30005344:	e51b301c 	ldr	r3, [fp, #-28]
30005348:	e2833001 	add	r3, r3, #1	; 0x1
3000534c:	e50b301c 	str	r3, [fp, #-28]
30005350:	e51b201c 	ldr	r2, [fp, #-28]
30005354:	e51b300c 	ldr	r3, [fp, #-12]
30005358:	e1520003 	cmp	r2, r3
3000535c:	3affffc0 	bcc	30005264 <Mire+0x3c>
30005360:	e51b3018 	ldr	r3, [fp, #-24]
30005364:	e2833001 	add	r3, r3, #1	; 0x1
30005368:	e50b3018 	str	r3, [fp, #-24]
3000536c:	e51b2018 	ldr	r2, [fp, #-24]
30005370:	e51b3008 	ldr	r3, [fp, #-8]
30005374:	e1520003 	cmp	r2, r3
30005378:	3affffb6 	bcc	30005258 <Mire+0x30>
3000537c:	e24bd004 	sub	sp, fp, #4	; 0x4
30005380:	e8bd4800 	pop	{fp, lr}
30005384:	e12fff1e 	bx	lr

30005388 <ClearScr>:
30005388:	e92d4800 	push	{fp, lr}
3000538c:	e28db004 	add	fp, sp, #4	; 0x4
30005390:	e24dd018 	sub	sp, sp, #24	; 0x18
30005394:	e50b0018 	str	r0, [fp, #-24]
30005398:	eb000275 	bl	30005d74 <GetLcdXsize>
3000539c:	e1a03000 	mov	r3, r0
300053a0:	e50b300c 	str	r3, [fp, #-12]
300053a4:	eb00027f 	bl	30005da8 <GetLcdYsize>
300053a8:	e1a03000 	mov	r3, r0
300053ac:	e50b3008 	str	r3, [fp, #-8]
300053b0:	e3a03000 	mov	r3, #0	; 0x0
300053b4:	e50b3010 	str	r3, [fp, #-16]
300053b8:	ea000010 	b	30005400 <ClearScr+0x78>
300053bc:	e3a03000 	mov	r3, #0	; 0x0
300053c0:	e50b3014 	str	r3, [fp, #-20]
300053c4:	ea000006 	b	300053e4 <ClearScr+0x5c>
300053c8:	e51b0014 	ldr	r0, [fp, #-20]
300053cc:	e51b1010 	ldr	r1, [fp, #-16]
300053d0:	e51b2018 	ldr	r2, [fp, #-24]
300053d4:	ebfffdd9 	bl	30004b40 <PutPixel>
300053d8:	e51b3014 	ldr	r3, [fp, #-20]
300053dc:	e2833001 	add	r3, r3, #1	; 0x1
300053e0:	e50b3014 	str	r3, [fp, #-20]
300053e4:	e51b2014 	ldr	r2, [fp, #-20]
300053e8:	e51b300c 	ldr	r3, [fp, #-12]
300053ec:	e1520003 	cmp	r2, r3
300053f0:	3afffff4 	bcc	300053c8 <ClearScr+0x40>
300053f4:	e51b3010 	ldr	r3, [fp, #-16]
300053f8:	e2833001 	add	r3, r3, #1	; 0x1
300053fc:	e50b3010 	str	r3, [fp, #-16]
30005400:	e51b2010 	ldr	r2, [fp, #-16]
30005404:	e51b3008 	ldr	r3, [fp, #-8]
30005408:	e1520003 	cmp	r2, r3
3000540c:	3affffea 	bcc	300053bc <ClearScr+0x34>
30005410:	e24bd004 	sub	sp, fp, #4	; 0x4
30005414:	e8bd4800 	pop	{fp, lr}
30005418:	e12fff1e 	bx	lr

3000541c <Lcd_Port_Init>:
3000541c:	e92d4800 	push	{fp, lr}
30005420:	e28db004 	add	fp, sp, #4	; 0x4
30005424:	e59f106c 	ldr	r1, [pc, #108]	; 30005498 <Lcd_Port_Init+0x7c>
30005428:	e08f1001 	add	r1, pc, r1
3000542c:	e3a03456 	mov	r3, #1442840576	; 0x56000000
30005430:	e2833028 	add	r3, r3, #40	; 0x28
30005434:	e3e02000 	mvn	r2, #0	; 0x0
30005438:	e5832000 	str	r2, [r3]
3000543c:	e3a02456 	mov	r2, #1442840576	; 0x56000000
30005440:	e2822020 	add	r2, r2, #32	; 0x20
30005444:	e3a03caa 	mov	r3, #43520	; 0xaa00
30005448:	e28330aa 	add	r3, r3, #170	; 0xaa
3000544c:	e1833803 	orr	r3, r3, r3, lsl #16
30005450:	e5823000 	str	r3, [r2]
30005454:	e3a03456 	mov	r3, #1442840576	; 0x56000000
30005458:	e2833038 	add	r3, r3, #56	; 0x38
3000545c:	e3e02000 	mvn	r2, #0	; 0x0
30005460:	e5832000 	str	r2, [r3]
30005464:	e3a02456 	mov	r2, #1442840576	; 0x56000000
30005468:	e2822030 	add	r2, r2, #48	; 0x30
3000546c:	e3a03caa 	mov	r3, #43520	; 0xaa00
30005470:	e28330aa 	add	r3, r3, #170	; 0xaa
30005474:	e1833803 	orr	r3, r3, r3, lsl #16
30005478:	e5823000 	str	r3, [r2]
3000547c:	e59f3018 	ldr	r3, [pc, #24]	; 3000549c <Lcd_Port_Init+0x80>
30005480:	e0813003 	add	r3, r1, r3
30005484:	e1a00003 	mov	r0, r3
30005488:	ebffee86 	bl	30000ea8 <puts>
3000548c:	e24bd004 	sub	sp, fp, #4	; 0x4
30005490:	e8bd4800 	pop	{fp, lr}
30005494:	e12fff1e 	bx	lr
30005498:	cfffabd0 	.word	0xcfffabd0
3000549c:	3000c38c 	.word	0x3000c38c

300054a0 <Tft_Lcd_Init>:
300054a0:	e52db004 	push	{fp}		; (str fp, [sp, #-4]!)
300054a4:	e28db000 	add	fp, sp, #0	; 0x0
300054a8:	e24dd014 	sub	sp, sp, #20	; 0x14
300054ac:	e59f1578 	ldr	r1, [pc, #1400]	; 30005a2c <Tft_Lcd_Init+0x58c>
300054b0:	e50b1010 	str	r1, [fp, #-16]
300054b4:	e51b2010 	ldr	r2, [fp, #-16]
300054b8:	e08f2002 	add	r2, pc, r2
300054bc:	e50b2010 	str	r2, [fp, #-16]
300054c0:	e50b0008 	str	r0, [fp, #-8]
300054c4:	e51b3008 	ldr	r3, [fp, #-8]
300054c8:	e50b300c 	str	r3, [fp, #-12]
300054cc:	e3a03c42 	mov	r3, #16896	; 0x4200
300054d0:	e2833002 	add	r3, r3, #2	; 0x2
300054d4:	e51b100c 	ldr	r1, [fp, #-12]
300054d8:	e1510003 	cmp	r1, r3
300054dc:	0a000096 	beq	3000573c <Tft_Lcd_Init+0x29c>
300054e0:	e3a03c42 	mov	r3, #16896	; 0x4200
300054e4:	e2833002 	add	r3, r3, #2	; 0x2
300054e8:	e51b200c 	ldr	r2, [fp, #-12]
300054ec:	e1520003 	cmp	r2, r3
300054f0:	ca00000a 	bgt	30005520 <Tft_Lcd_Init+0x80>
300054f4:	e3a03c41 	mov	r3, #16640	; 0x4100
300054f8:	e2833002 	add	r3, r3, #2	; 0x2
300054fc:	e51b100c 	ldr	r1, [fp, #-12]
30005500:	e1510003 	cmp	r1, r3
30005504:	0a000010 	beq	3000554c <Tft_Lcd_Init+0xac>
30005508:	e3a03c41 	mov	r3, #16640	; 0x4100
3000550c:	e2833004 	add	r3, r3, #4	; 0x4
30005510:	e51b200c 	ldr	r2, [fp, #-12]
30005514:	e1520003 	cmp	r2, r3
30005518:	0a000049 	beq	30005644 <Tft_Lcd_Init+0x1a4>
3000551c:	ea00013f 	b	30005a20 <Tft_Lcd_Init+0x580>
30005520:	e3a03c42 	mov	r3, #16896	; 0x4200
30005524:	e2833004 	add	r3, r3, #4	; 0x4
30005528:	e51b100c 	ldr	r1, [fp, #-12]
3000552c:	e1510003 	cmp	r1, r3
30005530:	0a0000bf 	beq	30005834 <Tft_Lcd_Init+0x394>
30005534:	e3a03b12 	mov	r3, #18432	; 0x4800
30005538:	e2833008 	add	r3, r3, #8	; 0x8
3000553c:	e51b200c 	ldr	r2, [fp, #-12]
30005540:	e1520003 	cmp	r2, r3
30005544:	0a0000f8 	beq	3000592c <Tft_Lcd_Init+0x48c>
30005548:	ea000134 	b	30005a20 <Tft_Lcd_Init+0x580>
3000554c:	e3a0244d 	mov	r2, #1291845632	; 0x4d000000
30005550:	e3a03e47 	mov	r3, #1136	; 0x470
30005554:	e2833006 	add	r3, r3, #6	; 0x6
30005558:	e5823000 	str	r3, [r2]
3000555c:	e3a0244d 	mov	r2, #1291845632	; 0x4d000000
30005560:	e2822004 	add	r2, r2, #4	; 0x4
30005564:	e3a03753 	mov	r3, #21757952	; 0x14c0000
30005568:	e283390f 	add	r3, r3, #245760	; 0x3c000
3000556c:	e2833049 	add	r3, r3, #73	; 0x49
30005570:	e5823000 	str	r3, [r2]
30005574:	e3a0244d 	mov	r2, #1291845632	; 0x4d000000
30005578:	e2822008 	add	r2, r2, #8	; 0x8
3000557c:	e3a03a8f 	mov	r3, #585728	; 0x8f000
30005580:	e24330ff 	sub	r3, r3, #255	; 0xff
30005584:	e5823000 	str	r3, [r2]
30005588:	e3a0344d 	mov	r3, #1291845632	; 0x4d000000
3000558c:	e283300c 	add	r3, r3, #12	; 0xc
30005590:	e3a02028 	mov	r2, #40	; 0x28
30005594:	e5832000 	str	r2, [r3]
30005598:	e3a0244d 	mov	r2, #1291845632	; 0x4d000000
3000559c:	e2822010 	add	r2, r2, #16	; 0x10
300055a0:	e3a03c0b 	mov	r3, #2816	; 0xb00
300055a4:	e2833002 	add	r3, r3, #2	; 0x2
300055a8:	e5823000 	str	r3, [r2]
300055ac:	e3a0244d 	mov	r2, #1291845632	; 0x4d000000
300055b0:	e2822014 	add	r2, r2, #20	; 0x14
300055b4:	e3a03306 	mov	r3, #402653184	; 0x18000000
300055b8:	e2833602 	add	r3, r3, #2097152	; 0x200000
300055bc:	e5823000 	str	r3, [r2]
300055c0:	e3a0344d 	mov	r3, #1291845632	; 0x4d000000
300055c4:	e2833018 	add	r3, r3, #24	; 0x18
300055c8:	e3a02c96 	mov	r2, #38400	; 0x9600
300055cc:	e5832000 	str	r2, [r3]
300055d0:	e3a0344d 	mov	r3, #1291845632	; 0x4d000000
300055d4:	e283301c 	add	r3, r3, #28	; 0x1c
300055d8:	e3a02078 	mov	r2, #120	; 0x78
300055dc:	e5832000 	str	r2, [r3]
300055e0:	e3a0344d 	mov	r3, #1291845632	; 0x4d000000
300055e4:	e2833050 	add	r3, r3, #80	; 0x50
300055e8:	e3a02000 	mov	r2, #0	; 0x0
300055ec:	e5832000 	str	r2, [r3]
300055f0:	e59f3438 	ldr	r3, [pc, #1080]	; 30005a30 <Tft_Lcd_Init+0x590>
300055f4:	e51b1010 	ldr	r1, [fp, #-16]
300055f8:	e0812003 	add	r2, r1, r3
300055fc:	e3a035c1 	mov	r3, #809500672	; 0x30400000
30005600:	e5823000 	str	r3, [r2]
30005604:	e59f3428 	ldr	r3, [pc, #1064]	; 30005a34 <Tft_Lcd_Init+0x594>
30005608:	e51b1010 	ldr	r1, [fp, #-16]
3000560c:	e0812003 	add	r2, r1, r3
30005610:	e3a03008 	mov	r3, #8	; 0x8
30005614:	e5823000 	str	r3, [r2]
30005618:	e59f3418 	ldr	r3, [pc, #1048]	; 30005a38 <Tft_Lcd_Init+0x598>
3000561c:	e51b1010 	ldr	r1, [fp, #-16]
30005620:	e0812003 	add	r2, r1, r3
30005624:	e3a030f0 	mov	r3, #240	; 0xf0
30005628:	e5823000 	str	r3, [r2]
3000562c:	e59f3408 	ldr	r3, [pc, #1032]	; 30005a3c <Tft_Lcd_Init+0x59c>
30005630:	e51b1010 	ldr	r1, [fp, #-16]
30005634:	e0812003 	add	r2, r1, r3
30005638:	e3a03d05 	mov	r3, #320	; 0x140
3000563c:	e5823000 	str	r3, [r2]
30005640:	ea0000f6 	b	30005a20 <Tft_Lcd_Init+0x580>
30005644:	e3a0244d 	mov	r2, #1291845632	; 0x4d000000
30005648:	e3a03e47 	mov	r3, #1136	; 0x470
3000564c:	e2833008 	add	r3, r3, #8	; 0x8
30005650:	e5823000 	str	r3, [r2]
30005654:	e3a0244d 	mov	r2, #1291845632	; 0x4d000000
30005658:	e2822004 	add	r2, r2, #4	; 0x4
3000565c:	e3a03753 	mov	r3, #21757952	; 0x14c0000
30005660:	e283390f 	add	r3, r3, #245760	; 0x3c000
30005664:	e2833049 	add	r3, r3, #73	; 0x49
30005668:	e5823000 	str	r3, [r2]
3000566c:	e3a0244d 	mov	r2, #1291845632	; 0x4d000000
30005670:	e2822008 	add	r2, r2, #8	; 0x8
30005674:	e3a03a8f 	mov	r3, #585728	; 0x8f000
30005678:	e24330ff 	sub	r3, r3, #255	; 0xff
3000567c:	e5823000 	str	r3, [r2]
30005680:	e3a0344d 	mov	r3, #1291845632	; 0x4d000000
30005684:	e283300c 	add	r3, r3, #12	; 0xc
30005688:	e3a02028 	mov	r2, #40	; 0x28
3000568c:	e5832000 	str	r2, [r3]
30005690:	e3a0244d 	mov	r2, #1291845632	; 0x4d000000
30005694:	e2822010 	add	r2, r2, #16	; 0x10
30005698:	e3a03c0b 	mov	r3, #2816	; 0xb00
3000569c:	e2833002 	add	r3, r3, #2	; 0x2
300056a0:	e5823000 	str	r3, [r2]
300056a4:	e3a0244d 	mov	r2, #1291845632	; 0x4d000000
300056a8:	e2822014 	add	r2, r2, #20	; 0x14
300056ac:	e3a03306 	mov	r3, #402653184	; 0x18000000
300056b0:	e2833602 	add	r3, r3, #2097152	; 0x200000
300056b4:	e5823000 	str	r3, [r2]
300056b8:	e3a0344d 	mov	r3, #1291845632	; 0x4d000000
300056bc:	e2833018 	add	r3, r3, #24	; 0x18
300056c0:	e3a02b4b 	mov	r2, #76800	; 0x12c00
300056c4:	e5832000 	str	r2, [r3]
300056c8:	e3a0344d 	mov	r3, #1291845632	; 0x4d000000
300056cc:	e283301c 	add	r3, r3, #28	; 0x1c
300056d0:	e3a020f0 	mov	r2, #240	; 0xf0
300056d4:	e5832000 	str	r2, [r3]
300056d8:	e3a0344d 	mov	r3, #1291845632	; 0x4d000000
300056dc:	e2833050 	add	r3, r3, #80	; 0x50
300056e0:	e3a02000 	mov	r2, #0	; 0x0
300056e4:	e5832000 	str	r2, [r3]
300056e8:	e59f3340 	ldr	r3, [pc, #832]	; 30005a30 <Tft_Lcd_Init+0x590>
300056ec:	e51b1010 	ldr	r1, [fp, #-16]
300056f0:	e0812003 	add	r2, r1, r3
300056f4:	e3a035c1 	mov	r3, #809500672	; 0x30400000
300056f8:	e5823000 	str	r3, [r2]
300056fc:	e59f3330 	ldr	r3, [pc, #816]	; 30005a34 <Tft_Lcd_Init+0x594>
30005700:	e51b1010 	ldr	r1, [fp, #-16]
30005704:	e0812003 	add	r2, r1, r3
30005708:	e3a03010 	mov	r3, #16	; 0x10
3000570c:	e5823000 	str	r3, [r2]
30005710:	e59f3320 	ldr	r3, [pc, #800]	; 30005a38 <Tft_Lcd_Init+0x598>
30005714:	e51b1010 	ldr	r1, [fp, #-16]
30005718:	e0812003 	add	r2, r1, r3
3000571c:	e3a030f0 	mov	r3, #240	; 0xf0
30005720:	e5823000 	str	r3, [r2]
30005724:	e59f3310 	ldr	r3, [pc, #784]	; 30005a3c <Tft_Lcd_Init+0x59c>
30005728:	e51b1010 	ldr	r1, [fp, #-16]
3000572c:	e0812003 	add	r2, r1, r3
30005730:	e3a03d05 	mov	r3, #320	; 0x140
30005734:	e5823000 	str	r3, [r2]
30005738:	ea0000b8 	b	30005a20 <Tft_Lcd_Init+0x580>
3000573c:	e3a0244d 	mov	r2, #1291845632	; 0x4d000000
30005740:	e3a03e47 	mov	r3, #1136	; 0x470
30005744:	e2833006 	add	r3, r3, #6	; 0x6
30005748:	e5823000 	str	r3, [r2]
3000574c:	e3a0244d 	mov	r2, #1291845632	; 0x4d000000
30005750:	e2822004 	add	r2, r2, #4	; 0x4
30005754:	e3a0375d 	mov	r3, #24379392	; 0x1740000
30005758:	e283390f 	add	r3, r3, #245760	; 0x3c000
3000575c:	e2833049 	add	r3, r3, #73	; 0x49
30005760:	e5823000 	str	r3, [r2]
30005764:	e3a0244d 	mov	r2, #1291845632	; 0x4d000000
30005768:	e2822008 	add	r2, r2, #8	; 0x8
3000576c:	e3a0392a 	mov	r3, #688128	; 0xa8000
30005770:	e24330ff 	sub	r3, r3, #255	; 0xff
30005774:	e5823000 	str	r3, [r2]
30005778:	e3a0344d 	mov	r3, #1291845632	; 0x4d000000
3000577c:	e283300c 	add	r3, r3, #12	; 0xc
30005780:	e3a02028 	mov	r2, #40	; 0x28
30005784:	e5832000 	str	r2, [r3]
30005788:	e3a0244d 	mov	r2, #1291845632	; 0x4d000000
3000578c:	e2822010 	add	r2, r2, #16	; 0x10
30005790:	e3a03c0b 	mov	r3, #2816	; 0xb00
30005794:	e2833002 	add	r3, r3, #2	; 0x2
30005798:	e5823000 	str	r3, [r2]
3000579c:	e3a0244d 	mov	r2, #1291845632	; 0x4d000000
300057a0:	e2822014 	add	r2, r2, #20	; 0x14
300057a4:	e3a03306 	mov	r3, #402653184	; 0x18000000
300057a8:	e2833602 	add	r3, r3, #2097152	; 0x200000
300057ac:	e5823000 	str	r3, [r2]
300057b0:	e3a0344d 	mov	r3, #1291845632	; 0x4d000000
300057b4:	e2833018 	add	r3, r3, #24	; 0x18
300057b8:	e3a02b96 	mov	r2, #153600	; 0x25800
300057bc:	e5832000 	str	r2, [r3]
300057c0:	e3a0344d 	mov	r3, #1291845632	; 0x4d000000
300057c4:	e283301c 	add	r3, r3, #28	; 0x1c
300057c8:	e3a02d05 	mov	r2, #320	; 0x140
300057cc:	e5832000 	str	r2, [r3]
300057d0:	e3a0344d 	mov	r3, #1291845632	; 0x4d000000
300057d4:	e2833050 	add	r3, r3, #80	; 0x50
300057d8:	e3a02000 	mov	r2, #0	; 0x0
300057dc:	e5832000 	str	r2, [r3]
300057e0:	e59f3248 	ldr	r3, [pc, #584]	; 30005a30 <Tft_Lcd_Init+0x590>
300057e4:	e51b1010 	ldr	r1, [fp, #-16]
300057e8:	e0812003 	add	r2, r1, r3
300057ec:	e3a035c1 	mov	r3, #809500672	; 0x30400000
300057f0:	e5823000 	str	r3, [r2]
300057f4:	e59f3238 	ldr	r3, [pc, #568]	; 30005a34 <Tft_Lcd_Init+0x594>
300057f8:	e51b1010 	ldr	r1, [fp, #-16]
300057fc:	e0812003 	add	r2, r1, r3
30005800:	e3a03008 	mov	r3, #8	; 0x8
30005804:	e5823000 	str	r3, [r2]
30005808:	e59f3228 	ldr	r3, [pc, #552]	; 30005a38 <Tft_Lcd_Init+0x598>
3000580c:	e51b1010 	ldr	r1, [fp, #-16]
30005810:	e0812003 	add	r2, r1, r3
30005814:	e3a03d0a 	mov	r3, #640	; 0x280
30005818:	e5823000 	str	r3, [r2]
3000581c:	e59f3218 	ldr	r3, [pc, #536]	; 30005a3c <Tft_Lcd_Init+0x59c>
30005820:	e51b1010 	ldr	r1, [fp, #-16]
30005824:	e0812003 	add	r2, r1, r3
30005828:	e3a03e1e 	mov	r3, #480	; 0x1e0
3000582c:	e5823000 	str	r3, [r2]
30005830:	ea00007a 	b	30005a20 <Tft_Lcd_Init+0x580>
30005834:	e3a0244d 	mov	r2, #1291845632	; 0x4d000000
30005838:	e3a03e47 	mov	r3, #1136	; 0x470
3000583c:	e2833008 	add	r3, r3, #8	; 0x8
30005840:	e5823000 	str	r3, [r2]
30005844:	e3a0244d 	mov	r2, #1291845632	; 0x4d000000
30005848:	e2822004 	add	r2, r2, #4	; 0x4
3000584c:	e3a0375d 	mov	r3, #24379392	; 0x1740000
30005850:	e283390f 	add	r3, r3, #245760	; 0x3c000
30005854:	e2833049 	add	r3, r3, #73	; 0x49
30005858:	e5823000 	str	r3, [r2]
3000585c:	e3a0244d 	mov	r2, #1291845632	; 0x4d000000
30005860:	e2822008 	add	r2, r2, #8	; 0x8
30005864:	e3a0392a 	mov	r3, #688128	; 0xa8000
30005868:	e24330ff 	sub	r3, r3, #255	; 0xff
3000586c:	e5823000 	str	r3, [r2]
30005870:	e3a0344d 	mov	r3, #1291845632	; 0x4d000000
30005874:	e283300c 	add	r3, r3, #12	; 0xc
30005878:	e3a02028 	mov	r2, #40	; 0x28
3000587c:	e5832000 	str	r2, [r3]
30005880:	e3a0244d 	mov	r2, #1291845632	; 0x4d000000
30005884:	e2822010 	add	r2, r2, #16	; 0x10
30005888:	e3a03c0b 	mov	r3, #2816	; 0xb00
3000588c:	e2833002 	add	r3, r3, #2	; 0x2
30005890:	e5823000 	str	r3, [r2]
30005894:	e3a0244d 	mov	r2, #1291845632	; 0x4d000000
30005898:	e2822014 	add	r2, r2, #20	; 0x14
3000589c:	e3a03306 	mov	r3, #402653184	; 0x18000000
300058a0:	e2833602 	add	r3, r3, #2097152	; 0x200000
300058a4:	e5823000 	str	r3, [r2]
300058a8:	e3a0344d 	mov	r3, #1291845632	; 0x4d000000
300058ac:	e2833018 	add	r3, r3, #24	; 0x18
300058b0:	e3a02a4b 	mov	r2, #307200	; 0x4b000
300058b4:	e5832000 	str	r2, [r3]
300058b8:	e3a0344d 	mov	r3, #1291845632	; 0x4d000000
300058bc:	e283301c 	add	r3, r3, #28	; 0x1c
300058c0:	e3a02d0a 	mov	r2, #640	; 0x280
300058c4:	e5832000 	str	r2, [r3]
300058c8:	e3a0344d 	mov	r3, #1291845632	; 0x4d000000
300058cc:	e2833050 	add	r3, r3, #80	; 0x50
300058d0:	e3a02000 	mov	r2, #0	; 0x0
300058d4:	e5832000 	str	r2, [r3]
300058d8:	e59f3150 	ldr	r3, [pc, #336]	; 30005a30 <Tft_Lcd_Init+0x590>
300058dc:	e51b1010 	ldr	r1, [fp, #-16]
300058e0:	e0812003 	add	r2, r1, r3
300058e4:	e3a035c1 	mov	r3, #809500672	; 0x30400000
300058e8:	e5823000 	str	r3, [r2]
300058ec:	e59f3140 	ldr	r3, [pc, #320]	; 30005a34 <Tft_Lcd_Init+0x594>
300058f0:	e51b1010 	ldr	r1, [fp, #-16]
300058f4:	e0812003 	add	r2, r1, r3
300058f8:	e3a03010 	mov	r3, #16	; 0x10
300058fc:	e5823000 	str	r3, [r2]
30005900:	e59f3130 	ldr	r3, [pc, #304]	; 30005a38 <Tft_Lcd_Init+0x598>
30005904:	e51b1010 	ldr	r1, [fp, #-16]
30005908:	e0812003 	add	r2, r1, r3
3000590c:	e3a03d0a 	mov	r3, #640	; 0x280
30005910:	e5823000 	str	r3, [r2]
30005914:	e59f3120 	ldr	r3, [pc, #288]	; 30005a3c <Tft_Lcd_Init+0x59c>
30005918:	e51b1010 	ldr	r1, [fp, #-16]
3000591c:	e0812003 	add	r2, r1, r3
30005920:	e3a03e1e 	mov	r3, #480	; 0x1e0
30005924:	e5823000 	str	r3, [r2]
30005928:	ea00003c 	b	30005a20 <Tft_Lcd_Init+0x580>
3000592c:	e3a0244d 	mov	r2, #1291845632	; 0x4d000000
30005930:	e3a03e47 	mov	r3, #1136	; 0x470
30005934:	e283300a 	add	r3, r3, #10	; 0xa
30005938:	e5823000 	str	r3, [r2]
3000593c:	e3a0244d 	mov	r2, #1291845632	; 0x4d000000
30005940:	e2822004 	add	r2, r2, #4	; 0x4
30005944:	e3a03505 	mov	r3, #20971520	; 0x1400000
30005948:	e283390f 	add	r3, r3, #245760	; 0x3c000
3000594c:	e2833049 	add	r3, r3, #73	; 0x49
30005950:	e5823000 	str	r3, [r2]
30005954:	e3a0244d 	mov	r2, #1291845632	; 0x4d000000
30005958:	e2822008 	add	r2, r2, #8	; 0x8
3000595c:	e3a03a9e 	mov	r3, #647168	; 0x9e000
30005960:	e24330ff 	sub	r3, r3, #255	; 0xff
30005964:	e5823000 	str	r3, [r2]
30005968:	e3a0344d 	mov	r3, #1291845632	; 0x4d000000
3000596c:	e283300c 	add	r3, r3, #12	; 0xc
30005970:	e3a02028 	mov	r2, #40	; 0x28
30005974:	e5832000 	str	r2, [r3]
30005978:	e3a0244d 	mov	r2, #1291845632	; 0x4d000000
3000597c:	e2822010 	add	r2, r2, #16	; 0x10
30005980:	e3a03c13 	mov	r3, #4864	; 0x1300
30005984:	e2833002 	add	r3, r3, #2	; 0x2
30005988:	e5823000 	str	r3, [r2]
3000598c:	e3a0244d 	mov	r2, #1291845632	; 0x4d000000
30005990:	e2822014 	add	r2, r2, #20	; 0x14
30005994:	e3a03306 	mov	r3, #402653184	; 0x18000000
30005998:	e2833602 	add	r3, r3, #2097152	; 0x200000
3000599c:	e5823000 	str	r3, [r2]
300059a0:	e3a0344d 	mov	r3, #1291845632	; 0x4d000000
300059a4:	e2833018 	add	r3, r3, #24	; 0x18
300059a8:	e3a02bff 	mov	r2, #261120	; 0x3fc00
300059ac:	e5832000 	str	r2, [r3]
300059b0:	e3a0344d 	mov	r3, #1291845632	; 0x4d000000
300059b4:	e283301c 	add	r3, r3, #28	; 0x1c
300059b8:	e3a02d0f 	mov	r2, #960	; 0x3c0
300059bc:	e5832000 	str	r2, [r3]
300059c0:	e3a0344d 	mov	r3, #1291845632	; 0x4d000000
300059c4:	e2833050 	add	r3, r3, #80	; 0x50
300059c8:	e3a02000 	mov	r2, #0	; 0x0
300059cc:	e5832000 	str	r2, [r3]
300059d0:	e59f3058 	ldr	r3, [pc, #88]	; 30005a30 <Tft_Lcd_Init+0x590>
300059d4:	e51b1010 	ldr	r1, [fp, #-16]
300059d8:	e0812003 	add	r2, r1, r3
300059dc:	e3a035c1 	mov	r3, #809500672	; 0x30400000
300059e0:	e5823000 	str	r3, [r2]
300059e4:	e59f3048 	ldr	r3, [pc, #72]	; 30005a34 <Tft_Lcd_Init+0x594>
300059e8:	e51b1010 	ldr	r1, [fp, #-16]
300059ec:	e0812003 	add	r2, r1, r3
300059f0:	e3a03018 	mov	r3, #24	; 0x18
300059f4:	e5823000 	str	r3, [r2]
300059f8:	e59f3038 	ldr	r3, [pc, #56]	; 30005a38 <Tft_Lcd_Init+0x598>
300059fc:	e51b1010 	ldr	r1, [fp, #-16]
30005a00:	e0812003 	add	r2, r1, r3
30005a04:	e3a03e1e 	mov	r3, #480	; 0x1e0
30005a08:	e5823000 	str	r3, [r2]
30005a0c:	e59f3028 	ldr	r3, [pc, #40]	; 30005a3c <Tft_Lcd_Init+0x59c>
30005a10:	e51b1010 	ldr	r1, [fp, #-16]
30005a14:	e0812003 	add	r2, r1, r3
30005a18:	e3a03e11 	mov	r3, #272	; 0x110
30005a1c:	e5823000 	str	r3, [r2]
30005a20:	e28bd000 	add	sp, fp, #0	; 0x0
30005a24:	e8bd0800 	pop	{fp}
30005a28:	e12fff1e 	bx	lr
30005a2c:	cfffab40 	.word	0xcfffab40
30005a30:	3000d8cc 	.word	0x3000d8cc
30005a34:	3000d8d0 	.word	0x3000d8d0
30005a38:	3000d8d4 	.word	0x3000d8d4
30005a3c:	3000d8d8 	.word	0x3000d8d8

30005a40 <Lcd_Palette8Bit_Init>:
30005a40:	e52db004 	push	{fp}		; (str fp, [sp, #-4]!)
30005a44:	e28db000 	add	fp, sp, #0	; 0x0
30005a48:	e24dd014 	sub	sp, sp, #20	; 0x14
30005a4c:	e59f0098 	ldr	r0, [pc, #152]	; 30005aec <Lcd_Palette8Bit_Init+0xac>
30005a50:	e50b0010 	str	r0, [fp, #-16]
30005a54:	e51b3010 	ldr	r3, [fp, #-16]
30005a58:	e08f3003 	add	r3, pc, r3
30005a5c:	e50b3010 	str	r3, [fp, #-16]
30005a60:	e3a0244d 	mov	r2, #1291845632	; 0x4d000000
30005a64:	e2822010 	add	r2, r2, #16	; 0x10
30005a68:	e3a0344d 	mov	r3, #1291845632	; 0x4d000000
30005a6c:	e2833010 	add	r3, r3, #16	; 0x10
30005a70:	e5933000 	ldr	r3, [r3]
30005a74:	e3833b02 	orr	r3, r3, #2048	; 0x800
30005a78:	e5823000 	str	r3, [r2]
30005a7c:	e3a0344d 	mov	r3, #1291845632	; 0x4d000000
30005a80:	e2833b01 	add	r3, r3, #1024	; 0x400
30005a84:	e50b3008 	str	r3, [fp, #-8]
30005a88:	e3a03000 	mov	r3, #0	; 0x0
30005a8c:	e50b300c 	str	r3, [fp, #-12]
30005a90:	ea00000f 	b	30005ad4 <Lcd_Palette8Bit_Init+0x94>
30005a94:	e51b100c 	ldr	r1, [fp, #-12]
30005a98:	e59f3050 	ldr	r3, [pc, #80]	; 30005af0 <Lcd_Palette8Bit_Init+0xb0>
30005a9c:	e51b0010 	ldr	r0, [fp, #-16]
30005aa0:	e0802003 	add	r2, r0, r3
30005aa4:	e1a03081 	lsl	r3, r1, #1
30005aa8:	e0823003 	add	r3, r2, r3
30005aac:	e1d330b0 	ldrh	r3, [r3]
30005ab0:	e1a02003 	mov	r2, r3
30005ab4:	e51b3008 	ldr	r3, [fp, #-8]
30005ab8:	e5832000 	str	r2, [r3]
30005abc:	e51b3008 	ldr	r3, [fp, #-8]
30005ac0:	e2833004 	add	r3, r3, #4	; 0x4
30005ac4:	e50b3008 	str	r3, [fp, #-8]
30005ac8:	e51b300c 	ldr	r3, [fp, #-12]
30005acc:	e2833001 	add	r3, r3, #1	; 0x1
30005ad0:	e50b300c 	str	r3, [fp, #-12]
30005ad4:	e51b300c 	ldr	r3, [fp, #-12]
30005ad8:	e35300ff 	cmp	r3, #255	; 0xff
30005adc:	daffffec 	ble	30005a94 <Lcd_Palette8Bit_Init+0x54>
30005ae0:	e28bd000 	add	sp, fp, #0	; 0x0
30005ae4:	e8bd0800 	pop	{fp}
30005ae8:	e12fff1e 	bx	lr
30005aec:	cfffa5a0 	.word	0xcfffa5a0
30005af0:	3000c18c 	.word	0x3000c18c

30005af4 <ChangePalette>:
30005af4:	e52db004 	push	{fp}		; (str fp, [sp, #-4]!)
30005af8:	e28db000 	add	fp, sp, #0	; 0x0
30005afc:	e24dd01c 	sub	sp, sp, #28	; 0x1c
30005b00:	e50b0018 	str	r0, [fp, #-24]
30005b04:	e3a0344d 	mov	r3, #1291845632	; 0x4d000000
30005b08:	e2833b01 	add	r3, r3, #1024	; 0x400
30005b0c:	e50b3008 	str	r3, [fp, #-8]
30005b10:	e3a03000 	mov	r3, #0	; 0x0
30005b14:	e50b3010 	str	r3, [fp, #-16]
30005b18:	ea00001f 	b	30005b9c <ChangePalette+0xa8>
30005b1c:	e51b3018 	ldr	r3, [fp, #-24]
30005b20:	e1a039a3 	lsr	r3, r3, #19
30005b24:	e54b300b 	strb	r3, [fp, #-11]
30005b28:	e51b3018 	ldr	r3, [fp, #-24]
30005b2c:	e1a03523 	lsr	r3, r3, #10
30005b30:	e54b300a 	strb	r3, [fp, #-10]
30005b34:	e51b3018 	ldr	r3, [fp, #-24]
30005b38:	e1a031a3 	lsr	r3, r3, #3
30005b3c:	e54b3009 	strb	r3, [fp, #-9]
30005b40:	e55b300b 	ldrb	r3, [fp, #-11]
30005b44:	e1a02583 	lsl	r2, r3, #11
30005b48:	e55b300a 	ldrb	r3, [fp, #-10]
30005b4c:	e1a03283 	lsl	r3, r3, #5
30005b50:	e1822003 	orr	r2, r2, r3
30005b54:	e55b3009 	ldrb	r3, [fp, #-9]
30005b58:	e1823003 	orr	r3, r2, r3
30005b5c:	e50b3018 	str	r3, [fp, #-24]
30005b60:	e3a0344d 	mov	r3, #1291845632	; 0x4d000000
30005b64:	e2833010 	add	r3, r3, #16	; 0x10
30005b68:	e5933000 	ldr	r3, [r3]
30005b6c:	e1a03823 	lsr	r3, r3, #16
30005b70:	e3530002 	cmp	r3, #2	; 0x2
30005b74:	0afffff9 	beq	30005b60 <ChangePalette+0x6c>
30005b78:	e51b2008 	ldr	r2, [fp, #-8]
30005b7c:	e51b3018 	ldr	r3, [fp, #-24]
30005b80:	e5823000 	str	r3, [r2]
30005b84:	e51b3008 	ldr	r3, [fp, #-8]
30005b88:	e2833004 	add	r3, r3, #4	; 0x4
30005b8c:	e50b3008 	str	r3, [fp, #-8]
30005b90:	e51b3010 	ldr	r3, [fp, #-16]
30005b94:	e2833001 	add	r3, r3, #1	; 0x1
30005b98:	e50b3010 	str	r3, [fp, #-16]
30005b9c:	e51b3010 	ldr	r3, [fp, #-16]
30005ba0:	e35300ff 	cmp	r3, #255	; 0xff
30005ba4:	daffffdc 	ble	30005b1c <ChangePalette+0x28>
30005ba8:	e28bd000 	add	sp, fp, #0	; 0x0
30005bac:	e8bd0800 	pop	{fp}
30005bb0:	e12fff1e 	bx	lr

30005bb4 <Lcd_PowerEnable>:
30005bb4:	e52db004 	push	{fp}		; (str fp, [sp, #-4]!)
30005bb8:	e28db000 	add	fp, sp, #0	; 0x0
30005bbc:	e24dd00c 	sub	sp, sp, #12	; 0xc
30005bc0:	e50b0008 	str	r0, [fp, #-8]
30005bc4:	e50b100c 	str	r1, [fp, #-12]
30005bc8:	e3a02456 	mov	r2, #1442840576	; 0x56000000
30005bcc:	e2822060 	add	r2, r2, #96	; 0x60
30005bd0:	e3a03456 	mov	r3, #1442840576	; 0x56000000
30005bd4:	e2833060 	add	r3, r3, #96	; 0x60
30005bd8:	e5933000 	ldr	r3, [r3]
30005bdc:	e3833c03 	orr	r3, r3, #768	; 0x300
30005be0:	e5823000 	str	r3, [r2]
30005be4:	e3a02456 	mov	r2, #1442840576	; 0x56000000
30005be8:	e2822068 	add	r2, r2, #104	; 0x68
30005bec:	e3a03456 	mov	r3, #1442840576	; 0x56000000
30005bf0:	e2833068 	add	r3, r3, #104	; 0x68
30005bf4:	e5933000 	ldr	r3, [r3]
30005bf8:	e3833010 	orr	r3, r3, #16	; 0x10
30005bfc:	e5823000 	str	r3, [r2]
30005c00:	e3a0244d 	mov	r2, #1291845632	; 0x4d000000
30005c04:	e2822010 	add	r2, r2, #16	; 0x10
30005c08:	e3a0344d 	mov	r3, #1291845632	; 0x4d000000
30005c0c:	e2833010 	add	r3, r3, #16	; 0x10
30005c10:	e5933000 	ldr	r3, [r3]
30005c14:	e3c31020 	bic	r1, r3, #32	; 0x20
30005c18:	e51b3008 	ldr	r3, [fp, #-8]
30005c1c:	e1a03283 	lsl	r3, r3, #5
30005c20:	e1813003 	orr	r3, r1, r3
30005c24:	e5823000 	str	r3, [r2]
30005c28:	e3a0244d 	mov	r2, #1291845632	; 0x4d000000
30005c2c:	e2822010 	add	r2, r2, #16	; 0x10
30005c30:	e3a0344d 	mov	r3, #1291845632	; 0x4d000000
30005c34:	e2833010 	add	r3, r3, #16	; 0x10
30005c38:	e5933000 	ldr	r3, [r3]
30005c3c:	e3c31008 	bic	r1, r3, #8	; 0x8
30005c40:	e51b300c 	ldr	r3, [fp, #-12]
30005c44:	e1a03183 	lsl	r3, r3, #3
30005c48:	e1813003 	orr	r3, r1, r3
30005c4c:	e5823000 	str	r3, [r2]
30005c50:	e28bd000 	add	sp, fp, #0	; 0x0
30005c54:	e8bd0800 	pop	{fp}
30005c58:	e12fff1e 	bx	lr

30005c5c <Lcd_EnvidOnOff>:
30005c5c:	e52db004 	push	{fp}		; (str fp, [sp, #-4]!)
30005c60:	e28db000 	add	fp, sp, #0	; 0x0
30005c64:	e24dd00c 	sub	sp, sp, #12	; 0xc
30005c68:	e50b0008 	str	r0, [fp, #-8]
30005c6c:	e51b3008 	ldr	r3, [fp, #-8]
30005c70:	e3530001 	cmp	r3, #1	; 0x1
30005c74:	1a000005 	bne	30005c90 <Lcd_EnvidOnOff+0x34>
30005c78:	e3a0244d 	mov	r2, #1291845632	; 0x4d000000
30005c7c:	e3a0344d 	mov	r3, #1291845632	; 0x4d000000
30005c80:	e5933000 	ldr	r3, [r3]
30005c84:	e3833001 	orr	r3, r3, #1	; 0x1
30005c88:	e5823000 	str	r3, [r2]
30005c8c:	ea000005 	b	30005ca8 <Lcd_EnvidOnOff+0x4c>
30005c90:	e3a0244d 	mov	r2, #1291845632	; 0x4d000000
30005c94:	e3a0344d 	mov	r3, #1291845632	; 0x4d000000
30005c98:	e5933000 	ldr	r3, [r3]
30005c9c:	e3c3337f 	bic	r3, r3, #-67108863	; 0xfc000001
30005ca0:	e3c337ff 	bic	r3, r3, #66846720	; 0x3fc0000
30005ca4:	e5823000 	str	r3, [r2]
30005ca8:	e28bd000 	add	sp, fp, #0	; 0x0
30005cac:	e8bd0800 	pop	{fp}
30005cb0:	e12fff1e 	bx	lr

30005cb4 <ClearScrWithTmpPlt>:
30005cb4:	e52db004 	push	{fp}		; (str fp, [sp, #-4]!)
30005cb8:	e28db000 	add	fp, sp, #0	; 0x0
30005cbc:	e24dd00c 	sub	sp, sp, #12	; 0xc
30005cc0:	e50b0008 	str	r0, [fp, #-8]
30005cc4:	e3a0244d 	mov	r2, #1291845632	; 0x4d000000
30005cc8:	e2822050 	add	r2, r2, #80	; 0x50
30005ccc:	e51b3008 	ldr	r3, [fp, #-8]
30005cd0:	e3c334ff 	bic	r3, r3, #-16777216	; 0xff000000
30005cd4:	e3833401 	orr	r3, r3, #16777216	; 0x1000000
30005cd8:	e5823000 	str	r3, [r2]
30005cdc:	e28bd000 	add	sp, fp, #0	; 0x0
30005ce0:	e8bd0800 	pop	{fp}
30005ce4:	e12fff1e 	bx	lr

30005ce8 <DisableTmpPlt>:
30005ce8:	e52db004 	push	{fp}		; (str fp, [sp, #-4]!)
30005cec:	e28db000 	add	fp, sp, #0	; 0x0
30005cf0:	e3a0344d 	mov	r3, #1291845632	; 0x4d000000
30005cf4:	e2833050 	add	r3, r3, #80	; 0x50
30005cf8:	e3a02000 	mov	r2, #0	; 0x0
30005cfc:	e5832000 	str	r2, [r3]
30005d00:	e28bd000 	add	sp, fp, #0	; 0x0
30005d04:	e8bd0800 	pop	{fp}
30005d08:	e12fff1e 	bx	lr

30005d0c <GetLcdFBbase>:
30005d0c:	e52db004 	push	{fp}		; (str fp, [sp, #-4]!)
30005d10:	e28db000 	add	fp, sp, #0	; 0x0
30005d14:	e59f301c 	ldr	r3, [pc, #28]	; 30005d38 <GetLcdFBbase+0x2c>
30005d18:	e08f3003 	add	r3, pc, r3
30005d1c:	e59f2018 	ldr	r2, [pc, #24]	; 30005d3c <GetLcdFBbase+0x30>
30005d20:	e0833002 	add	r3, r3, r2
30005d24:	e5933000 	ldr	r3, [r3]
30005d28:	e1a00003 	mov	r0, r3
30005d2c:	e28bd000 	add	sp, fp, #0	; 0x0
30005d30:	e8bd0800 	pop	{fp}
30005d34:	e12fff1e 	bx	lr
30005d38:	cfffa2e0 	.word	0xcfffa2e0
30005d3c:	3000d8cc 	.word	0x3000d8cc

30005d40 <GetLcdBpp>:
30005d40:	e52db004 	push	{fp}		; (str fp, [sp, #-4]!)
30005d44:	e28db000 	add	fp, sp, #0	; 0x0
30005d48:	e59f301c 	ldr	r3, [pc, #28]	; 30005d6c <GetLcdBpp+0x2c>
30005d4c:	e08f3003 	add	r3, pc, r3
30005d50:	e59f2018 	ldr	r2, [pc, #24]	; 30005d70 <GetLcdBpp+0x30>
30005d54:	e0833002 	add	r3, r3, r2
30005d58:	e5933000 	ldr	r3, [r3]
30005d5c:	e1a00003 	mov	r0, r3
30005d60:	e28bd000 	add	sp, fp, #0	; 0x0
30005d64:	e8bd0800 	pop	{fp}
30005d68:	e12fff1e 	bx	lr
30005d6c:	cfffa2ac 	.word	0xcfffa2ac
30005d70:	3000d8d0 	.word	0x3000d8d0

30005d74 <GetLcdXsize>:
30005d74:	e52db004 	push	{fp}		; (str fp, [sp, #-4]!)
30005d78:	e28db000 	add	fp, sp, #0	; 0x0
30005d7c:	e59f301c 	ldr	r3, [pc, #28]	; 30005da0 <GetLcdXsize+0x2c>
30005d80:	e08f3003 	add	r3, pc, r3
30005d84:	e59f2018 	ldr	r2, [pc, #24]	; 30005da4 <GetLcdXsize+0x30>
30005d88:	e0833002 	add	r3, r3, r2
30005d8c:	e5933000 	ldr	r3, [r3]
30005d90:	e1a00003 	mov	r0, r3
30005d94:	e28bd000 	add	sp, fp, #0	; 0x0
30005d98:	e8bd0800 	pop	{fp}
30005d9c:	e12fff1e 	bx	lr
30005da0:	cfffa278 	.word	0xcfffa278
30005da4:	3000d8d4 	.word	0x3000d8d4

30005da8 <GetLcdYsize>:
30005da8:	e52db004 	push	{fp}		; (str fp, [sp, #-4]!)
30005dac:	e28db000 	add	fp, sp, #0	; 0x0
30005db0:	e59f301c 	ldr	r3, [pc, #28]	; 30005dd4 <GetLcdYsize+0x2c>
30005db4:	e08f3003 	add	r3, pc, r3
30005db8:	e59f2018 	ldr	r2, [pc, #24]	; 30005dd8 <GetLcdYsize+0x30>
30005dbc:	e0833002 	add	r3, r3, r2
30005dc0:	e5933000 	ldr	r3, [r3]
30005dc4:	e1a00003 	mov	r0, r3
30005dc8:	e28bd000 	add	sp, fp, #0	; 0x0
30005dcc:	e8bd0800 	pop	{fp}
30005dd0:	e12fff1e 	bx	lr
30005dd4:	cfffa244 	.word	0xcfffa244
30005dd8:	3000d8d8 	.word	0x3000d8d8

30005ddc <Test_Lcd_Tft_8Bit_240320>:
30005ddc:	e92d4810 	push	{r4, fp, lr}
30005de0:	e28db008 	add	fp, sp, #8	; 0x8
30005de4:	e24dd00c 	sub	sp, sp, #12	; 0xc
30005de8:	e59f41ec 	ldr	r4, [pc, #492]	; 30005fdc <Test_Lcd_Tft_8Bit_240320+0x200>
30005dec:	e08f4004 	add	r4, pc, r4
30005df0:	ebfffd89 	bl	3000541c <Lcd_Port_Init>
30005df4:	e3a00c41 	mov	r0, #16640	; 0x4100
30005df8:	e2800002 	add	r0, r0, #2	; 0x2
30005dfc:	ebfffda7 	bl	300054a0 <Tft_Lcd_Init>
30005e00:	e3a00000 	mov	r0, #0	; 0x0
30005e04:	e3a01001 	mov	r1, #1	; 0x1
30005e08:	ebffff69 	bl	30005bb4 <Lcd_PowerEnable>
30005e0c:	e3a00001 	mov	r0, #1	; 0x1
30005e10:	ebffff91 	bl	30005c5c <Lcd_EnvidOnOff>
30005e14:	ebffff09 	bl	30005a40 <Lcd_Palette8Bit_Init>
30005e18:	e3a00000 	mov	r0, #0	; 0x0
30005e1c:	ebfffd59 	bl	30005388 <ClearScr>
30005e20:	e59f31b8 	ldr	r3, [pc, #440]	; 30005fe0 <Test_Lcd_Tft_8Bit_240320+0x204>
30005e24:	e0843003 	add	r3, r4, r3
30005e28:	e1a00003 	mov	r0, r3
30005e2c:	ebffec1d 	bl	30000ea8 <puts>
30005e30:	e59f31ac 	ldr	r3, [pc, #428]	; 30005fe4 <Test_Lcd_Tft_8Bit_240320+0x208>
30005e34:	e0843003 	add	r3, r4, r3
30005e38:	e1a00003 	mov	r0, r3
30005e3c:	ebffec19 	bl	30000ea8 <puts>
30005e40:	ebffea31 	bl	3000070c <getc>
30005e44:	e3a03000 	mov	r3, #0	; 0x0
30005e48:	e58d3000 	str	r3, [sp]
30005e4c:	e3a00000 	mov	r0, #0	; 0x0
30005e50:	e3a01000 	mov	r1, #0	; 0x0
30005e54:	e3a020ef 	mov	r2, #239	; 0xef
30005e58:	e3a03000 	mov	r3, #0	; 0x0
30005e5c:	ebfffb8e 	bl	30004c9c <DrawLine>
30005e60:	e3a03001 	mov	r3, #1	; 0x1
30005e64:	e58d3000 	str	r3, [sp]
30005e68:	e3a00000 	mov	r0, #0	; 0x0
30005e6c:	e3a01000 	mov	r1, #0	; 0x0
30005e70:	e3a02000 	mov	r2, #0	; 0x0
30005e74:	e3a03f4f 	mov	r3, #316	; 0x13c
30005e78:	e2833003 	add	r3, r3, #3	; 0x3
30005e7c:	ebfffb86 	bl	30004c9c <DrawLine>
30005e80:	e3a03002 	mov	r3, #2	; 0x2
30005e84:	e58d3000 	str	r3, [sp]
30005e88:	e3a000ef 	mov	r0, #239	; 0xef
30005e8c:	e3a01000 	mov	r1, #0	; 0x0
30005e90:	e3a020ef 	mov	r2, #239	; 0xef
30005e94:	e3a03f4f 	mov	r3, #316	; 0x13c
30005e98:	e2833003 	add	r3, r3, #3	; 0x3
30005e9c:	ebfffb7e 	bl	30004c9c <DrawLine>
30005ea0:	e3a03004 	mov	r3, #4	; 0x4
30005ea4:	e58d3000 	str	r3, [sp]
30005ea8:	e3a00000 	mov	r0, #0	; 0x0
30005eac:	e3a01f4f 	mov	r1, #316	; 0x13c
30005eb0:	e2811003 	add	r1, r1, #3	; 0x3
30005eb4:	e3a020ef 	mov	r2, #239	; 0xef
30005eb8:	e3a03f4f 	mov	r3, #316	; 0x13c
30005ebc:	e2833003 	add	r3, r3, #3	; 0x3
30005ec0:	ebfffb75 	bl	30004c9c <DrawLine>
30005ec4:	e3a03008 	mov	r3, #8	; 0x8
30005ec8:	e58d3000 	str	r3, [sp]
30005ecc:	e3a00000 	mov	r0, #0	; 0x0
30005ed0:	e3a01000 	mov	r1, #0	; 0x0
30005ed4:	e3a020ef 	mov	r2, #239	; 0xef
30005ed8:	e3a03f4f 	mov	r3, #316	; 0x13c
30005edc:	e2833003 	add	r3, r3, #3	; 0x3
30005ee0:	ebfffb6d 	bl	30004c9c <DrawLine>
30005ee4:	e3a03010 	mov	r3, #16	; 0x10
30005ee8:	e58d3000 	str	r3, [sp]
30005eec:	e3a000ef 	mov	r0, #239	; 0xef
30005ef0:	e3a01000 	mov	r1, #0	; 0x0
30005ef4:	e3a02000 	mov	r2, #0	; 0x0
30005ef8:	e3a03f4f 	mov	r3, #316	; 0x13c
30005efc:	e2833003 	add	r3, r3, #3	; 0x3
30005f00:	ebfffb65 	bl	30004c9c <DrawLine>
30005f04:	e3a03020 	mov	r3, #32	; 0x20
30005f08:	e58d3000 	str	r3, [sp]
30005f0c:	e3a00078 	mov	r0, #120	; 0x78
30005f10:	e3a01000 	mov	r1, #0	; 0x0
30005f14:	e3a02078 	mov	r2, #120	; 0x78
30005f18:	e3a03f4f 	mov	r3, #316	; 0x13c
30005f1c:	e2833003 	add	r3, r3, #3	; 0x3
30005f20:	ebfffb5d 	bl	30004c9c <DrawLine>
30005f24:	e3a03040 	mov	r3, #64	; 0x40
30005f28:	e58d3000 	str	r3, [sp]
30005f2c:	e3a00000 	mov	r0, #0	; 0x0
30005f30:	e3a010a0 	mov	r1, #160	; 0xa0
30005f34:	e3a020ef 	mov	r2, #239	; 0xef
30005f38:	e3a030a0 	mov	r3, #160	; 0xa0
30005f3c:	ebfffb56 	bl	30004c9c <DrawLine>
30005f40:	e59f30a0 	ldr	r3, [pc, #160]	; 30005fe8 <Test_Lcd_Tft_8Bit_240320+0x20c>
30005f44:	e0843003 	add	r3, r4, r3
30005f48:	e1a00003 	mov	r0, r3
30005f4c:	ebffebd5 	bl	30000ea8 <puts>
30005f50:	ebffe9ed 	bl	3000070c <getc>
30005f54:	ebfffcb3 	bl	30005228 <Mire>
30005f58:	e59f308c 	ldr	r3, [pc, #140]	; 30005fec <Test_Lcd_Tft_8Bit_240320+0x210>
30005f5c:	e0843003 	add	r3, r4, r3
30005f60:	e1a00003 	mov	r0, r3
30005f64:	ebffebcf 	bl	30000ea8 <puts>
30005f68:	ebffe9e7 	bl	3000070c <getc>
30005f6c:	e3a00080 	mov	r0, #128	; 0x80
30005f70:	ebfffd04 	bl	30005388 <ClearScr>
30005f74:	e59f3074 	ldr	r3, [pc, #116]	; 30005ff0 <Test_Lcd_Tft_8Bit_240320+0x214>
30005f78:	e0843003 	add	r3, r4, r3
30005f7c:	e1a00003 	mov	r0, r3
30005f80:	ebffebc8 	bl	30000ea8 <puts>
30005f84:	ebffe9e0 	bl	3000070c <getc>
30005f88:	e3a000ff 	mov	r0, #255	; 0xff
30005f8c:	ebffff48 	bl	30005cb4 <ClearScrWithTmpPlt>
30005f90:	e59f305c 	ldr	r3, [pc, #92]	; 30005ff4 <Test_Lcd_Tft_8Bit_240320+0x218>
30005f94:	e0843003 	add	r3, r4, r3
30005f98:	e1a00003 	mov	r0, r3
30005f9c:	ebffebc1 	bl	30000ea8 <puts>
30005fa0:	ebffe9d9 	bl	3000070c <getc>
30005fa4:	ebffff4f 	bl	30005ce8 <DisableTmpPlt>
30005fa8:	e3a00401 	mov	r0, #16777216	; 0x1000000
30005fac:	e2400c01 	sub	r0, r0, #256	; 0x100
30005fb0:	ebfffecf 	bl	30005af4 <ChangePalette>
30005fb4:	e59f303c 	ldr	r3, [pc, #60]	; 30005ff8 <Test_Lcd_Tft_8Bit_240320+0x21c>
30005fb8:	e0843003 	add	r3, r4, r3
30005fbc:	e1a00003 	mov	r0, r3
30005fc0:	ebffebb8 	bl	30000ea8 <puts>
30005fc4:	ebffe9d0 	bl	3000070c <getc>
30005fc8:	e3a00000 	mov	r0, #0	; 0x0
30005fcc:	ebffff22 	bl	30005c5c <Lcd_EnvidOnOff>
30005fd0:	e24bd008 	sub	sp, fp, #8	; 0x8
30005fd4:	e8bd4810 	pop	{r4, fp, lr}
30005fd8:	e12fff1e 	bx	lr
30005fdc:	cfffa20c 	.word	0xcfffa20c
30005fe0:	3000c3b0 	.word	0x3000c3b0
30005fe4:	3000c3d0 	.word	0x3000c3d0
30005fe8:	3000c3f0 	.word	0x3000c3f0
30005fec:	3000c414 	.word	0x3000c414
30005ff0:	3000c448 	.word	0x3000c448
30005ff4:	3000c484 	.word	0x3000c484
30005ff8:	3000c4b4 	.word	0x3000c4b4

30005ffc <Test_Lcd_Tft_16Bit_240320>:
30005ffc:	e92d4810 	push	{r4, fp, lr}
30006000:	e28db008 	add	fp, sp, #8	; 0x8
30006004:	e24dd00c 	sub	sp, sp, #12	; 0xc
30006008:	e59f41dc 	ldr	r4, [pc, #476]	; 300061ec <Test_Lcd_Tft_16Bit_240320+0x1f0>
3000600c:	e08f4004 	add	r4, pc, r4
30006010:	ebfffd01 	bl	3000541c <Lcd_Port_Init>
30006014:	e3a00c41 	mov	r0, #16640	; 0x4100
30006018:	e2800004 	add	r0, r0, #4	; 0x4
3000601c:	ebfffd1f 	bl	300054a0 <Tft_Lcd_Init>
30006020:	e3a00000 	mov	r0, #0	; 0x0
30006024:	e3a01001 	mov	r1, #1	; 0x1
30006028:	ebfffee1 	bl	30005bb4 <Lcd_PowerEnable>
3000602c:	e3a00001 	mov	r0, #1	; 0x1
30006030:	ebffff09 	bl	30005c5c <Lcd_EnvidOnOff>
30006034:	e3a00000 	mov	r0, #0	; 0x0
30006038:	ebfffcd2 	bl	30005388 <ClearScr>
3000603c:	e59f31ac 	ldr	r3, [pc, #428]	; 300061f0 <Test_Lcd_Tft_16Bit_240320+0x1f4>
30006040:	e0843003 	add	r3, r4, r3
30006044:	e1a00003 	mov	r0, r3
30006048:	ebffeb96 	bl	30000ea8 <puts>
3000604c:	e59f31a0 	ldr	r3, [pc, #416]	; 300061f4 <Test_Lcd_Tft_16Bit_240320+0x1f8>
30006050:	e0843003 	add	r3, r4, r3
30006054:	e1a00003 	mov	r0, r3
30006058:	ebffeb92 	bl	30000ea8 <puts>
3000605c:	ebffe9aa 	bl	3000070c <getc>
30006060:	e3a038ff 	mov	r3, #16711680	; 0xff0000
30006064:	e58d3000 	str	r3, [sp]
30006068:	e3a00000 	mov	r0, #0	; 0x0
3000606c:	e3a01000 	mov	r1, #0	; 0x0
30006070:	e3a020ef 	mov	r2, #239	; 0xef
30006074:	e3a03000 	mov	r3, #0	; 0x0
30006078:	ebfffb07 	bl	30004c9c <DrawLine>
3000607c:	e3a03cff 	mov	r3, #65280	; 0xff00
30006080:	e58d3000 	str	r3, [sp]
30006084:	e3a00000 	mov	r0, #0	; 0x0
30006088:	e3a01000 	mov	r1, #0	; 0x0
3000608c:	e3a02000 	mov	r2, #0	; 0x0
30006090:	e3a03f4f 	mov	r3, #316	; 0x13c
30006094:	e2833003 	add	r3, r3, #3	; 0x3
30006098:	ebfffaff 	bl	30004c9c <DrawLine>
3000609c:	e3a030ff 	mov	r3, #255	; 0xff
300060a0:	e58d3000 	str	r3, [sp]
300060a4:	e3a000ef 	mov	r0, #239	; 0xef
300060a8:	e3a01000 	mov	r1, #0	; 0x0
300060ac:	e3a020ef 	mov	r2, #239	; 0xef
300060b0:	e3a03f4f 	mov	r3, #316	; 0x13c
300060b4:	e2833003 	add	r3, r3, #3	; 0x3
300060b8:	ebfffaf7 	bl	30004c9c <DrawLine>
300060bc:	e3e034ff 	mvn	r3, #-16777216	; 0xff000000
300060c0:	e58d3000 	str	r3, [sp]
300060c4:	e3a00000 	mov	r0, #0	; 0x0
300060c8:	e3a01f4f 	mov	r1, #316	; 0x13c
300060cc:	e2811003 	add	r1, r1, #3	; 0x3
300060d0:	e3a020ef 	mov	r2, #239	; 0xef
300060d4:	e3a03f4f 	mov	r3, #316	; 0x13c
300060d8:	e2833003 	add	r3, r3, #3	; 0x3
300060dc:	ebfffaee 	bl	30004c9c <DrawLine>
300060e0:	e3a03401 	mov	r3, #16777216	; 0x1000000
300060e4:	e2433c01 	sub	r3, r3, #256	; 0x100
300060e8:	e58d3000 	str	r3, [sp]
300060ec:	e3a00000 	mov	r0, #0	; 0x0
300060f0:	e3a01000 	mov	r1, #0	; 0x0
300060f4:	e3a020ef 	mov	r2, #239	; 0xef
300060f8:	e3a03f4f 	mov	r3, #316	; 0x13c
300060fc:	e2833003 	add	r3, r3, #3	; 0x3
30006100:	ebfffae5 	bl	30004c9c <DrawLine>
30006104:	e3a03502 	mov	r3, #8388608	; 0x800000
30006108:	e28330ff 	add	r3, r3, #255	; 0xff
3000610c:	e58d3000 	str	r3, [sp]
30006110:	e3a000ef 	mov	r0, #239	; 0xef
30006114:	e3a01000 	mov	r1, #0	; 0x0
30006118:	e3a02000 	mov	r2, #0	; 0x0
3000611c:	e3a03f4f 	mov	r3, #316	; 0x13c
30006120:	e2833003 	add	r3, r3, #3	; 0x3
30006124:	ebfffadc 	bl	30004c9c <DrawLine>
30006128:	e3a038e6 	mov	r3, #15073280	; 0xe60000
3000612c:	e2833b3a 	add	r3, r3, #59392	; 0xe800
30006130:	e28330fa 	add	r3, r3, #250	; 0xfa
30006134:	e58d3000 	str	r3, [sp]
30006138:	e3a00078 	mov	r0, #120	; 0x78
3000613c:	e3a01000 	mov	r1, #0	; 0x0
30006140:	e3a02078 	mov	r2, #120	; 0x78
30006144:	e3a03f4f 	mov	r3, #316	; 0x13c
30006148:	e2833003 	add	r3, r3, #3	; 0x3
3000614c:	ebfffad2 	bl	30004c9c <DrawLine>
30006150:	e3a038cd 	mov	r3, #13434880	; 0xcd0000
30006154:	e2833c7f 	add	r3, r3, #32512	; 0x7f00
30006158:	e2833032 	add	r3, r3, #50	; 0x32
3000615c:	e58d3000 	str	r3, [sp]
30006160:	e3a00000 	mov	r0, #0	; 0x0
30006164:	e3a010a0 	mov	r1, #160	; 0xa0
30006168:	e3a020ef 	mov	r2, #239	; 0xef
3000616c:	e3a030a0 	mov	r3, #160	; 0xa0
30006170:	ebfffac9 	bl	30004c9c <DrawLine>
30006174:	e59f307c 	ldr	r3, [pc, #124]	; 300061f8 <Test_Lcd_Tft_16Bit_240320+0x1fc>
30006178:	e0843003 	add	r3, r4, r3
3000617c:	e1a00003 	mov	r0, r3
30006180:	ebffeb48 	bl	30000ea8 <puts>
30006184:	ebffe960 	bl	3000070c <getc>
30006188:	ebfffc26 	bl	30005228 <Mire>
3000618c:	e59f3068 	ldr	r3, [pc, #104]	; 300061fc <Test_Lcd_Tft_16Bit_240320+0x200>
30006190:	e0843003 	add	r3, r4, r3
30006194:	e1a00003 	mov	r0, r3
30006198:	ebffeb42 	bl	30000ea8 <puts>
3000619c:	ebffe95a 	bl	3000070c <getc>
300061a0:	e3a008ff 	mov	r0, #16711680	; 0xff0000
300061a4:	ebfffc77 	bl	30005388 <ClearScr>
300061a8:	e59f3050 	ldr	r3, [pc, #80]	; 30006200 <Test_Lcd_Tft_16Bit_240320+0x204>
300061ac:	e0843003 	add	r3, r4, r3
300061b0:	e1a00003 	mov	r0, r3
300061b4:	ebffeb3b 	bl	30000ea8 <puts>
300061b8:	ebffe953 	bl	3000070c <getc>
300061bc:	e3a000ff 	mov	r0, #255	; 0xff
300061c0:	ebfffebb 	bl	30005cb4 <ClearScrWithTmpPlt>
300061c4:	e59f3038 	ldr	r3, [pc, #56]	; 30006204 <Test_Lcd_Tft_16Bit_240320+0x208>
300061c8:	e0843003 	add	r3, r4, r3
300061cc:	e1a00003 	mov	r0, r3
300061d0:	ebffeb34 	bl	30000ea8 <puts>
300061d4:	ebffe94c 	bl	3000070c <getc>
300061d8:	e3a00000 	mov	r0, #0	; 0x0
300061dc:	ebfffe9e 	bl	30005c5c <Lcd_EnvidOnOff>
300061e0:	e24bd008 	sub	sp, fp, #8	; 0x8
300061e4:	e8bd4810 	pop	{r4, fp, lr}
300061e8:	e12fff1e 	bx	lr
300061ec:	cfff9fec 	.word	0xcfff9fec
300061f0:	3000c3b0 	.word	0x3000c3b0
300061f4:	3000c3d0 	.word	0x3000c3d0
300061f8:	3000c3f0 	.word	0x3000c3f0
300061fc:	3000c414 	.word	0x3000c414
30006200:	3000c448 	.word	0x3000c448
30006204:	3000c4d8 	.word	0x3000c4d8

30006208 <Test_Lcd_Tft_8Bit_640480>:
30006208:	e92d4810 	push	{r4, fp, lr}
3000620c:	e28db008 	add	fp, sp, #8	; 0x8
30006210:	e24dd00c 	sub	sp, sp, #12	; 0xc
30006214:	e59f4208 	ldr	r4, [pc, #520]	; 30006424 <Test_Lcd_Tft_8Bit_640480+0x21c>
30006218:	e08f4004 	add	r4, pc, r4
3000621c:	ebfffc7e 	bl	3000541c <Lcd_Port_Init>
30006220:	e3a00c42 	mov	r0, #16896	; 0x4200
30006224:	e2800002 	add	r0, r0, #2	; 0x2
30006228:	ebfffc9c 	bl	300054a0 <Tft_Lcd_Init>
3000622c:	e3a00000 	mov	r0, #0	; 0x0
30006230:	e3a01001 	mov	r1, #1	; 0x1
30006234:	ebfffe5e 	bl	30005bb4 <Lcd_PowerEnable>
30006238:	e3a00001 	mov	r0, #1	; 0x1
3000623c:	ebfffe86 	bl	30005c5c <Lcd_EnvidOnOff>
30006240:	ebfffdfe 	bl	30005a40 <Lcd_Palette8Bit_Init>
30006244:	e3a00000 	mov	r0, #0	; 0x0
30006248:	ebfffc4e 	bl	30005388 <ClearScr>
3000624c:	e59f31d4 	ldr	r3, [pc, #468]	; 30006428 <Test_Lcd_Tft_8Bit_640480+0x220>
30006250:	e0843003 	add	r3, r4, r3
30006254:	e1a00003 	mov	r0, r3
30006258:	ebffeb12 	bl	30000ea8 <puts>
3000625c:	e59f31c8 	ldr	r3, [pc, #456]	; 3000642c <Test_Lcd_Tft_8Bit_640480+0x224>
30006260:	e0843003 	add	r3, r4, r3
30006264:	e1a00003 	mov	r0, r3
30006268:	ebffeb0e 	bl	30000ea8 <puts>
3000626c:	ebffe926 	bl	3000070c <getc>
30006270:	e3a03000 	mov	r3, #0	; 0x0
30006274:	e58d3000 	str	r3, [sp]
30006278:	e3a00000 	mov	r0, #0	; 0x0
3000627c:	e3a01000 	mov	r1, #0	; 0x0
30006280:	e3a02f9f 	mov	r2, #636	; 0x27c
30006284:	e2822003 	add	r2, r2, #3	; 0x3
30006288:	e3a03000 	mov	r3, #0	; 0x0
3000628c:	ebfffa82 	bl	30004c9c <DrawLine>
30006290:	e3a03001 	mov	r3, #1	; 0x1
30006294:	e58d3000 	str	r3, [sp]
30006298:	e3a00000 	mov	r0, #0	; 0x0
3000629c:	e3a01000 	mov	r1, #0	; 0x0
300062a0:	e3a02000 	mov	r2, #0	; 0x0
300062a4:	e3a03f77 	mov	r3, #476	; 0x1dc
300062a8:	e2833003 	add	r3, r3, #3	; 0x3
300062ac:	ebfffa7a 	bl	30004c9c <DrawLine>
300062b0:	e3a03002 	mov	r3, #2	; 0x2
300062b4:	e58d3000 	str	r3, [sp]
300062b8:	e3a00f9f 	mov	r0, #636	; 0x27c
300062bc:	e2800003 	add	r0, r0, #3	; 0x3
300062c0:	e3a01000 	mov	r1, #0	; 0x0
300062c4:	e3a02f9f 	mov	r2, #636	; 0x27c
300062c8:	e2822003 	add	r2, r2, #3	; 0x3
300062cc:	e3a03f77 	mov	r3, #476	; 0x1dc
300062d0:	e2833003 	add	r3, r3, #3	; 0x3
300062d4:	ebfffa70 	bl	30004c9c <DrawLine>
300062d8:	e3a03004 	mov	r3, #4	; 0x4
300062dc:	e58d3000 	str	r3, [sp]
300062e0:	e3a00000 	mov	r0, #0	; 0x0
300062e4:	e3a01f77 	mov	r1, #476	; 0x1dc
300062e8:	e2811003 	add	r1, r1, #3	; 0x3
300062ec:	e3a02f9f 	mov	r2, #636	; 0x27c
300062f0:	e2822003 	add	r2, r2, #3	; 0x3
300062f4:	e3a03f77 	mov	r3, #476	; 0x1dc
300062f8:	e2833003 	add	r3, r3, #3	; 0x3
300062fc:	ebfffa66 	bl	30004c9c <DrawLine>
30006300:	e3a03008 	mov	r3, #8	; 0x8
30006304:	e58d3000 	str	r3, [sp]
30006308:	e3a00000 	mov	r0, #0	; 0x0
3000630c:	e3a01000 	mov	r1, #0	; 0x0
30006310:	e3a02f9f 	mov	r2, #636	; 0x27c
30006314:	e2822003 	add	r2, r2, #3	; 0x3
30006318:	e3a03f77 	mov	r3, #476	; 0x1dc
3000631c:	e2833003 	add	r3, r3, #3	; 0x3
30006320:	ebfffa5d 	bl	30004c9c <DrawLine>
30006324:	e3a03010 	mov	r3, #16	; 0x10
30006328:	e58d3000 	str	r3, [sp]
3000632c:	e3a00f9f 	mov	r0, #636	; 0x27c
30006330:	e2800003 	add	r0, r0, #3	; 0x3
30006334:	e3a01000 	mov	r1, #0	; 0x0
30006338:	e3a02000 	mov	r2, #0	; 0x0
3000633c:	e3a03f77 	mov	r3, #476	; 0x1dc
30006340:	e2833003 	add	r3, r3, #3	; 0x3
30006344:	ebfffa54 	bl	30004c9c <DrawLine>
30006348:	e3a03020 	mov	r3, #32	; 0x20
3000634c:	e58d3000 	str	r3, [sp]
30006350:	e3a00d05 	mov	r0, #320	; 0x140
30006354:	e3a01000 	mov	r1, #0	; 0x0
30006358:	e3a02d05 	mov	r2, #320	; 0x140
3000635c:	e3a03f77 	mov	r3, #476	; 0x1dc
30006360:	e2833003 	add	r3, r3, #3	; 0x3
30006364:	ebfffa4c 	bl	30004c9c <DrawLine>
30006368:	e3a03040 	mov	r3, #64	; 0x40
3000636c:	e58d3000 	str	r3, [sp]
30006370:	e3a00000 	mov	r0, #0	; 0x0
30006374:	e3a010f0 	mov	r1, #240	; 0xf0
30006378:	e3a02f9f 	mov	r2, #636	; 0x27c
3000637c:	e2822003 	add	r2, r2, #3	; 0x3
30006380:	e3a030f0 	mov	r3, #240	; 0xf0
30006384:	ebfffa44 	bl	30004c9c <DrawLine>
30006388:	e59f30a0 	ldr	r3, [pc, #160]	; 30006430 <Test_Lcd_Tft_8Bit_640480+0x228>
3000638c:	e0843003 	add	r3, r4, r3
30006390:	e1a00003 	mov	r0, r3
30006394:	ebffeac3 	bl	30000ea8 <puts>
30006398:	ebffe8db 	bl	3000070c <getc>
3000639c:	ebfffba1 	bl	30005228 <Mire>
300063a0:	e59f308c 	ldr	r3, [pc, #140]	; 30006434 <Test_Lcd_Tft_8Bit_640480+0x22c>
300063a4:	e0843003 	add	r3, r4, r3
300063a8:	e1a00003 	mov	r0, r3
300063ac:	ebffeabd 	bl	30000ea8 <puts>
300063b0:	ebffe8d5 	bl	3000070c <getc>
300063b4:	e3a00080 	mov	r0, #128	; 0x80
300063b8:	ebfffbf2 	bl	30005388 <ClearScr>
300063bc:	e59f3074 	ldr	r3, [pc, #116]	; 30006438 <Test_Lcd_Tft_8Bit_640480+0x230>
300063c0:	e0843003 	add	r3, r4, r3
300063c4:	e1a00003 	mov	r0, r3
300063c8:	ebffeab6 	bl	30000ea8 <puts>
300063cc:	ebffe8ce 	bl	3000070c <getc>
300063d0:	e3a000ff 	mov	r0, #255	; 0xff
300063d4:	ebfffe36 	bl	30005cb4 <ClearScrWithTmpPlt>
300063d8:	e59f305c 	ldr	r3, [pc, #92]	; 3000643c <Test_Lcd_Tft_8Bit_640480+0x234>
300063dc:	e0843003 	add	r3, r4, r3
300063e0:	e1a00003 	mov	r0, r3
300063e4:	ebffeaaf 	bl	30000ea8 <puts>
300063e8:	ebffe8c7 	bl	3000070c <getc>
300063ec:	ebfffe3d 	bl	30005ce8 <DisableTmpPlt>
300063f0:	e3a00401 	mov	r0, #16777216	; 0x1000000
300063f4:	e2400c01 	sub	r0, r0, #256	; 0x100
300063f8:	ebfffdbd 	bl	30005af4 <ChangePalette>
300063fc:	e59f303c 	ldr	r3, [pc, #60]	; 30006440 <Test_Lcd_Tft_8Bit_640480+0x238>
30006400:	e0843003 	add	r3, r4, r3
30006404:	e1a00003 	mov	r0, r3
30006408:	ebffeaa6 	bl	30000ea8 <puts>
3000640c:	ebffe8be 	bl	3000070c <getc>
30006410:	e3a00000 	mov	r0, #0	; 0x0
30006414:	ebfffe10 	bl	30005c5c <Lcd_EnvidOnOff>
30006418:	e24bd008 	sub	sp, fp, #8	; 0x8
3000641c:	e8bd4810 	pop	{r4, fp, lr}
30006420:	e12fff1e 	bx	lr
30006424:	cfff9de0 	.word	0xcfff9de0
30006428:	3000c3b0 	.word	0x3000c3b0
3000642c:	3000c3d0 	.word	0x3000c3d0
30006430:	3000c3f0 	.word	0x3000c3f0
30006434:	3000c414 	.word	0x3000c414
30006438:	3000c448 	.word	0x3000c448
3000643c:	3000c484 	.word	0x3000c484
30006440:	3000c4b4 	.word	0x3000c4b4

30006444 <Test_Lcd_Tft_16Bit_640480>:
30006444:	e92d4810 	push	{r4, fp, lr}
30006448:	e28db008 	add	fp, sp, #8	; 0x8
3000644c:	e24dd00c 	sub	sp, sp, #12	; 0xc
30006450:	e59f41f8 	ldr	r4, [pc, #504]	; 30006650 <Test_Lcd_Tft_16Bit_640480+0x20c>
30006454:	e08f4004 	add	r4, pc, r4
30006458:	ebfffbef 	bl	3000541c <Lcd_Port_Init>
3000645c:	e3a00c42 	mov	r0, #16896	; 0x4200
30006460:	e2800004 	add	r0, r0, #4	; 0x4
30006464:	ebfffc0d 	bl	300054a0 <Tft_Lcd_Init>
30006468:	e3a00000 	mov	r0, #0	; 0x0
3000646c:	e3a01001 	mov	r1, #1	; 0x1
30006470:	ebfffdcf 	bl	30005bb4 <Lcd_PowerEnable>
30006474:	e3a00001 	mov	r0, #1	; 0x1
30006478:	ebfffdf7 	bl	30005c5c <Lcd_EnvidOnOff>
3000647c:	e3a00000 	mov	r0, #0	; 0x0
30006480:	ebfffbc0 	bl	30005388 <ClearScr>
30006484:	e59f31c8 	ldr	r3, [pc, #456]	; 30006654 <Test_Lcd_Tft_16Bit_640480+0x210>
30006488:	e0843003 	add	r3, r4, r3
3000648c:	e1a00003 	mov	r0, r3
30006490:	ebffea84 	bl	30000ea8 <puts>
30006494:	e59f31bc 	ldr	r3, [pc, #444]	; 30006658 <Test_Lcd_Tft_16Bit_640480+0x214>
30006498:	e0843003 	add	r3, r4, r3
3000649c:	e1a00003 	mov	r0, r3
300064a0:	ebffea80 	bl	30000ea8 <puts>
300064a4:	ebffe898 	bl	3000070c <getc>
300064a8:	e3a038ff 	mov	r3, #16711680	; 0xff0000
300064ac:	e58d3000 	str	r3, [sp]
300064b0:	e3a00000 	mov	r0, #0	; 0x0
300064b4:	e3a01000 	mov	r1, #0	; 0x0
300064b8:	e3a02f9f 	mov	r2, #636	; 0x27c
300064bc:	e2822003 	add	r2, r2, #3	; 0x3
300064c0:	e3a03000 	mov	r3, #0	; 0x0
300064c4:	ebfff9f4 	bl	30004c9c <DrawLine>
300064c8:	e3a03cff 	mov	r3, #65280	; 0xff00
300064cc:	e58d3000 	str	r3, [sp]
300064d0:	e3a00000 	mov	r0, #0	; 0x0
300064d4:	e3a01000 	mov	r1, #0	; 0x0
300064d8:	e3a02000 	mov	r2, #0	; 0x0
300064dc:	e3a03f77 	mov	r3, #476	; 0x1dc
300064e0:	e2833003 	add	r3, r3, #3	; 0x3
300064e4:	ebfff9ec 	bl	30004c9c <DrawLine>
300064e8:	e3a030ff 	mov	r3, #255	; 0xff
300064ec:	e58d3000 	str	r3, [sp]
300064f0:	e3a00f9f 	mov	r0, #636	; 0x27c
300064f4:	e2800003 	add	r0, r0, #3	; 0x3
300064f8:	e3a01000 	mov	r1, #0	; 0x0
300064fc:	e3a02f9f 	mov	r2, #636	; 0x27c
30006500:	e2822003 	add	r2, r2, #3	; 0x3
30006504:	e3a03f77 	mov	r3, #476	; 0x1dc
30006508:	e2833003 	add	r3, r3, #3	; 0x3
3000650c:	ebfff9e2 	bl	30004c9c <DrawLine>
30006510:	e3e034ff 	mvn	r3, #-16777216	; 0xff000000
30006514:	e58d3000 	str	r3, [sp]
30006518:	e3a00000 	mov	r0, #0	; 0x0
3000651c:	e3a01f77 	mov	r1, #476	; 0x1dc
30006520:	e2811003 	add	r1, r1, #3	; 0x3
30006524:	e3a02f9f 	mov	r2, #636	; 0x27c
30006528:	e2822003 	add	r2, r2, #3	; 0x3
3000652c:	e3a03f77 	mov	r3, #476	; 0x1dc
30006530:	e2833003 	add	r3, r3, #3	; 0x3
30006534:	ebfff9d8 	bl	30004c9c <DrawLine>
30006538:	e3a03401 	mov	r3, #16777216	; 0x1000000
3000653c:	e2433c01 	sub	r3, r3, #256	; 0x100
30006540:	e58d3000 	str	r3, [sp]
30006544:	e3a00000 	mov	r0, #0	; 0x0
30006548:	e3a01000 	mov	r1, #0	; 0x0
3000654c:	e3a02f9f 	mov	r2, #636	; 0x27c
30006550:	e2822003 	add	r2, r2, #3	; 0x3
30006554:	e3a03f77 	mov	r3, #476	; 0x1dc
30006558:	e2833003 	add	r3, r3, #3	; 0x3
3000655c:	ebfff9ce 	bl	30004c9c <DrawLine>
30006560:	e3a03502 	mov	r3, #8388608	; 0x800000
30006564:	e28330ff 	add	r3, r3, #255	; 0xff
30006568:	e58d3000 	str	r3, [sp]
3000656c:	e3a00f9f 	mov	r0, #636	; 0x27c
30006570:	e2800003 	add	r0, r0, #3	; 0x3
30006574:	e3a01000 	mov	r1, #0	; 0x0
30006578:	e3a02000 	mov	r2, #0	; 0x0
3000657c:	e3a03f77 	mov	r3, #476	; 0x1dc
30006580:	e2833003 	add	r3, r3, #3	; 0x3
30006584:	ebfff9c4 	bl	30004c9c <DrawLine>
30006588:	e3a038e6 	mov	r3, #15073280	; 0xe60000
3000658c:	e2833b3a 	add	r3, r3, #59392	; 0xe800
30006590:	e28330fa 	add	r3, r3, #250	; 0xfa
30006594:	e58d3000 	str	r3, [sp]
30006598:	e3a00d05 	mov	r0, #320	; 0x140
3000659c:	e3a01000 	mov	r1, #0	; 0x0
300065a0:	e3a02d05 	mov	r2, #320	; 0x140
300065a4:	e3a03f77 	mov	r3, #476	; 0x1dc
300065a8:	e2833003 	add	r3, r3, #3	; 0x3
300065ac:	ebfff9ba 	bl	30004c9c <DrawLine>
300065b0:	e3a038cd 	mov	r3, #13434880	; 0xcd0000
300065b4:	e2833c7f 	add	r3, r3, #32512	; 0x7f00
300065b8:	e2833032 	add	r3, r3, #50	; 0x32
300065bc:	e58d3000 	str	r3, [sp]
300065c0:	e3a00000 	mov	r0, #0	; 0x0
300065c4:	e3a010f0 	mov	r1, #240	; 0xf0
300065c8:	e3a02f9f 	mov	r2, #636	; 0x27c
300065cc:	e2822003 	add	r2, r2, #3	; 0x3
300065d0:	e3a030f0 	mov	r3, #240	; 0xf0
300065d4:	ebfff9b0 	bl	30004c9c <DrawLine>
300065d8:	e59f307c 	ldr	r3, [pc, #124]	; 3000665c <Test_Lcd_Tft_16Bit_640480+0x218>
300065dc:	e0843003 	add	r3, r4, r3
300065e0:	e1a00003 	mov	r0, r3
300065e4:	ebffea2f 	bl	30000ea8 <puts>
300065e8:	ebffe847 	bl	3000070c <getc>
300065ec:	ebfffb0d 	bl	30005228 <Mire>
300065f0:	e59f3068 	ldr	r3, [pc, #104]	; 30006660 <Test_Lcd_Tft_16Bit_640480+0x21c>
300065f4:	e0843003 	add	r3, r4, r3
300065f8:	e1a00003 	mov	r0, r3
300065fc:	ebffea29 	bl	30000ea8 <puts>
30006600:	ebffe841 	bl	3000070c <getc>
30006604:	e3a008ff 	mov	r0, #16711680	; 0xff0000
30006608:	ebfffb5e 	bl	30005388 <ClearScr>
3000660c:	e59f3050 	ldr	r3, [pc, #80]	; 30006664 <Test_Lcd_Tft_16Bit_640480+0x220>
30006610:	e0843003 	add	r3, r4, r3
30006614:	e1a00003 	mov	r0, r3
30006618:	ebffea22 	bl	30000ea8 <puts>
3000661c:	ebffe83a 	bl	3000070c <getc>
30006620:	e3a000ff 	mov	r0, #255	; 0xff
30006624:	ebfffda2 	bl	30005cb4 <ClearScrWithTmpPlt>
30006628:	e59f3038 	ldr	r3, [pc, #56]	; 30006668 <Test_Lcd_Tft_16Bit_640480+0x224>
3000662c:	e0843003 	add	r3, r4, r3
30006630:	e1a00003 	mov	r0, r3
30006634:	ebffea1b 	bl	30000ea8 <puts>
30006638:	ebffe833 	bl	3000070c <getc>
3000663c:	e3a00000 	mov	r0, #0	; 0x0
30006640:	ebfffd85 	bl	30005c5c <Lcd_EnvidOnOff>
30006644:	e24bd008 	sub	sp, fp, #8	; 0x8
30006648:	e8bd4810 	pop	{r4, fp, lr}
3000664c:	e12fff1e 	bx	lr
30006650:	cfff9ba4 	.word	0xcfff9ba4
30006654:	3000c3b0 	.word	0x3000c3b0
30006658:	3000c3d0 	.word	0x3000c3d0
3000665c:	3000c3f0 	.word	0x3000c3f0
30006660:	3000c414 	.word	0x3000c414
30006664:	3000c448 	.word	0x3000c448
30006668:	3000c4d8 	.word	0x3000c4d8

3000666c <Test_Lcd_Tft_24Bit_480272>:
3000666c:	e92d4810 	push	{r4, fp, lr}
30006670:	e28db008 	add	fp, sp, #8	; 0x8
30006674:	e24dd00c 	sub	sp, sp, #12	; 0xc
30006678:	e59f41f8 	ldr	r4, [pc, #504]	; 30006878 <Test_Lcd_Tft_24Bit_480272+0x20c>
3000667c:	e08f4004 	add	r4, pc, r4
30006680:	ebfffb65 	bl	3000541c <Lcd_Port_Init>
30006684:	e3a00b12 	mov	r0, #18432	; 0x4800
30006688:	e2800008 	add	r0, r0, #8	; 0x8
3000668c:	ebfffb83 	bl	300054a0 <Tft_Lcd_Init>
30006690:	e3a00000 	mov	r0, #0	; 0x0
30006694:	e3a01001 	mov	r1, #1	; 0x1
30006698:	ebfffd45 	bl	30005bb4 <Lcd_PowerEnable>
3000669c:	e3a00001 	mov	r0, #1	; 0x1
300066a0:	ebfffd6d 	bl	30005c5c <Lcd_EnvidOnOff>
300066a4:	e3a00000 	mov	r0, #0	; 0x0
300066a8:	ebfffb36 	bl	30005388 <ClearScr>
300066ac:	e59f31c8 	ldr	r3, [pc, #456]	; 3000687c <Test_Lcd_Tft_24Bit_480272+0x210>
300066b0:	e0843003 	add	r3, r4, r3
300066b4:	e1a00003 	mov	r0, r3
300066b8:	ebffe9fa 	bl	30000ea8 <puts>
300066bc:	e59f31bc 	ldr	r3, [pc, #444]	; 30006880 <Test_Lcd_Tft_24Bit_480272+0x214>
300066c0:	e0843003 	add	r3, r4, r3
300066c4:	e1a00003 	mov	r0, r3
300066c8:	ebffe9f6 	bl	30000ea8 <puts>
300066cc:	ebffe80e 	bl	3000070c <getc>
300066d0:	e3a038ff 	mov	r3, #16711680	; 0xff0000
300066d4:	e58d3000 	str	r3, [sp]
300066d8:	e3a00000 	mov	r0, #0	; 0x0
300066dc:	e3a01000 	mov	r1, #0	; 0x0
300066e0:	e3a02f9f 	mov	r2, #636	; 0x27c
300066e4:	e2822003 	add	r2, r2, #3	; 0x3
300066e8:	e3a03000 	mov	r3, #0	; 0x0
300066ec:	ebfff96a 	bl	30004c9c <DrawLine>
300066f0:	e3a03cff 	mov	r3, #65280	; 0xff00
300066f4:	e58d3000 	str	r3, [sp]
300066f8:	e3a00000 	mov	r0, #0	; 0x0
300066fc:	e3a01000 	mov	r1, #0	; 0x0
30006700:	e3a02000 	mov	r2, #0	; 0x0
30006704:	e3a03f77 	mov	r3, #476	; 0x1dc
30006708:	e2833003 	add	r3, r3, #3	; 0x3
3000670c:	ebfff962 	bl	30004c9c <DrawLine>
30006710:	e3a030ff 	mov	r3, #255	; 0xff
30006714:	e58d3000 	str	r3, [sp]
30006718:	e3a00f9f 	mov	r0, #636	; 0x27c
3000671c:	e2800003 	add	r0, r0, #3	; 0x3
30006720:	e3a01000 	mov	r1, #0	; 0x0
30006724:	e3a02f9f 	mov	r2, #636	; 0x27c
30006728:	e2822003 	add	r2, r2, #3	; 0x3
3000672c:	e3a03f77 	mov	r3, #476	; 0x1dc
30006730:	e2833003 	add	r3, r3, #3	; 0x3
30006734:	ebfff958 	bl	30004c9c <DrawLine>
30006738:	e3e034ff 	mvn	r3, #-16777216	; 0xff000000
3000673c:	e58d3000 	str	r3, [sp]
30006740:	e3a00000 	mov	r0, #0	; 0x0
30006744:	e3a01f77 	mov	r1, #476	; 0x1dc
30006748:	e2811003 	add	r1, r1, #3	; 0x3
3000674c:	e3a02f9f 	mov	r2, #636	; 0x27c
30006750:	e2822003 	add	r2, r2, #3	; 0x3
30006754:	e3a03f77 	mov	r3, #476	; 0x1dc
30006758:	e2833003 	add	r3, r3, #3	; 0x3
3000675c:	ebfff94e 	bl	30004c9c <DrawLine>
30006760:	e3a03401 	mov	r3, #16777216	; 0x1000000
30006764:	e2433c01 	sub	r3, r3, #256	; 0x100
30006768:	e58d3000 	str	r3, [sp]
3000676c:	e3a00000 	mov	r0, #0	; 0x0
30006770:	e3a01000 	mov	r1, #0	; 0x0
30006774:	e3a02f9f 	mov	r2, #636	; 0x27c
30006778:	e2822003 	add	r2, r2, #3	; 0x3
3000677c:	e3a03f77 	mov	r3, #476	; 0x1dc
30006780:	e2833003 	add	r3, r3, #3	; 0x3
30006784:	ebfff944 	bl	30004c9c <DrawLine>
30006788:	e3a03502 	mov	r3, #8388608	; 0x800000
3000678c:	e28330ff 	add	r3, r3, #255	; 0xff
30006790:	e58d3000 	str	r3, [sp]
30006794:	e3a00f9f 	mov	r0, #636	; 0x27c
30006798:	e2800003 	add	r0, r0, #3	; 0x3
3000679c:	e3a01000 	mov	r1, #0	; 0x0
300067a0:	e3a02000 	mov	r2, #0	; 0x0
300067a4:	e3a03f77 	mov	r3, #476	; 0x1dc
300067a8:	e2833003 	add	r3, r3, #3	; 0x3
300067ac:	ebfff93a 	bl	30004c9c <DrawLine>
300067b0:	e3a038e6 	mov	r3, #15073280	; 0xe60000
300067b4:	e2833b3a 	add	r3, r3, #59392	; 0xe800
300067b8:	e28330fa 	add	r3, r3, #250	; 0xfa
300067bc:	e58d3000 	str	r3, [sp]
300067c0:	e3a00d05 	mov	r0, #320	; 0x140
300067c4:	e3a01000 	mov	r1, #0	; 0x0
300067c8:	e3a02d05 	mov	r2, #320	; 0x140
300067cc:	e3a03f77 	mov	r3, #476	; 0x1dc
300067d0:	e2833003 	add	r3, r3, #3	; 0x3
300067d4:	ebfff930 	bl	30004c9c <DrawLine>
300067d8:	e3a038cd 	mov	r3, #13434880	; 0xcd0000
300067dc:	e2833c7f 	add	r3, r3, #32512	; 0x7f00
300067e0:	e2833032 	add	r3, r3, #50	; 0x32
300067e4:	e58d3000 	str	r3, [sp]
300067e8:	e3a00000 	mov	r0, #0	; 0x0
300067ec:	e3a010f0 	mov	r1, #240	; 0xf0
300067f0:	e3a02f9f 	mov	r2, #636	; 0x27c
300067f4:	e2822003 	add	r2, r2, #3	; 0x3
300067f8:	e3a030f0 	mov	r3, #240	; 0xf0
300067fc:	ebfff926 	bl	30004c9c <DrawLine>
30006800:	e59f307c 	ldr	r3, [pc, #124]	; 30006884 <Test_Lcd_Tft_24Bit_480272+0x218>
30006804:	e0843003 	add	r3, r4, r3
30006808:	e1a00003 	mov	r0, r3
3000680c:	ebffe9a5 	bl	30000ea8 <puts>
30006810:	ebffe7bd 	bl	3000070c <getc>
30006814:	ebfffa83 	bl	30005228 <Mire>
30006818:	e59f3068 	ldr	r3, [pc, #104]	; 30006888 <Test_Lcd_Tft_24Bit_480272+0x21c>
3000681c:	e0843003 	add	r3, r4, r3
30006820:	e1a00003 	mov	r0, r3
30006824:	ebffe99f 	bl	30000ea8 <puts>
30006828:	ebffe7b7 	bl	3000070c <getc>
3000682c:	e3a008ff 	mov	r0, #16711680	; 0xff0000
30006830:	ebfffad4 	bl	30005388 <ClearScr>
30006834:	e59f3050 	ldr	r3, [pc, #80]	; 3000688c <Test_Lcd_Tft_24Bit_480272+0x220>
30006838:	e0843003 	add	r3, r4, r3
3000683c:	e1a00003 	mov	r0, r3
30006840:	ebffe998 	bl	30000ea8 <puts>
30006844:	ebffe7b0 	bl	3000070c <getc>
30006848:	e3a000ff 	mov	r0, #255	; 0xff
3000684c:	ebfffd18 	bl	30005cb4 <ClearScrWithTmpPlt>
30006850:	e59f3038 	ldr	r3, [pc, #56]	; 30006890 <Test_Lcd_Tft_24Bit_480272+0x224>
30006854:	e0843003 	add	r3, r4, r3
30006858:	e1a00003 	mov	r0, r3
3000685c:	ebffe991 	bl	30000ea8 <puts>
30006860:	ebffe7a9 	bl	3000070c <getc>
30006864:	e3a00000 	mov	r0, #0	; 0x0
30006868:	ebfffcfb 	bl	30005c5c <Lcd_EnvidOnOff>
3000686c:	e24bd008 	sub	sp, fp, #8	; 0x8
30006870:	e8bd4810 	pop	{r4, fp, lr}
30006874:	e12fff1e 	bx	lr
30006878:	cfff997c 	.word	0xcfff997c
3000687c:	3000c4fc 	.word	0x3000c4fc
30006880:	3000c3d0 	.word	0x3000c3d0
30006884:	3000c3f0 	.word	0x3000c3f0
30006888:	3000c414 	.word	0x3000c414
3000688c:	3000c448 	.word	0x3000c448
30006890:	3000c4d8 	.word	0x3000c4d8

30006894 <adc_init>:
30006894:	e52db004 	push	{fp}		; (str fp, [sp, #-4]!)
30006898:	e28db000 	add	fp, sp, #0	; 0x0
3000689c:	e24dd00c 	sub	sp, sp, #12	; 0xc
300068a0:	e59fc070 	ldr	ip, [pc, #112]	; 30006918 <adc_init+0x84>
300068a4:	e08fc00c 	add	ip, pc, ip
300068a8:	e1a03000 	mov	r3, r0
300068ac:	e1a02001 	mov	r2, r1
300068b0:	e54b3005 	strb	r3, [fp, #-5]
300068b4:	e1a03002 	mov	r3, r2
300068b8:	e54b3006 	strb	r3, [fp, #-6]
300068bc:	e59f3058 	ldr	r3, [pc, #88]	; 3000691c <adc_init+0x88>
300068c0:	e08c2003 	add	r2, ip, r3
300068c4:	e3a03316 	mov	r3, #1476395008	; 0x58000000
300068c8:	e5823000 	str	r3, [r2]
300068cc:	e59f3048 	ldr	r3, [pc, #72]	; 3000691c <adc_init+0x88>
300068d0:	e08c3003 	add	r3, ip, r3
300068d4:	e5931000 	ldr	r1, [r3]
300068d8:	e55b3005 	ldrb	r3, [fp, #-5]
300068dc:	e1a03303 	lsl	r3, r3, #6
300068e0:	e3832901 	orr	r2, r3, #16384	; 0x4000
300068e4:	e55b3006 	ldrb	r3, [fp, #-6]
300068e8:	e1a03183 	lsl	r3, r3, #3
300068ec:	e1823003 	orr	r3, r2, r3
300068f0:	e5813000 	str	r3, [r1]
300068f4:	e59f3020 	ldr	r3, [pc, #32]	; 3000691c <adc_init+0x88>
300068f8:	e08c3003 	add	r3, ip, r3
300068fc:	e5932000 	ldr	r2, [r3]
30006900:	e3a03cc3 	mov	r3, #49920	; 0xc300
30006904:	e2833050 	add	r3, r3, #80	; 0x50
30006908:	e5823008 	str	r3, [r2, #8]
3000690c:	e28bd000 	add	sp, fp, #0	; 0x0
30006910:	e8bd0800 	pop	{fp}
30006914:	e12fff1e 	bx	lr
30006918:	cfff9754 	.word	0xcfff9754
3000691c:	3000d8dc 	.word	0x3000d8dc

30006920 <start_adc>:
30006920:	e52db004 	push	{fp}		; (str fp, [sp, #-4]!)
30006924:	e28db000 	add	fp, sp, #0	; 0x0
30006928:	e24dd00c 	sub	sp, sp, #12	; 0xc
3000692c:	e59f105c 	ldr	r1, [pc, #92]	; 30006990 <start_adc+0x70>
30006930:	e50b1008 	str	r1, [fp, #-8]
30006934:	e51b2008 	ldr	r2, [fp, #-8]
30006938:	e08f2002 	add	r2, pc, r2
3000693c:	e50b2008 	str	r2, [fp, #-8]
30006940:	e59f304c 	ldr	r3, [pc, #76]	; 30006994 <start_adc+0x74>
30006944:	e51b1008 	ldr	r1, [fp, #-8]
30006948:	e0813003 	add	r3, r1, r3
3000694c:	e5933000 	ldr	r3, [r3]
30006950:	e3530000 	cmp	r3, #0	; 0x0
30006954:	0a00000a 	beq	30006984 <start_adc+0x64>
30006958:	e59f3034 	ldr	r3, [pc, #52]	; 30006994 <start_adc+0x74>
3000695c:	e51b2008 	ldr	r2, [fp, #-8]
30006960:	e0823003 	add	r3, r2, r3
30006964:	e5932000 	ldr	r2, [r3]
30006968:	e59f3024 	ldr	r3, [pc, #36]	; 30006994 <start_adc+0x74>
3000696c:	e51b1008 	ldr	r1, [fp, #-8]
30006970:	e0813003 	add	r3, r1, r3
30006974:	e5933000 	ldr	r3, [r3]
30006978:	e5933000 	ldr	r3, [r3]
3000697c:	e3833001 	orr	r3, r3, #1	; 0x1
30006980:	e5823000 	str	r3, [r2]
30006984:	e28bd000 	add	sp, fp, #0	; 0x0
30006988:	e8bd0800 	pop	{fp}
3000698c:	e12fff1e 	bx	lr
30006990:	cfff96c0 	.word	0xcfff96c0
30006994:	3000d8dc 	.word	0x3000d8dc

30006998 <ts_interrupt>:
30006998:	e92d4800 	push	{fp, lr}
3000699c:	e28db004 	add	fp, sp, #4	; 0x4
300069a0:	e24dd008 	sub	sp, sp, #8	; 0x8
300069a4:	e59f2098 	ldr	r2, [pc, #152]	; 30006a44 <ts_interrupt+0xac>
300069a8:	e50b2008 	str	r2, [fp, #-8]
300069ac:	e51b3008 	ldr	r3, [fp, #-8]
300069b0:	e08f3003 	add	r3, pc, r3
300069b4:	e50b3008 	str	r3, [fp, #-8]
300069b8:	e59f3088 	ldr	r3, [pc, #136]	; 30006a48 <ts_interrupt+0xb0>
300069bc:	e51b2008 	ldr	r2, [fp, #-8]
300069c0:	e0823003 	add	r3, r2, r3
300069c4:	e5933000 	ldr	r3, [r3]
300069c8:	e593300c 	ldr	r3, [r3, #12]
300069cc:	e2033902 	and	r3, r3, #32768	; 0x8000
300069d0:	e3530000 	cmp	r3, #0	; 0x0
300069d4:	1a00000c 	bne	30006a0c <ts_interrupt+0x74>
300069d8:	e59f306c 	ldr	r3, [pc, #108]	; 30006a4c <ts_interrupt+0xb4>
300069dc:	e51b2008 	ldr	r2, [fp, #-8]
300069e0:	e0823003 	add	r3, r2, r3
300069e4:	e1a00003 	mov	r0, r3
300069e8:	ebffe8c1 	bl	30000cf4 <printf>
300069ec:	e59f3054 	ldr	r3, [pc, #84]	; 30006a48 <ts_interrupt+0xb0>
300069f0:	e51b2008 	ldr	r2, [fp, #-8]
300069f4:	e0823003 	add	r3, r2, r3
300069f8:	e5932000 	ldr	r2, [r3]
300069fc:	e3a0300c 	mov	r3, #12	; 0xc
30006a00:	e5823004 	str	r3, [r2, #4]
30006a04:	ebffffc5 	bl	30006920 <start_adc>
30006a08:	ea00000a 	b	30006a38 <ts_interrupt+0xa0>
30006a0c:	e59f303c 	ldr	r3, [pc, #60]	; 30006a50 <ts_interrupt+0xb8>
30006a10:	e51b2008 	ldr	r2, [fp, #-8]
30006a14:	e0823003 	add	r3, r2, r3
30006a18:	e1a00003 	mov	r0, r3
30006a1c:	ebffe8b4 	bl	30000cf4 <printf>
30006a20:	e59f3020 	ldr	r3, [pc, #32]	; 30006a48 <ts_interrupt+0xb0>
30006a24:	e51b2008 	ldr	r2, [fp, #-8]
30006a28:	e0823003 	add	r3, r2, r3
30006a2c:	e5932000 	ldr	r2, [r3]
30006a30:	e3a030d3 	mov	r3, #211	; 0xd3
30006a34:	e5823004 	str	r3, [r2, #4]
30006a38:	e24bd004 	sub	sp, fp, #4	; 0x4
30006a3c:	e8bd4800 	pop	{fp, lr}
30006a40:	e12fff1e 	bx	lr
30006a44:	cfff9648 	.word	0xcfff9648
30006a48:	3000d8dc 	.word	0x3000d8dc
30006a4c:	3000c51c 	.word	0x3000c51c
30006a50:	3000c528 	.word	0x3000c528

30006a54 <adc_interrupt>:
30006a54:	e92d4810 	push	{r4, fp, lr}
30006a58:	e28db008 	add	fp, sp, #8	; 0x8
30006a5c:	e24dd00c 	sub	sp, sp, #12	; 0xc
30006a60:	e59f40ec 	ldr	r4, [pc, #236]	; 30006b54 <adc_interrupt+0x100>
30006a64:	e08f4004 	add	r4, pc, r4
30006a68:	e59f30e8 	ldr	r3, [pc, #232]	; 30006b58 <adc_interrupt+0x104>
30006a6c:	e0843003 	add	r3, r4, r3
30006a70:	e5933000 	ldr	r3, [r3]
30006a74:	e593300c 	ldr	r3, [r3, #12]
30006a78:	e1a03803 	lsl	r3, r3, #16
30006a7c:	e1a03823 	lsr	r3, r3, #16
30006a80:	e50b3014 	str	r3, [fp, #-20]
30006a84:	e51b2014 	ldr	r2, [fp, #-20]
30006a88:	e1a03b02 	lsl	r3, r2, #22
30006a8c:	e1a03b23 	lsr	r3, r3, #22
30006a90:	e50b3014 	str	r3, [fp, #-20]
30006a94:	e59f30c0 	ldr	r3, [pc, #192]	; 30006b5c <adc_interrupt+0x108>
30006a98:	e0843003 	add	r3, r4, r3
30006a9c:	e51b2014 	ldr	r2, [fp, #-20]
30006aa0:	e1c320b0 	strh	r2, [r3]
30006aa4:	e59f30ac 	ldr	r3, [pc, #172]	; 30006b58 <adc_interrupt+0x104>
30006aa8:	e0843003 	add	r3, r4, r3
30006aac:	e5933000 	ldr	r3, [r3]
30006ab0:	e5933010 	ldr	r3, [r3, #16]
30006ab4:	e1a03803 	lsl	r3, r3, #16
30006ab8:	e1a03823 	lsr	r3, r3, #16
30006abc:	e50b3010 	str	r3, [fp, #-16]
30006ac0:	e51b2010 	ldr	r2, [fp, #-16]
30006ac4:	e1a03b02 	lsl	r3, r2, #22
30006ac8:	e1a03b23 	lsr	r3, r3, #22
30006acc:	e50b3010 	str	r3, [fp, #-16]
30006ad0:	e59f3088 	ldr	r3, [pc, #136]	; 30006b60 <adc_interrupt+0x10c>
30006ad4:	e0843003 	add	r3, r4, r3
30006ad8:	e51b2010 	ldr	r2, [fp, #-16]
30006adc:	e1c320b0 	strh	r2, [r3]
30006ae0:	e59f3074 	ldr	r3, [pc, #116]	; 30006b5c <adc_interrupt+0x108>
30006ae4:	e0843003 	add	r3, r4, r3
30006ae8:	e1d330b0 	ldrh	r3, [r3]
30006aec:	e1a01003 	mov	r1, r3
30006af0:	e59f3068 	ldr	r3, [pc, #104]	; 30006b60 <adc_interrupt+0x10c>
30006af4:	e0843003 	add	r3, r4, r3
30006af8:	e1d330b0 	ldrh	r3, [r3]
30006afc:	e1a02003 	mov	r2, r3
30006b00:	e59f305c 	ldr	r3, [pc, #92]	; 30006b64 <adc_interrupt+0x110>
30006b04:	e0843003 	add	r3, r4, r3
30006b08:	e1a00003 	mov	r0, r3
30006b0c:	ebffe878 	bl	30000cf4 <printf>
30006b10:	e59f3040 	ldr	r3, [pc, #64]	; 30006b58 <adc_interrupt+0x104>
30006b14:	e0843003 	add	r3, r4, r3
30006b18:	e5932000 	ldr	r2, [r3]
30006b1c:	e3a030d3 	mov	r3, #211	; 0xd3
30006b20:	e5823004 	str	r3, [r2, #4]
30006b24:	e59f302c 	ldr	r3, [pc, #44]	; 30006b58 <adc_interrupt+0x104>
30006b28:	e0843003 	add	r3, r4, r3
30006b2c:	e5932000 	ldr	r2, [r3]
30006b30:	e59f3020 	ldr	r3, [pc, #32]	; 30006b58 <adc_interrupt+0x104>
30006b34:	e0843003 	add	r3, r4, r3
30006b38:	e5933000 	ldr	r3, [r3]
30006b3c:	e5933004 	ldr	r3, [r3, #4]
30006b40:	e3833c01 	orr	r3, r3, #256	; 0x100
30006b44:	e5823004 	str	r3, [r2, #4]
30006b48:	e24bd008 	sub	sp, fp, #8	; 0x8
30006b4c:	e8bd4810 	pop	{r4, fp, lr}
30006b50:	e12fff1e 	bx	lr
30006b54:	cfff9594 	.word	0xcfff9594
30006b58:	3000d8dc 	.word	0x3000d8dc
30006b5c:	3000d8e0 	.word	0x3000d8e0
30006b60:	3000d8e2 	.word	0x3000d8e2
30006b64:	3000c534 	.word	0x3000c534

30006b68 <adc_ts_inthandle>:
30006b68:	e92d4800 	push	{fp, lr}
30006b6c:	e28db004 	add	fp, sp, #4	; 0x4
30006b70:	e24dd008 	sub	sp, sp, #8	; 0x8
30006b74:	e50b0008 	str	r0, [fp, #-8]
30006b78:	e3a0344a 	mov	r3, #1241513984	; 0x4a000000
30006b7c:	e2833018 	add	r3, r3, #24	; 0x18
30006b80:	e5933000 	ldr	r3, [r3]
30006b84:	e2033c02 	and	r3, r3, #512	; 0x200
30006b88:	e3530000 	cmp	r3, #0	; 0x0
30006b8c:	0a000001 	beq	30006b98 <adc_ts_inthandle+0x30>
30006b90:	ebffff80 	bl	30006998 <ts_interrupt>
30006b94:	ea000006 	b	30006bb4 <adc_ts_inthandle+0x4c>
30006b98:	e3a0344a 	mov	r3, #1241513984	; 0x4a000000
30006b9c:	e2833018 	add	r3, r3, #24	; 0x18
30006ba0:	e5933000 	ldr	r3, [r3]
30006ba4:	e2033b01 	and	r3, r3, #1024	; 0x400
30006ba8:	e3530000 	cmp	r3, #0	; 0x0
30006bac:	0a000000 	beq	30006bb4 <adc_ts_inthandle+0x4c>
30006bb0:	ebffffa7 	bl	30006a54 <adc_interrupt>
30006bb4:	e24bd004 	sub	sp, fp, #4	; 0x4
30006bb8:	e8bd4800 	pop	{fp, lr}
30006bbc:	e12fff1e 	bx	lr

30006bc0 <test_ts>:
30006bc0:	e92d4810 	push	{r4, fp, lr}
30006bc4:	e28db008 	add	fp, sp, #8	; 0x8
30006bc8:	e24dd00c 	sub	sp, sp, #12	; 0xc
30006bcc:	e59f4054 	ldr	r4, [pc, #84]	; 30006c28 <test_ts+0x68>
30006bd0:	e08f4004 	add	r4, pc, r4
30006bd4:	e3a0001f 	mov	r0, #31	; 0x1f
30006bd8:	e59f304c 	ldr	r3, [pc, #76]	; 30006c2c <test_ts+0x6c>
30006bdc:	e0843003 	add	r3, r4, r3
30006be0:	e1a01003 	mov	r1, r3
30006be4:	eb0002b2 	bl	300076b4 <register_interrupt>
30006be8:	e1a03000 	mov	r3, r0
30006bec:	e50b3010 	str	r3, [fp, #-16]
30006bf0:	e59f3038 	ldr	r3, [pc, #56]	; 30006c30 <test_ts+0x70>
30006bf4:	e0843003 	add	r3, r4, r3
30006bf8:	e5932000 	ldr	r2, [r3]
30006bfc:	e3a03cc3 	mov	r3, #49920	; 0xc300
30006c00:	e2833050 	add	r3, r3, #80	; 0x50
30006c04:	e5823008 	str	r3, [r2, #8]
30006c08:	e59f3020 	ldr	r3, [pc, #32]	; 30006c30 <test_ts+0x70>
30006c0c:	e0843003 	add	r3, r4, r3
30006c10:	e5932000 	ldr	r2, [r3]
30006c14:	e3a030d3 	mov	r3, #211	; 0xd3
30006c18:	e5823004 	str	r3, [r2, #4]
30006c1c:	e24bd008 	sub	sp, fp, #8	; 0x8
30006c20:	e8bd4810 	pop	{r4, fp, lr}
30006c24:	e12fff1e 	bx	lr
30006c28:	cfff9428 	.word	0xcfff9428
30006c2c:	30006b68 	.word	0x30006b68
30006c30:	3000d8dc 	.word	0x3000d8dc

30006c34 <adc_adta>:
30006c34:	e52db004 	push	{fp}		; (str fp, [sp, #-4]!)
30006c38:	e28db000 	add	fp, sp, #0	; 0x0
30006c3c:	e24dd00c 	sub	sp, sp, #12	; 0xc
30006c40:	e59f2088 	ldr	r2, [pc, #136]	; 30006cd0 <adc_adta+0x9c>
30006c44:	e50b200c 	str	r2, [fp, #-12]
30006c48:	e51b300c 	ldr	r3, [fp, #-12]
30006c4c:	e08f3003 	add	r3, pc, r3
30006c50:	e50b300c 	str	r3, [fp, #-12]
30006c54:	e59f3078 	ldr	r3, [pc, #120]	; 30006cd4 <adc_adta+0xa0>
30006c58:	e51b200c 	ldr	r2, [fp, #-12]
30006c5c:	e0823003 	add	r3, r2, r3
30006c60:	e5933000 	ldr	r3, [r3]
30006c64:	e3530000 	cmp	r3, #0	; 0x0
30006c68:	1a000002 	bne	30006c78 <adc_adta+0x44>
30006c6c:	e3e03000 	mvn	r3, #0	; 0x0
30006c70:	e50b3008 	str	r3, [fp, #-8]
30006c74:	ea000010 	b	30006cbc <adc_adta+0x88>
30006c78:	e59f3054 	ldr	r3, [pc, #84]	; 30006cd4 <adc_adta+0xa0>
30006c7c:	e51b200c 	ldr	r2, [fp, #-12]
30006c80:	e0823003 	add	r3, r2, r3
30006c84:	e5933000 	ldr	r3, [r3]
30006c88:	e5933000 	ldr	r3, [r3]
30006c8c:	e3530000 	cmp	r3, #0	; 0x0
30006c90:	0afffff8 	beq	30006c78 <adc_adta+0x44>
30006c94:	e59f3038 	ldr	r3, [pc, #56]	; 30006cd4 <adc_adta+0xa0>
30006c98:	e51b200c 	ldr	r2, [fp, #-12]
30006c9c:	e0823003 	add	r3, r2, r3
30006ca0:	e5933000 	ldr	r3, [r3]
30006ca4:	e593300c 	ldr	r3, [r3, #12]
30006ca8:	e1a03b03 	lsl	r3, r3, #22
30006cac:	e50b3008 	str	r3, [fp, #-8]
30006cb0:	e51b3008 	ldr	r3, [fp, #-8]
30006cb4:	e1a03b23 	lsr	r3, r3, #22
30006cb8:	e50b3008 	str	r3, [fp, #-8]
30006cbc:	e51b3008 	ldr	r3, [fp, #-8]
30006cc0:	e1a00003 	mov	r0, r3
30006cc4:	e28bd000 	add	sp, fp, #0	; 0x0
30006cc8:	e8bd0800 	pop	{fp}
30006ccc:	e12fff1e 	bx	lr
30006cd0:	cfff93ac 	.word	0xcfff93ac
30006cd4:	3000d8dc 	.word	0x3000d8dc

30006cd8 <timer_init>:
30006cd8:	e52db004 	push	{fp}		; (str fp, [sp, #-4]!)
30006cdc:	e28db000 	add	fp, sp, #0	; 0x0
30006ce0:	e3a02451 	mov	r2, #1358954496	; 0x51000000
30006ce4:	e3a03031 	mov	r3, #49	; 0x31
30006ce8:	e5823000 	str	r3, [r2]
30006cec:	e3a03451 	mov	r3, #1358954496	; 0x51000000
30006cf0:	e2833004 	add	r3, r3, #4	; 0x4
30006cf4:	e3a02000 	mov	r2, #0	; 0x0
30006cf8:	e5832000 	str	r2, [r3]
30006cfc:	e3a02451 	mov	r2, #1358954496	; 0x51000000
30006d00:	e282200c 	add	r2, r2, #12	; 0xc
30006d04:	e3a03cc3 	mov	r3, #49920	; 0xc300
30006d08:	e2833050 	add	r3, r3, #80	; 0x50
30006d0c:	e5823000 	str	r3, [r2]
30006d10:	e3a02451 	mov	r2, #1358954496	; 0x51000000
30006d14:	e2822010 	add	r2, r2, #16	; 0x10
30006d18:	e3a03d4e 	mov	r3, #4992	; 0x1380
30006d1c:	e2833008 	add	r3, r3, #8	; 0x8
30006d20:	e5823000 	str	r3, [r2]
30006d24:	e3a03451 	mov	r3, #1358954496	; 0x51000000
30006d28:	e2833008 	add	r3, r3, #8	; 0x8
30006d2c:	e3a02002 	mov	r2, #2	; 0x2
30006d30:	e5832000 	str	r2, [r3]
30006d34:	e3a03451 	mov	r3, #1358954496	; 0x51000000
30006d38:	e2833008 	add	r3, r3, #8	; 0x8
30006d3c:	e3a02009 	mov	r2, #9	; 0x9
30006d40:	e5832000 	str	r2, [r3]
30006d44:	e28bd000 	add	sp, fp, #0	; 0x0
30006d48:	e8bd0800 	pop	{fp}
30006d4c:	e12fff1e 	bx	lr

30006d50 <Timer0_Handle>:
30006d50:	e52db004 	push	{fp}		; (str fp, [sp, #-4]!)
30006d54:	e28db000 	add	fp, sp, #0	; 0x0
30006d58:	e24dd00c 	sub	sp, sp, #12	; 0xc
30006d5c:	e59f104c 	ldr	r1, [pc, #76]	; 30006db0 <Timer0_Handle+0x60>
30006d60:	e08f1001 	add	r1, pc, r1
30006d64:	e50b0008 	str	r0, [fp, #-8]
30006d68:	e3a02456 	mov	r2, #1442840576	; 0x56000000
30006d6c:	e2822014 	add	r2, r2, #20	; 0x14
30006d70:	e59f303c 	ldr	r3, [pc, #60]	; 30006db4 <Timer0_Handle+0x64>
30006d74:	e0813003 	add	r3, r1, r3
30006d78:	e5933000 	ldr	r3, [r3]
30006d7c:	e203300f 	and	r3, r3, #15	; 0xf
30006d80:	e1a03283 	lsl	r3, r3, #5
30006d84:	e5823000 	str	r3, [r2]
30006d88:	e59f3024 	ldr	r3, [pc, #36]	; 30006db4 <Timer0_Handle+0x64>
30006d8c:	e0813003 	add	r3, r1, r3
30006d90:	e5933000 	ldr	r3, [r3]
30006d94:	e2832001 	add	r2, r3, #1	; 0x1
30006d98:	e59f3014 	ldr	r3, [pc, #20]	; 30006db4 <Timer0_Handle+0x64>
30006d9c:	e0813003 	add	r3, r1, r3
30006da0:	e5832000 	str	r2, [r3]
30006da4:	e28bd000 	add	sp, fp, #0	; 0x0
30006da8:	e8bd0800 	pop	{fp}
30006dac:	e12fff1e 	bx	lr
30006db0:	cfff9298 	.word	0xcfff9298
30006db4:	3000d8e4 	.word	0x3000d8e4

30006db8 <fbit_pend>:
30006db8:	e52db004 	push	{fp}		; (str fp, [sp, #-4]!)
30006dbc:	e28db000 	add	fp, sp, #0	; 0x0
30006dc0:	e24dd014 	sub	sp, sp, #20	; 0x14
30006dc4:	e50b0010 	str	r0, [fp, #-16]
30006dc8:	e3a03000 	mov	r3, #0	; 0x0
30006dcc:	e50b3008 	str	r3, [fp, #-8]
30006dd0:	e51b3010 	ldr	r3, [fp, #-16]
30006dd4:	e2033001 	and	r3, r3, #1	; 0x1
30006dd8:	e20330ff 	and	r3, r3, #255	; 0xff
30006ddc:	e3530000 	cmp	r3, #0	; 0x0
30006de0:	1a000008 	bne	30006e08 <fbit_pend+0x50>
30006de4:	e51b3010 	ldr	r3, [fp, #-16]
30006de8:	e1a030a3 	lsr	r3, r3, #1
30006dec:	e50b3010 	str	r3, [fp, #-16]
30006df0:	e51b3008 	ldr	r3, [fp, #-8]
30006df4:	e2833001 	add	r3, r3, #1	; 0x1
30006df8:	e50b3008 	str	r3, [fp, #-8]
30006dfc:	e51b3010 	ldr	r3, [fp, #-16]
30006e00:	e3530000 	cmp	r3, #0	; 0x0
30006e04:	1afffff1 	bne	30006dd0 <fbit_pend+0x18>
30006e08:	e51b3008 	ldr	r3, [fp, #-8]
30006e0c:	e1a00003 	mov	r0, r3
30006e10:	e28bd000 	add	sp, fp, #0	; 0x0
30006e14:	e8bd0800 	pop	{fp}
30006e18:	e12fff1e 	bx	lr

30006e1c <__fswab16>:
30006e1c:	e52db004 	push	{fp}		; (str fp, [sp, #-4]!)
30006e20:	e28db000 	add	fp, sp, #0	; 0x0
30006e24:	e24dd00c 	sub	sp, sp, #12	; 0xc
30006e28:	e1a03000 	mov	r3, r0
30006e2c:	e14b30b6 	strh	r3, [fp, #-6]
30006e30:	e15b30b6 	ldrh	r3, [fp, #-6]
30006e34:	e1a03403 	lsl	r3, r3, #8
30006e38:	e1a03803 	lsl	r3, r3, #16
30006e3c:	e1a02823 	lsr	r2, r3, #16
30006e40:	e15b30b6 	ldrh	r3, [fp, #-6]
30006e44:	e1a03423 	lsr	r3, r3, #8
30006e48:	e1a03803 	lsl	r3, r3, #16
30006e4c:	e1a03823 	lsr	r3, r3, #16
30006e50:	e1823003 	orr	r3, r2, r3
30006e54:	e1a03803 	lsl	r3, r3, #16
30006e58:	e1a03823 	lsr	r3, r3, #16
30006e5c:	e1a03803 	lsl	r3, r3, #16
30006e60:	e1a03823 	lsr	r3, r3, #16
30006e64:	e1a00003 	mov	r0, r3
30006e68:	e28bd000 	add	sp, fp, #0	; 0x0
30006e6c:	e8bd0800 	pop	{fp}
30006e70:	e12fff1e 	bx	lr

30006e74 <__fswab32>:
30006e74:	e52db004 	push	{fp}		; (str fp, [sp, #-4]!)
30006e78:	e28db000 	add	fp, sp, #0	; 0x0
30006e7c:	e24dd00c 	sub	sp, sp, #12	; 0xc
30006e80:	e50b0008 	str	r0, [fp, #-8]
30006e84:	e51b3008 	ldr	r3, [fp, #-8]
30006e88:	e1a02c03 	lsl	r2, r3, #24
30006e8c:	e51b3008 	ldr	r3, [fp, #-8]
30006e90:	e2033cff 	and	r3, r3, #65280	; 0xff00
30006e94:	e1a03403 	lsl	r3, r3, #8
30006e98:	e1822003 	orr	r2, r2, r3
30006e9c:	e51b3008 	ldr	r3, [fp, #-8]
30006ea0:	e20338ff 	and	r3, r3, #16711680	; 0xff0000
30006ea4:	e1a03423 	lsr	r3, r3, #8
30006ea8:	e1822003 	orr	r2, r2, r3
30006eac:	e51b3008 	ldr	r3, [fp, #-8]
30006eb0:	e1a03c23 	lsr	r3, r3, #24
30006eb4:	e1823003 	orr	r3, r2, r3
30006eb8:	e1a00003 	mov	r0, r3
30006ebc:	e28bd000 	add	sp, fp, #0	; 0x0
30006ec0:	e8bd0800 	pop	{fp}
30006ec4:	e12fff1e 	bx	lr

30006ec8 <__fswab64>:
30006ec8:	e92d0870 	push	{r4, r5, r6, fp}
30006ecc:	e28db00c 	add	fp, sp, #12	; 0xc
30006ed0:	e24dd008 	sub	sp, sp, #8	; 0x8
30006ed4:	e50b0014 	str	r0, [fp, #-20]
30006ed8:	e50b1010 	str	r1, [fp, #-16]
30006edc:	e51b3014 	ldr	r3, [fp, #-20]
30006ee0:	e1a02c03 	lsl	r2, r3, #24
30006ee4:	e3a01000 	mov	r1, #0	; 0x0
30006ee8:	e24b6014 	sub	r6, fp, #20	; 0x14
30006eec:	e8960060 	ldm	r6, {r5, r6}
30006ef0:	e3a03cff 	mov	r3, #65280	; 0xff00
30006ef4:	e3a04000 	mov	r4, #0	; 0x0
30006ef8:	e0055003 	and	r5, r5, r3
30006efc:	e0066004 	and	r6, r6, r4
30006f00:	e1a04405 	lsl	r4, r5, #8
30006f04:	e3a03000 	mov	r3, #0	; 0x0
30006f08:	e1815003 	orr	r5, r1, r3
30006f0c:	e1826004 	orr	r6, r2, r4
30006f10:	e24b2014 	sub	r2, fp, #20	; 0x14
30006f14:	e8920006 	ldm	r2, {r1, r2}
30006f18:	e3a038ff 	mov	r3, #16711680	; 0xff0000
30006f1c:	e3a04000 	mov	r4, #0	; 0x0
30006f20:	e0011003 	and	r1, r1, r3
30006f24:	e0022004 	and	r2, r2, r4
30006f28:	e1a00421 	lsr	r0, r1, #8
30006f2c:	e1a04c02 	lsl	r4, r2, #24
30006f30:	e1804004 	orr	r4, r0, r4
30006f34:	e1a03c01 	lsl	r3, r1, #24
30006f38:	e1855003 	orr	r5, r5, r3
30006f3c:	e1866004 	orr	r6, r6, r4
30006f40:	e24b2014 	sub	r2, fp, #20	; 0x14
30006f44:	e8920006 	ldm	r2, {r1, r2}
30006f48:	e3a034ff 	mov	r3, #-16777216	; 0xff000000
30006f4c:	e3a04000 	mov	r4, #0	; 0x0
30006f50:	e0011003 	and	r1, r1, r3
30006f54:	e0022004 	and	r2, r2, r4
30006f58:	e1a00c21 	lsr	r0, r1, #24
30006f5c:	e1a04402 	lsl	r4, r2, #8
30006f60:	e1804004 	orr	r4, r0, r4
30006f64:	e1a03401 	lsl	r3, r1, #8
30006f68:	e1855003 	orr	r5, r5, r3
30006f6c:	e1866004 	orr	r6, r6, r4
30006f70:	e24b2014 	sub	r2, fp, #20	; 0x14
30006f74:	e8920006 	ldm	r2, {r1, r2}
30006f78:	e3a03000 	mov	r3, #0	; 0x0
30006f7c:	e3a040ff 	mov	r4, #255	; 0xff
30006f80:	e0011003 	and	r1, r1, r3
30006f84:	e0022004 	and	r2, r2, r4
30006f88:	e1a00c02 	lsl	r0, r2, #24
30006f8c:	e1a03421 	lsr	r3, r1, #8
30006f90:	e1803003 	orr	r3, r0, r3
30006f94:	e1a04422 	lsr	r4, r2, #8
30006f98:	e1855003 	orr	r5, r5, r3
30006f9c:	e1866004 	orr	r6, r6, r4
30006fa0:	e24b2014 	sub	r2, fp, #20	; 0x14
30006fa4:	e8920006 	ldm	r2, {r1, r2}
30006fa8:	e3a03000 	mov	r3, #0	; 0x0
30006fac:	e3a04cff 	mov	r4, #65280	; 0xff00
30006fb0:	e0011003 	and	r1, r1, r3
30006fb4:	e0022004 	and	r2, r2, r4
30006fb8:	e1a00402 	lsl	r0, r2, #8
30006fbc:	e1a03c21 	lsr	r3, r1, #24
30006fc0:	e1803003 	orr	r3, r0, r3
30006fc4:	e1a04c22 	lsr	r4, r2, #24
30006fc8:	e1855003 	orr	r5, r5, r3
30006fcc:	e1866004 	orr	r6, r6, r4
30006fd0:	e24b2014 	sub	r2, fp, #20	; 0x14
30006fd4:	e8920006 	ldm	r2, {r1, r2}
30006fd8:	e3a03000 	mov	r3, #0	; 0x0
30006fdc:	e3a048ff 	mov	r4, #16711680	; 0xff0000
30006fe0:	e0011003 	and	r1, r1, r3
30006fe4:	e0022004 	and	r2, r2, r4
30006fe8:	e1a03422 	lsr	r3, r2, #8
30006fec:	e3a04000 	mov	r4, #0	; 0x0
30006ff0:	e1850003 	orr	r0, r5, r3
30006ff4:	e1861004 	orr	r1, r6, r4
30006ff8:	e51b2010 	ldr	r2, [fp, #-16]
30006ffc:	e1a03c22 	lsr	r3, r2, #24
30007000:	e3a04000 	mov	r4, #0	; 0x0
30007004:	e1833000 	orr	r3, r3, r0
30007008:	e1844001 	orr	r4, r4, r1
3000700c:	e1a00003 	mov	r0, r3
30007010:	e1a01004 	mov	r1, r4
30007014:	e24bd00c 	sub	sp, fp, #12	; 0xc
30007018:	e8bd0870 	pop	{r4, r5, r6, fp}
3000701c:	e12fff1e 	bx	lr

30007020 <__swab16p>:
30007020:	e52db004 	push	{fp}		; (str fp, [sp, #-4]!)
30007024:	e28db000 	add	fp, sp, #0	; 0x0
30007028:	e24dd00c 	sub	sp, sp, #12	; 0xc
3000702c:	e50b0008 	str	r0, [fp, #-8]
30007030:	e51b3008 	ldr	r3, [fp, #-8]
30007034:	e1d330b0 	ldrh	r3, [r3]
30007038:	e1a03403 	lsl	r3, r3, #8
3000703c:	e1a03803 	lsl	r3, r3, #16
30007040:	e1a02823 	lsr	r2, r3, #16
30007044:	e51b3008 	ldr	r3, [fp, #-8]
30007048:	e1d330b0 	ldrh	r3, [r3]
3000704c:	e1a03423 	lsr	r3, r3, #8
30007050:	e1a03803 	lsl	r3, r3, #16
30007054:	e1a03823 	lsr	r3, r3, #16
30007058:	e1823003 	orr	r3, r2, r3
3000705c:	e1a03803 	lsl	r3, r3, #16
30007060:	e1a03823 	lsr	r3, r3, #16
30007064:	e1a03803 	lsl	r3, r3, #16
30007068:	e1a03823 	lsr	r3, r3, #16
3000706c:	e1a00003 	mov	r0, r3
30007070:	e28bd000 	add	sp, fp, #0	; 0x0
30007074:	e8bd0800 	pop	{fp}
30007078:	e12fff1e 	bx	lr

3000707c <__swab32p>:
3000707c:	e52db004 	push	{fp}		; (str fp, [sp, #-4]!)
30007080:	e28db000 	add	fp, sp, #0	; 0x0
30007084:	e24dd00c 	sub	sp, sp, #12	; 0xc
30007088:	e50b0008 	str	r0, [fp, #-8]
3000708c:	e51b3008 	ldr	r3, [fp, #-8]
30007090:	e5933000 	ldr	r3, [r3]
30007094:	e1a02c03 	lsl	r2, r3, #24
30007098:	e51b3008 	ldr	r3, [fp, #-8]
3000709c:	e5933000 	ldr	r3, [r3]
300070a0:	e2033cff 	and	r3, r3, #65280	; 0xff00
300070a4:	e1a03403 	lsl	r3, r3, #8
300070a8:	e1822003 	orr	r2, r2, r3
300070ac:	e51b3008 	ldr	r3, [fp, #-8]
300070b0:	e5933000 	ldr	r3, [r3]
300070b4:	e20338ff 	and	r3, r3, #16711680	; 0xff0000
300070b8:	e1a03423 	lsr	r3, r3, #8
300070bc:	e1822003 	orr	r2, r2, r3
300070c0:	e51b3008 	ldr	r3, [fp, #-8]
300070c4:	e5933000 	ldr	r3, [r3]
300070c8:	e1a03c23 	lsr	r3, r3, #24
300070cc:	e1823003 	orr	r3, r2, r3
300070d0:	e1a00003 	mov	r0, r3
300070d4:	e28bd000 	add	sp, fp, #0	; 0x0
300070d8:	e8bd0800 	pop	{fp}
300070dc:	e12fff1e 	bx	lr

300070e0 <__swab64p>:
300070e0:	e92d0870 	push	{r4, r5, r6, fp}
300070e4:	e28db00c 	add	fp, sp, #12	; 0xc
300070e8:	e24dd008 	sub	sp, sp, #8	; 0x8
300070ec:	e50b0010 	str	r0, [fp, #-16]
300070f0:	e51b3010 	ldr	r3, [fp, #-16]
300070f4:	e8930018 	ldm	r3, {r3, r4}
300070f8:	e1a02c03 	lsl	r2, r3, #24
300070fc:	e3a01000 	mov	r1, #0	; 0x0
30007100:	e51b3010 	ldr	r3, [fp, #-16]
30007104:	e8930060 	ldm	r3, {r5, r6}
30007108:	e3a03cff 	mov	r3, #65280	; 0xff00
3000710c:	e3a04000 	mov	r4, #0	; 0x0
30007110:	e0055003 	and	r5, r5, r3
30007114:	e0066004 	and	r6, r6, r4
30007118:	e1a04405 	lsl	r4, r5, #8
3000711c:	e3a03000 	mov	r3, #0	; 0x0
30007120:	e1815003 	orr	r5, r1, r3
30007124:	e1826004 	orr	r6, r2, r4
30007128:	e51b3010 	ldr	r3, [fp, #-16]
3000712c:	e8930006 	ldm	r3, {r1, r2}
30007130:	e3a038ff 	mov	r3, #16711680	; 0xff0000
30007134:	e3a04000 	mov	r4, #0	; 0x0
30007138:	e0011003 	and	r1, r1, r3
3000713c:	e0022004 	and	r2, r2, r4
30007140:	e1a00421 	lsr	r0, r1, #8
30007144:	e1a04c02 	lsl	r4, r2, #24
30007148:	e1804004 	orr	r4, r0, r4
3000714c:	e1a03c01 	lsl	r3, r1, #24
30007150:	e1855003 	orr	r5, r5, r3
30007154:	e1866004 	orr	r6, r6, r4
30007158:	e51b3010 	ldr	r3, [fp, #-16]
3000715c:	e8930006 	ldm	r3, {r1, r2}
30007160:	e3a034ff 	mov	r3, #-16777216	; 0xff000000
30007164:	e3a04000 	mov	r4, #0	; 0x0
30007168:	e0011003 	and	r1, r1, r3
3000716c:	e0022004 	and	r2, r2, r4
30007170:	e1a00c21 	lsr	r0, r1, #24
30007174:	e1a04402 	lsl	r4, r2, #8
30007178:	e1804004 	orr	r4, r0, r4
3000717c:	e1a03401 	lsl	r3, r1, #8
30007180:	e1855003 	orr	r5, r5, r3
30007184:	e1866004 	orr	r6, r6, r4
30007188:	e51b3010 	ldr	r3, [fp, #-16]
3000718c:	e8930006 	ldm	r3, {r1, r2}
30007190:	e3a03000 	mov	r3, #0	; 0x0
30007194:	e3a040ff 	mov	r4, #255	; 0xff
30007198:	e0011003 	and	r1, r1, r3
3000719c:	e0022004 	and	r2, r2, r4
300071a0:	e1a00c02 	lsl	r0, r2, #24
300071a4:	e1a03421 	lsr	r3, r1, #8
300071a8:	e1803003 	orr	r3, r0, r3
300071ac:	e1a04422 	lsr	r4, r2, #8
300071b0:	e1855003 	orr	r5, r5, r3
300071b4:	e1866004 	orr	r6, r6, r4
300071b8:	e51b3010 	ldr	r3, [fp, #-16]
300071bc:	e8930006 	ldm	r3, {r1, r2}
300071c0:	e3a03000 	mov	r3, #0	; 0x0
300071c4:	e3a04cff 	mov	r4, #65280	; 0xff00
300071c8:	e0011003 	and	r1, r1, r3
300071cc:	e0022004 	and	r2, r2, r4
300071d0:	e1a00402 	lsl	r0, r2, #8
300071d4:	e1a03c21 	lsr	r3, r1, #24
300071d8:	e1803003 	orr	r3, r0, r3
300071dc:	e1a04c22 	lsr	r4, r2, #24
300071e0:	e1855003 	orr	r5, r5, r3
300071e4:	e1866004 	orr	r6, r6, r4
300071e8:	e51b3010 	ldr	r3, [fp, #-16]
300071ec:	e8930006 	ldm	r3, {r1, r2}
300071f0:	e3a03000 	mov	r3, #0	; 0x0
300071f4:	e3a048ff 	mov	r4, #16711680	; 0xff0000
300071f8:	e0011003 	and	r1, r1, r3
300071fc:	e0022004 	and	r2, r2, r4
30007200:	e1a03422 	lsr	r3, r2, #8
30007204:	e3a04000 	mov	r4, #0	; 0x0
30007208:	e1855003 	orr	r5, r5, r3
3000720c:	e1866004 	orr	r6, r6, r4
30007210:	e51b3010 	ldr	r3, [fp, #-16]
30007214:	e8930006 	ldm	r3, {r1, r2}
30007218:	e1a03c22 	lsr	r3, r2, #24
3000721c:	e3a04000 	mov	r4, #0	; 0x0
30007220:	e1833005 	orr	r3, r3, r5
30007224:	e1844006 	orr	r4, r4, r6
30007228:	e1a00003 	mov	r0, r3
3000722c:	e1a01004 	mov	r1, r4
30007230:	e24bd00c 	sub	sp, fp, #12	; 0xc
30007234:	e8bd0870 	pop	{r4, r5, r6, fp}
30007238:	e12fff1e 	bx	lr

3000723c <__swab16s>:
3000723c:	e92d4800 	push	{fp, lr}
30007240:	e28db004 	add	fp, sp, #4	; 0x4
30007244:	e24dd008 	sub	sp, sp, #8	; 0x8
30007248:	e50b0008 	str	r0, [fp, #-8]
3000724c:	e51b0008 	ldr	r0, [fp, #-8]
30007250:	ebffff72 	bl	30007020 <__swab16p>
30007254:	e1a03000 	mov	r3, r0
30007258:	e1a02003 	mov	r2, r3
3000725c:	e51b3008 	ldr	r3, [fp, #-8]
30007260:	e1c320b0 	strh	r2, [r3]
30007264:	e24bd004 	sub	sp, fp, #4	; 0x4
30007268:	e8bd4800 	pop	{fp, lr}
3000726c:	e12fff1e 	bx	lr

30007270 <__swab32s>:
30007270:	e92d4800 	push	{fp, lr}
30007274:	e28db004 	add	fp, sp, #4	; 0x4
30007278:	e24dd008 	sub	sp, sp, #8	; 0x8
3000727c:	e50b0008 	str	r0, [fp, #-8]
30007280:	e51b0008 	ldr	r0, [fp, #-8]
30007284:	ebffff7c 	bl	3000707c <__swab32p>
30007288:	e1a02000 	mov	r2, r0
3000728c:	e51b3008 	ldr	r3, [fp, #-8]
30007290:	e5832000 	str	r2, [r3]
30007294:	e24bd004 	sub	sp, fp, #4	; 0x4
30007298:	e8bd4800 	pop	{fp, lr}
3000729c:	e12fff1e 	bx	lr

300072a0 <__swab64s>:
300072a0:	e92d4810 	push	{r4, fp, lr}
300072a4:	e28db008 	add	fp, sp, #8	; 0x8
300072a8:	e24dd00c 	sub	sp, sp, #12	; 0xc
300072ac:	e50b0010 	str	r0, [fp, #-16]
300072b0:	e51b0010 	ldr	r0, [fp, #-16]
300072b4:	ebffff89 	bl	300070e0 <__swab64p>
300072b8:	e1a03000 	mov	r3, r0
300072bc:	e1a04001 	mov	r4, r1
300072c0:	e51b2010 	ldr	r2, [fp, #-16]
300072c4:	e8820018 	stm	r2, {r3, r4}
300072c8:	e24bd008 	sub	sp, fp, #8	; 0x8
300072cc:	e8bd4810 	pop	{r4, fp, lr}
300072d0:	e12fff1e 	bx	lr

300072d4 <Dummy_isr>:
300072d4:	e92d4800 	push	{fp, lr}
300072d8:	e28db004 	add	fp, sp, #4	; 0x4
300072dc:	e24dd008 	sub	sp, sp, #8	; 0x8
300072e0:	e59f301c 	ldr	r3, [pc, #28]	; 30007304 <Dummy_isr+0x30>
300072e4:	e08f3003 	add	r3, pc, r3
300072e8:	e50b0008 	str	r0, [fp, #-8]
300072ec:	e59f2014 	ldr	r2, [pc, #20]	; 30007308 <Dummy_isr+0x34>
300072f0:	e0833002 	add	r3, r3, r2
300072f4:	e1a00003 	mov	r0, r3
300072f8:	e51b1008 	ldr	r1, [fp, #-8]
300072fc:	ebffe67c 	bl	30000cf4 <printf>
30007300:	eafffffe 	b	30007300 <Dummy_isr+0x2c>
30007304:	cfff8d14 	.word	0xcfff8d14
30007308:	3000c554 	.word	0x3000c554

3000730c <extern_isr>:
3000730c:	e92d4800 	push	{fp, lr}
30007310:	e28db004 	add	fp, sp, #4	; 0x4
30007314:	e24dd018 	sub	sp, sp, #24	; 0x18
30007318:	e59f10e0 	ldr	r1, [pc, #224]	; 30007400 <extern_isr+0xf4>
3000731c:	e50b1014 	str	r1, [fp, #-20]
30007320:	e51b2014 	ldr	r2, [fp, #-20]
30007324:	e08f2002 	add	r2, pc, r2
30007328:	e50b2014 	str	r2, [fp, #-20]
3000732c:	e50b0010 	str	r0, [fp, #-16]
30007330:	e3a03456 	mov	r3, #1442840576	; 0x56000000
30007334:	e28330a8 	add	r3, r3, #168	; 0xa8
30007338:	e5933000 	ldr	r3, [r3]
3000733c:	e50b3008 	str	r3, [fp, #-8]
30007340:	e51b0008 	ldr	r0, [fp, #-8]
30007344:	ebfffe9b 	bl	30006db8 <fbit_pend>
30007348:	e1a03000 	mov	r3, r0
3000734c:	e50b300c 	str	r3, [fp, #-12]
30007350:	e51b300c 	ldr	r3, [fp, #-12]
30007354:	e58d3000 	str	r3, [sp]
30007358:	e59f30a4 	ldr	r3, [pc, #164]	; 30007404 <extern_isr+0xf8>
3000735c:	e51b1014 	ldr	r1, [fp, #-20]
30007360:	e0813003 	add	r3, r1, r3
30007364:	e1a00003 	mov	r0, r3
30007368:	e59f3098 	ldr	r3, [pc, #152]	; 30007408 <extern_isr+0xfc>
3000736c:	e51b2014 	ldr	r2, [fp, #-20]
30007370:	e0823003 	add	r3, r2, r3
30007374:	e1a01003 	mov	r1, r3
30007378:	e59f308c 	ldr	r3, [pc, #140]	; 3000740c <extern_isr+0x100>
3000737c:	e51b2014 	ldr	r2, [fp, #-20]
30007380:	e0823003 	add	r3, r2, r3
30007384:	e1a02003 	mov	r2, r3
30007388:	e3a03015 	mov	r3, #21	; 0x15
3000738c:	ebffe658 	bl	30000cf4 <printf>
30007390:	e51b300c 	ldr	r3, [fp, #-12]
30007394:	e353001f 	cmp	r3, #31	; 0x1f
30007398:	9a000002 	bls	300073a8 <extern_isr+0x9c>
3000739c:	e51b0010 	ldr	r0, [fp, #-16]
300073a0:	ebffffcb 	bl	300072d4 <Dummy_isr>
300073a4:	ea000007 	b	300073c8 <extern_isr+0xbc>
300073a8:	e51b200c 	ldr	r2, [fp, #-12]
300073ac:	e59f305c 	ldr	r3, [pc, #92]	; 30007410 <extern_isr+0x104>
300073b0:	e51b1014 	ldr	r1, [fp, #-20]
300073b4:	e0813003 	add	r3, r1, r3
300073b8:	e7933102 	ldr	r3, [r3, r2, lsl #2]
300073bc:	e51b0010 	ldr	r0, [fp, #-16]
300073c0:	e1a0e00f 	mov	lr, pc
300073c4:	e12fff13 	bx	r3
300073c8:	e3a01456 	mov	r1, #1442840576	; 0x56000000
300073cc:	e28110a8 	add	r1, r1, #168	; 0xa8
300073d0:	e3a03456 	mov	r3, #1442840576	; 0x56000000
300073d4:	e28330a8 	add	r3, r3, #168	; 0xa8
300073d8:	e5930000 	ldr	r0, [r3]
300073dc:	e51b300c 	ldr	r3, [fp, #-12]
300073e0:	e203201f 	and	r2, r3, #31	; 0x1f
300073e4:	e3a03001 	mov	r3, #1	; 0x1
300073e8:	e1a03213 	lsl	r3, r3, r2
300073ec:	e1803003 	orr	r3, r0, r3
300073f0:	e5813000 	str	r3, [r1]
300073f4:	e24bd004 	sub	sp, fp, #4	; 0x4
300073f8:	e8bd4800 	pop	{fp, lr}
300073fc:	e12fff1e 	bx	lr
30007400:	cfff8cd4 	.word	0xcfff8cd4
30007404:	3000c570 	.word	0x3000c570
30007408:	3000c588 	.word	0x3000c588
3000740c:	3000c564 	.word	0x3000c564
30007410:	3000d968 	.word	0x3000d968

30007414 <init_irq>:
30007414:	e52db004 	push	{fp}		; (str fp, [sp, #-4]!)
30007418:	e28db000 	add	fp, sp, #0	; 0x0
3000741c:	e24dd014 	sub	sp, sp, #20	; 0x14
30007420:	e59f0124 	ldr	r0, [pc, #292]	; 3000754c <init_irq+0x138>
30007424:	e50b0010 	str	r0, [fp, #-16]
30007428:	e51b3010 	ldr	r3, [fp, #-16]
3000742c:	e08f3003 	add	r3, pc, r3
30007430:	e50b3010 	str	r3, [fp, #-16]
30007434:	e3a03000 	mov	r3, #0	; 0x0
30007438:	e50b3008 	str	r3, [fp, #-8]
3000743c:	ea000019 	b	300074a8 <init_irq+0x94>
30007440:	e51b3008 	ldr	r3, [fp, #-8]
30007444:	e3530004 	cmp	r3, #4	; 0x4
30007448:	0a000002 	beq	30007458 <init_irq+0x44>
3000744c:	e51b3008 	ldr	r3, [fp, #-8]
30007450:	e3530005 	cmp	r3, #5	; 0x5
30007454:	1a000008 	bne	3000747c <init_irq+0x68>
30007458:	e51b1008 	ldr	r1, [fp, #-8]
3000745c:	e59f30ec 	ldr	r3, [pc, #236]	; 30007550 <init_irq+0x13c>
30007460:	e51b0010 	ldr	r0, [fp, #-16]
30007464:	e0802003 	add	r2, r0, r3
30007468:	e59f30e4 	ldr	r3, [pc, #228]	; 30007554 <init_irq+0x140>
3000746c:	e51b0010 	ldr	r0, [fp, #-16]
30007470:	e0803003 	add	r3, r0, r3
30007474:	e7823101 	str	r3, [r2, r1, lsl #2]
30007478:	ea000007 	b	3000749c <init_irq+0x88>
3000747c:	e51b1008 	ldr	r1, [fp, #-8]
30007480:	e59f30c8 	ldr	r3, [pc, #200]	; 30007550 <init_irq+0x13c>
30007484:	e51b0010 	ldr	r0, [fp, #-16]
30007488:	e0802003 	add	r2, r0, r3
3000748c:	e59f30c4 	ldr	r3, [pc, #196]	; 30007558 <init_irq+0x144>
30007490:	e51b0010 	ldr	r0, [fp, #-16]
30007494:	e0803003 	add	r3, r0, r3
30007498:	e7823101 	str	r3, [r2, r1, lsl #2]
3000749c:	e51b3008 	ldr	r3, [fp, #-8]
300074a0:	e2833001 	add	r3, r3, #1	; 0x1
300074a4:	e50b3008 	str	r3, [fp, #-8]
300074a8:	e51b3008 	ldr	r3, [fp, #-8]
300074ac:	e353001f 	cmp	r3, #31	; 0x1f
300074b0:	9affffe2 	bls	30007440 <init_irq+0x2c>
300074b4:	e3a03000 	mov	r3, #0	; 0x0
300074b8:	e50b3008 	str	r3, [fp, #-8]
300074bc:	ea00000a 	b	300074ec <init_irq+0xd8>
300074c0:	e51b1008 	ldr	r1, [fp, #-8]
300074c4:	e59f3090 	ldr	r3, [pc, #144]	; 3000755c <init_irq+0x148>
300074c8:	e51b0010 	ldr	r0, [fp, #-16]
300074cc:	e0802003 	add	r2, r0, r3
300074d0:	e59f3080 	ldr	r3, [pc, #128]	; 30007558 <init_irq+0x144>
300074d4:	e51b0010 	ldr	r0, [fp, #-16]
300074d8:	e0803003 	add	r3, r0, r3
300074dc:	e7823101 	str	r3, [r2, r1, lsl #2]
300074e0:	e51b3008 	ldr	r3, [fp, #-8]
300074e4:	e2833001 	add	r3, r3, #1	; 0x1
300074e8:	e50b3008 	str	r3, [fp, #-8]
300074ec:	e51b3008 	ldr	r3, [fp, #-8]
300074f0:	e3530017 	cmp	r3, #23	; 0x17
300074f4:	9afffff1 	bls	300074c0 <init_irq+0xac>
300074f8:	e3a0344a 	mov	r3, #1241513984	; 0x4a000000
300074fc:	e2833004 	add	r3, r3, #4	; 0x4
30007500:	e3a02000 	mov	r2, #0	; 0x0
30007504:	e5832000 	str	r2, [r3]
30007508:	e3a0344a 	mov	r3, #1241513984	; 0x4a000000
3000750c:	e2833008 	add	r3, r3, #8	; 0x8
30007510:	e3e02000 	mvn	r2, #0	; 0x0
30007514:	e5832000 	str	r2, [r3]
30007518:	e3a0244a 	mov	r2, #1241513984	; 0x4a000000
3000751c:	e282201c 	add	r2, r2, #28	; 0x1c
30007520:	e3a03c7f 	mov	r3, #32512	; 0x7f00
30007524:	e28330ff 	add	r3, r3, #255	; 0xff
30007528:	e5823000 	str	r3, [r2]
3000752c:	e3a02456 	mov	r2, #1442840576	; 0x56000000
30007530:	e28220a4 	add	r2, r2, #164	; 0xa4
30007534:	e3a03401 	mov	r3, #16777216	; 0x1000000
30007538:	e2433010 	sub	r3, r3, #16	; 0x10
3000753c:	e5823000 	str	r3, [r2]
30007540:	e28bd000 	add	sp, fp, #0	; 0x0
30007544:	e8bd0800 	pop	{fp}
30007548:	e12fff1e 	bx	lr
3000754c:	cfff8bcc 	.word	0xcfff8bcc
30007550:	3000d8e8 	.word	0x3000d8e8
30007554:	3000730c 	.word	0x3000730c
30007558:	300072d4 	.word	0x300072d4
3000755c:	3000d968 	.word	0x3000d968

30007560 <subint_mask>:
30007560:	e52db004 	push	{fp}		; (str fp, [sp, #-4]!)
30007564:	e28db000 	add	fp, sp, #0	; 0x0
30007568:	e24dd00c 	sub	sp, sp, #12	; 0xc
3000756c:	e50b0008 	str	r0, [fp, #-8]
30007570:	e51b3008 	ldr	r3, [fp, #-8]
30007574:	e2433006 	sub	r3, r3, #6	; 0x6
30007578:	e3530019 	cmp	r3, #25	; 0x19
3000757c:	908ff103 	addls	pc, pc, r3, lsl #2
30007580:	ea000048 	b	300076a8 <subint_mask+0x148>
30007584:	ea000018 	b	300075ec <subint_mask+0x8c>
30007588:	ea000046 	b	300076a8 <subint_mask+0x148>
3000758c:	ea000045 	b	300076a8 <subint_mask+0x148>
30007590:	ea00001d 	b	3000760c <subint_mask+0xac>
30007594:	ea000043 	b	300076a8 <subint_mask+0x148>
30007598:	ea000042 	b	300076a8 <subint_mask+0x148>
3000759c:	ea000041 	b	300076a8 <subint_mask+0x148>
300075a0:	ea000040 	b	300076a8 <subint_mask+0x148>
300075a4:	ea00003f 	b	300076a8 <subint_mask+0x148>
300075a8:	ea00001f 	b	3000762c <subint_mask+0xcc>
300075ac:	ea00003d 	b	300076a8 <subint_mask+0x148>
300075b0:	ea00003c 	b	300076a8 <subint_mask+0x148>
300075b4:	ea00003b 	b	300076a8 <subint_mask+0x148>
300075b8:	ea00003a 	b	300076a8 <subint_mask+0x148>
300075bc:	ea000039 	b	300076a8 <subint_mask+0x148>
300075c0:	ea000038 	b	300076a8 <subint_mask+0x148>
300075c4:	ea000037 	b	300076a8 <subint_mask+0x148>
300075c8:	ea00001f 	b	3000764c <subint_mask+0xec>
300075cc:	ea000035 	b	300076a8 <subint_mask+0x148>
300075d0:	ea000034 	b	300076a8 <subint_mask+0x148>
300075d4:	ea000033 	b	300076a8 <subint_mask+0x148>
300075d8:	ea000032 	b	300076a8 <subint_mask+0x148>
300075dc:	ea000022 	b	3000766c <subint_mask+0x10c>
300075e0:	ea000030 	b	300076a8 <subint_mask+0x148>
300075e4:	ea00002f 	b	300076a8 <subint_mask+0x148>
300075e8:	ea000027 	b	3000768c <subint_mask+0x12c>
300075ec:	e3a0244a 	mov	r2, #1241513984	; 0x4a000000
300075f0:	e282201c 	add	r2, r2, #28	; 0x1c
300075f4:	e3a0344a 	mov	r3, #1241513984	; 0x4a000000
300075f8:	e283301c 	add	r3, r3, #28	; 0x1c
300075fc:	e5933000 	ldr	r3, [r3]
30007600:	e3c33b06 	bic	r3, r3, #6144	; 0x1800
30007604:	e5823000 	str	r3, [r2]
30007608:	ea000026 	b	300076a8 <subint_mask+0x148>
3000760c:	e3a0244a 	mov	r2, #1241513984	; 0x4a000000
30007610:	e282201c 	add	r2, r2, #28	; 0x1c
30007614:	e3a0344a 	mov	r3, #1241513984	; 0x4a000000
30007618:	e283301c 	add	r3, r3, #28	; 0x1c
3000761c:	e5933000 	ldr	r3, [r3]
30007620:	e3c33a06 	bic	r3, r3, #24576	; 0x6000
30007624:	e5823000 	str	r3, [r2]
30007628:	ea00001e 	b	300076a8 <subint_mask+0x148>
3000762c:	e3a0244a 	mov	r2, #1241513984	; 0x4a000000
30007630:	e282201c 	add	r2, r2, #28	; 0x1c
30007634:	e3a0344a 	mov	r3, #1241513984	; 0x4a000000
30007638:	e283301c 	add	r3, r3, #28	; 0x1c
3000763c:	e5933000 	ldr	r3, [r3]
30007640:	e3c33d07 	bic	r3, r3, #448	; 0x1c0
30007644:	e5823000 	str	r3, [r2]
30007648:	ea000016 	b	300076a8 <subint_mask+0x148>
3000764c:	e3a0244a 	mov	r2, #1241513984	; 0x4a000000
30007650:	e282201c 	add	r2, r2, #28	; 0x1c
30007654:	e3a0344a 	mov	r3, #1241513984	; 0x4a000000
30007658:	e283301c 	add	r3, r3, #28	; 0x1c
3000765c:	e5933000 	ldr	r3, [r3]
30007660:	e3c33038 	bic	r3, r3, #56	; 0x38
30007664:	e5823000 	str	r3, [r2]
30007668:	ea00000e 	b	300076a8 <subint_mask+0x148>
3000766c:	e3a0244a 	mov	r2, #1241513984	; 0x4a000000
30007670:	e282201c 	add	r2, r2, #28	; 0x1c
30007674:	e3a0344a 	mov	r3, #1241513984	; 0x4a000000
30007678:	e283301c 	add	r3, r3, #28	; 0x1c
3000767c:	e5933000 	ldr	r3, [r3]
30007680:	e3c33007 	bic	r3, r3, #7	; 0x7
30007684:	e5823000 	str	r3, [r2]
30007688:	ea000006 	b	300076a8 <subint_mask+0x148>
3000768c:	e3a0244a 	mov	r2, #1241513984	; 0x4a000000
30007690:	e282201c 	add	r2, r2, #28	; 0x1c
30007694:	e3a0344a 	mov	r3, #1241513984	; 0x4a000000
30007698:	e283301c 	add	r3, r3, #28	; 0x1c
3000769c:	e5933000 	ldr	r3, [r3]
300076a0:	e3c33c06 	bic	r3, r3, #1536	; 0x600
300076a4:	e5823000 	str	r3, [r2]
300076a8:	e28bd000 	add	sp, fp, #0	; 0x0
300076ac:	e8bd0800 	pop	{fp}
300076b0:	e12fff1e 	bx	lr

300076b4 <register_interrupt>:
300076b4:	e92d4800 	push	{fp, lr}
300076b8:	e28db004 	add	fp, sp, #4	; 0x4
300076bc:	e24dd010 	sub	sp, sp, #16	; 0x10
300076c0:	e59f20a8 	ldr	r2, [pc, #168]	; 30007770 <register_interrupt+0xbc>
300076c4:	e50b2014 	str	r2, [fp, #-20]
300076c8:	e51b3014 	ldr	r3, [fp, #-20]
300076cc:	e08f3003 	add	r3, pc, r3
300076d0:	e50b3014 	str	r3, [fp, #-20]
300076d4:	e50b0008 	str	r0, [fp, #-8]
300076d8:	e50b100c 	str	r1, [fp, #-12]
300076dc:	e51b3008 	ldr	r3, [fp, #-8]
300076e0:	e353001f 	cmp	r3, #31	; 0x1f
300076e4:	9a000007 	bls	30007708 <register_interrupt+0x54>
300076e8:	e59f3084 	ldr	r3, [pc, #132]	; 30007774 <register_interrupt+0xc0>
300076ec:	e51b0014 	ldr	r0, [fp, #-20]
300076f0:	e0803003 	add	r3, r0, r3
300076f4:	e1a00003 	mov	r0, r3
300076f8:	ebffe5ea 	bl	30000ea8 <puts>
300076fc:	e3e02000 	mvn	r2, #0	; 0x0
30007700:	e50b2010 	str	r2, [fp, #-16]
30007704:	ea000014 	b	3000775c <register_interrupt+0xa8>
30007708:	e51b1008 	ldr	r1, [fp, #-8]
3000770c:	e59f3064 	ldr	r3, [pc, #100]	; 30007778 <register_interrupt+0xc4>
30007710:	e51b0014 	ldr	r0, [fp, #-20]
30007714:	e0802003 	add	r2, r0, r3
30007718:	e51b300c 	ldr	r3, [fp, #-12]
3000771c:	e7823101 	str	r3, [r2, r1, lsl #2]
30007720:	e3a0144a 	mov	r1, #1241513984	; 0x4a000000
30007724:	e2811008 	add	r1, r1, #8	; 0x8
30007728:	e3a0344a 	mov	r3, #1241513984	; 0x4a000000
3000772c:	e2833008 	add	r3, r3, #8	; 0x8
30007730:	e5930000 	ldr	r0, [r3]
30007734:	e51b2008 	ldr	r2, [fp, #-8]
30007738:	e3a03001 	mov	r3, #1	; 0x1
3000773c:	e1a03213 	lsl	r3, r3, r2
30007740:	e1e03003 	mvn	r3, r3
30007744:	e0003003 	and	r3, r0, r3
30007748:	e5813000 	str	r3, [r1]
3000774c:	e51b0008 	ldr	r0, [fp, #-8]
30007750:	ebffff82 	bl	30007560 <subint_mask>
30007754:	e3a02000 	mov	r2, #0	; 0x0
30007758:	e50b2010 	str	r2, [fp, #-16]
3000775c:	e51b3010 	ldr	r3, [fp, #-16]
30007760:	e1a00003 	mov	r0, r3
30007764:	e24bd004 	sub	sp, fp, #4	; 0x4
30007768:	e8bd4800 	pop	{fp, lr}
3000776c:	e12fff1e 	bx	lr
30007770:	cfff892c 	.word	0xcfff892c
30007774:	3000c594 	.word	0x3000c594
30007778:	3000d8e8 	.word	0x3000d8e8

3000777c <register_extern_int>:
3000777c:	e92d4800 	push	{fp, lr}
30007780:	e28db004 	add	fp, sp, #4	; 0x4
30007784:	e24dd010 	sub	sp, sp, #16	; 0x10
30007788:	e59f20f4 	ldr	r2, [pc, #244]	; 30007884 <register_extern_int+0x108>
3000778c:	e50b2014 	str	r2, [fp, #-20]
30007790:	e51b3014 	ldr	r3, [fp, #-20]
30007794:	e08f3003 	add	r3, pc, r3
30007798:	e50b3014 	str	r3, [fp, #-20]
3000779c:	e50b0008 	str	r0, [fp, #-8]
300077a0:	e50b100c 	str	r1, [fp, #-12]
300077a4:	e51b3008 	ldr	r3, [fp, #-8]
300077a8:	e3530017 	cmp	r3, #23	; 0x17
300077ac:	8a000002 	bhi	300077bc <register_extern_int+0x40>
300077b0:	e51b3008 	ldr	r3, [fp, #-8]
300077b4:	e3530003 	cmp	r3, #3	; 0x3
300077b8:	8a000007 	bhi	300077dc <register_extern_int+0x60>
300077bc:	e59f30c4 	ldr	r3, [pc, #196]	; 30007888 <register_extern_int+0x10c>
300077c0:	e51b0014 	ldr	r0, [fp, #-20]
300077c4:	e0803003 	add	r3, r0, r3
300077c8:	e1a00003 	mov	r0, r3
300077cc:	ebffe5b5 	bl	30000ea8 <puts>
300077d0:	e3e02000 	mvn	r2, #0	; 0x0
300077d4:	e50b2010 	str	r2, [fp, #-16]
300077d8:	ea000024 	b	30007870 <register_extern_int+0xf4>
300077dc:	e51b1008 	ldr	r1, [fp, #-8]
300077e0:	e59f30a4 	ldr	r3, [pc, #164]	; 3000788c <register_extern_int+0x110>
300077e4:	e51b0014 	ldr	r0, [fp, #-20]
300077e8:	e0802003 	add	r2, r0, r3
300077ec:	e51b300c 	ldr	r3, [fp, #-12]
300077f0:	e7823101 	str	r3, [r2, r1, lsl #2]
300077f4:	e3a01456 	mov	r1, #1442840576	; 0x56000000
300077f8:	e28110a4 	add	r1, r1, #164	; 0xa4
300077fc:	e3a03456 	mov	r3, #1442840576	; 0x56000000
30007800:	e28330a4 	add	r3, r3, #164	; 0xa4
30007804:	e5930000 	ldr	r0, [r3]
30007808:	e51b2008 	ldr	r2, [fp, #-8]
3000780c:	e3a03001 	mov	r3, #1	; 0x1
30007810:	e1a03213 	lsl	r3, r3, r2
30007814:	e1e03003 	mvn	r3, r3
30007818:	e0003003 	and	r3, r0, r3
3000781c:	e5813000 	str	r3, [r1]
30007820:	e51b3008 	ldr	r3, [fp, #-8]
30007824:	e3530007 	cmp	r3, #7	; 0x7
30007828:	8a000007 	bhi	3000784c <register_extern_int+0xd0>
3000782c:	e3a0244a 	mov	r2, #1241513984	; 0x4a000000
30007830:	e2822008 	add	r2, r2, #8	; 0x8
30007834:	e3a0344a 	mov	r3, #1241513984	; 0x4a000000
30007838:	e2833008 	add	r3, r3, #8	; 0x8
3000783c:	e5933000 	ldr	r3, [r3]
30007840:	e3c33010 	bic	r3, r3, #16	; 0x10
30007844:	e5823000 	str	r3, [r2]
30007848:	ea000006 	b	30007868 <register_extern_int+0xec>
3000784c:	e3a0244a 	mov	r2, #1241513984	; 0x4a000000
30007850:	e2822008 	add	r2, r2, #8	; 0x8
30007854:	e3a0344a 	mov	r3, #1241513984	; 0x4a000000
30007858:	e2833008 	add	r3, r3, #8	; 0x8
3000785c:	e5933000 	ldr	r3, [r3]
30007860:	e3c33020 	bic	r3, r3, #32	; 0x20
30007864:	e5823000 	str	r3, [r2]
30007868:	e3a02000 	mov	r2, #0	; 0x0
3000786c:	e50b2010 	str	r2, [fp, #-16]
30007870:	e51b3010 	ldr	r3, [fp, #-16]
30007874:	e1a00003 	mov	r0, r3
30007878:	e24bd004 	sub	sp, fp, #4	; 0x4
3000787c:	e8bd4800 	pop	{fp, lr}
30007880:	e12fff1e 	bx	lr
30007884:	cfff8864 	.word	0xcfff8864
30007888:	3000c594 	.word	0x3000c594
3000788c:	3000d968 	.word	0x3000d968

30007890 <C_IRQ_Handler>:
30007890:	e92d4800 	push	{fp, lr}
30007894:	e28db004 	add	fp, sp, #4	; 0x4
30007898:	e24dd010 	sub	sp, sp, #16	; 0x10
3000789c:	e59f2090 	ldr	r2, [pc, #144]	; 30007934 <C_IRQ_Handler+0xa4>
300078a0:	e08f2002 	add	r2, pc, r2
300078a4:	e50b0010 	str	r0, [fp, #-16]
300078a8:	e50b1014 	str	r1, [fp, #-20]
300078ac:	e3a0344a 	mov	r3, #1241513984	; 0x4a000000
300078b0:	e2833014 	add	r3, r3, #20	; 0x14
300078b4:	e5933000 	ldr	r3, [r3]
300078b8:	e50b3008 	str	r3, [fp, #-8]
300078bc:	e51b1008 	ldr	r1, [fp, #-8]
300078c0:	e59f3070 	ldr	r3, [pc, #112]	; 30007938 <C_IRQ_Handler+0xa8>
300078c4:	e0823003 	add	r3, r2, r3
300078c8:	e7933101 	ldr	r3, [r3, r1, lsl #2]
300078cc:	e51b0008 	ldr	r0, [fp, #-8]
300078d0:	e1a0e00f 	mov	lr, pc
300078d4:	e12fff13 	bx	r3
300078d8:	e3a0244a 	mov	r2, #1241513984	; 0x4a000000
300078dc:	e2822018 	add	r2, r2, #24	; 0x18
300078e0:	e3a0344a 	mov	r3, #1241513984	; 0x4a000000
300078e4:	e2833018 	add	r3, r3, #24	; 0x18
300078e8:	e5933000 	ldr	r3, [r3]
300078ec:	e5823000 	str	r3, [r2]
300078f0:	e3a0044a 	mov	r0, #1241513984	; 0x4a000000
300078f4:	e3a0344a 	mov	r3, #1241513984	; 0x4a000000
300078f8:	e5931000 	ldr	r1, [r3]
300078fc:	e51b2008 	ldr	r2, [fp, #-8]
30007900:	e3a03001 	mov	r3, #1	; 0x1
30007904:	e1a03213 	lsl	r3, r3, r2
30007908:	e1813003 	orr	r3, r1, r3
3000790c:	e5803000 	str	r3, [r0]
30007910:	e3a0244a 	mov	r2, #1241513984	; 0x4a000000
30007914:	e2822010 	add	r2, r2, #16	; 0x10
30007918:	e3a0344a 	mov	r3, #1241513984	; 0x4a000000
3000791c:	e2833010 	add	r3, r3, #16	; 0x10
30007920:	e5933000 	ldr	r3, [r3]
30007924:	e5823000 	str	r3, [r2]
30007928:	e24bd004 	sub	sp, fp, #4	; 0x4
3000792c:	e8bd4800 	pop	{fp, lr}
30007930:	e12fff1e 	bx	lr
30007934:	cfff8758 	.word	0xcfff8758
30007938:	3000d8e8 	.word	0x3000d8e8

3000793c <mac_send_pack>:
3000793c:	e92d4830 	push	{r4, r5, fp, lr}
30007940:	e28db00c 	add	fp, sp, #12	; 0xc
30007944:	e24dd048 	sub	sp, sp, #72	; 0x48
30007948:	e59f4234 	ldr	r4, [pc, #564]	; 30007b84 <mac_send_pack+0x248>
3000794c:	e08f4004 	add	r4, pc, r4
30007950:	e50b0038 	str	r0, [fp, #-56]
30007954:	e50b103c 	str	r1, [fp, #-60]
30007958:	e50b2040 	str	r2, [fp, #-64]
3000795c:	e1a0300d 	mov	r3, sp
30007960:	e1a05003 	mov	r5, r3
30007964:	e59f321c 	ldr	r3, [pc, #540]	; 30007b88 <mac_send_pack+0x24c>
30007968:	e0843003 	add	r3, r4, r3
3000796c:	e24b2028 	sub	r2, fp, #40	; 0x28
30007970:	e3a0c006 	mov	ip, #6	; 0x6
30007974:	e1a00002 	mov	r0, r2
30007978:	e1a01003 	mov	r1, r3
3000797c:	e1a0200c 	mov	r2, ip
30007980:	ebffe856 	bl	30001ae0 <memcpy>
30007984:	e59f3200 	ldr	r3, [pc, #512]	; 30007b8c <mac_send_pack+0x250>
30007988:	e0843003 	add	r3, r4, r3
3000798c:	e24b202e 	sub	r2, fp, #46	; 0x2e
30007990:	e3a0c006 	mov	ip, #6	; 0x6
30007994:	e1a00002 	mov	r0, r2
30007998:	e1a01003 	mov	r1, r3
3000799c:	e1a0200c 	mov	r2, ip
300079a0:	ebffe84e 	bl	30001ae0 <memcpy>
300079a4:	e51b303c 	ldr	r3, [fp, #-60]
300079a8:	e283000e 	add	r0, r3, #14	; 0xe
300079ac:	e1a01000 	mov	r1, r0
300079b0:	e3a02000 	mov	r2, #0	; 0x0
300079b4:	e3e03000 	mvn	r3, #0	; 0x0
300079b8:	e3a0400f 	mov	r4, #15	; 0xf
300079bc:	e0011003 	and	r1, r1, r3
300079c0:	e0022004 	and	r2, r2, r4
300079c4:	e1a03ea1 	lsr	r3, r1, #29
300079c8:	e1a04182 	lsl	r4, r2, #3
300079cc:	e50b4050 	str	r4, [fp, #-80]
300079d0:	e51bc050 	ldr	ip, [fp, #-80]
300079d4:	e183c00c 	orr	ip, r3, ip
300079d8:	e50bc050 	str	ip, [fp, #-80]
300079dc:	e1a03181 	lsl	r3, r1, #3
300079e0:	e50b3054 	str	r3, [fp, #-84]
300079e4:	e24b2054 	sub	r2, fp, #84	; 0x54
300079e8:	e8920006 	ldm	r2, {r1, r2}
300079ec:	e50b1054 	str	r1, [fp, #-84]
300079f0:	e50b2050 	str	r2, [fp, #-80]
300079f4:	e3e03000 	mvn	r3, #0	; 0x0
300079f8:	e3a0400f 	mov	r4, #15	; 0xf
300079fc:	e24b2054 	sub	r2, fp, #84	; 0x54
30007a00:	e8920006 	ldm	r2, {r1, r2}
30007a04:	e0011003 	and	r1, r1, r3
30007a08:	e0022004 	and	r2, r2, r4
30007a0c:	e1a01000 	mov	r1, r0
30007a10:	e3a02000 	mov	r2, #0	; 0x0
30007a14:	e3e03000 	mvn	r3, #0	; 0x0
30007a18:	e3a0400f 	mov	r4, #15	; 0xf
30007a1c:	e0011003 	and	r1, r1, r3
30007a20:	e0022004 	and	r2, r2, r4
30007a24:	e1a03ea1 	lsr	r3, r1, #29
30007a28:	e1a04182 	lsl	r4, r2, #3
30007a2c:	e50b4048 	str	r4, [fp, #-72]
30007a30:	e51bc048 	ldr	ip, [fp, #-72]
30007a34:	e183c00c 	orr	ip, r3, ip
30007a38:	e50bc048 	str	ip, [fp, #-72]
30007a3c:	e1a03181 	lsl	r3, r1, #3
30007a40:	e50b304c 	str	r3, [fp, #-76]
30007a44:	e24b204c 	sub	r2, fp, #76	; 0x4c
30007a48:	e8920006 	ldm	r2, {r1, r2}
30007a4c:	e50b104c 	str	r1, [fp, #-76]
30007a50:	e50b2048 	str	r2, [fp, #-72]
30007a54:	e3e03000 	mvn	r3, #0	; 0x0
30007a58:	e3a0400f 	mov	r4, #15	; 0xf
30007a5c:	e24b204c 	sub	r2, fp, #76	; 0x4c
30007a60:	e8920006 	ldm	r2, {r1, r2}
30007a64:	e0011003 	and	r1, r1, r3
30007a68:	e0022004 	and	r2, r2, r4
30007a6c:	e1a03000 	mov	r3, r0
30007a70:	e2833007 	add	r3, r3, #7	; 0x7
30007a74:	e2833007 	add	r3, r3, #7	; 0x7
30007a78:	e1a031a3 	lsr	r3, r3, #3
30007a7c:	e1a03183 	lsl	r3, r3, #3
30007a80:	e04dd003 	sub	sp, sp, r3
30007a84:	e50bd044 	str	sp, [fp, #-68]
30007a88:	e51b2044 	ldr	r2, [fp, #-68]
30007a8c:	e2823007 	add	r3, r2, #7	; 0x7
30007a90:	e1a031a3 	lsr	r3, r3, #3
30007a94:	e1a03183 	lsl	r3, r3, #3
30007a98:	e50b3044 	str	r3, [fp, #-68]
30007a9c:	e51b3044 	ldr	r3, [fp, #-68]
30007aa0:	e50b3014 	str	r3, [fp, #-20]
30007aa4:	e24b3022 	sub	r3, fp, #34	; 0x22
30007aa8:	e50b3010 	str	r3, [fp, #-16]
30007aac:	e51b3010 	ldr	r3, [fp, #-16]
30007ab0:	e24b202e 	sub	r2, fp, #46	; 0x2e
30007ab4:	e1a00003 	mov	r0, r3
30007ab8:	e1a01002 	mov	r1, r2
30007abc:	e3a02006 	mov	r2, #6	; 0x6
30007ac0:	ebffe806 	bl	30001ae0 <memcpy>
30007ac4:	e51b3010 	ldr	r3, [fp, #-16]
30007ac8:	e2833006 	add	r3, r3, #6	; 0x6
30007acc:	e24b2028 	sub	r2, fp, #40	; 0x28
30007ad0:	e1a00003 	mov	r0, r3
30007ad4:	e1a01002 	mov	r1, r2
30007ad8:	e3a02006 	mov	r2, #6	; 0x6
30007adc:	ebffe7ff 	bl	30001ae0 <memcpy>
30007ae0:	e51b3040 	ldr	r3, [fp, #-64]
30007ae4:	e1a03803 	lsl	r3, r3, #16
30007ae8:	e1a03823 	lsr	r3, r3, #16
30007aec:	e1a03403 	lsl	r3, r3, #8
30007af0:	e1a03803 	lsl	r3, r3, #16
30007af4:	e1a02823 	lsr	r2, r3, #16
30007af8:	e51b3040 	ldr	r3, [fp, #-64]
30007afc:	e1a03803 	lsl	r3, r3, #16
30007b00:	e1a03823 	lsr	r3, r3, #16
30007b04:	e1a03423 	lsr	r3, r3, #8
30007b08:	e1a03803 	lsl	r3, r3, #16
30007b0c:	e1a03823 	lsr	r3, r3, #16
30007b10:	e1823003 	orr	r3, r2, r3
30007b14:	e1a03803 	lsl	r3, r3, #16
30007b18:	e1a03823 	lsr	r3, r3, #16
30007b1c:	e1a03803 	lsl	r3, r3, #16
30007b20:	e1a02823 	lsr	r2, r3, #16
30007b24:	e51b3010 	ldr	r3, [fp, #-16]
30007b28:	e1c320bc 	strh	r2, [r3, #12]
30007b2c:	e51b3014 	ldr	r3, [fp, #-20]
30007b30:	e283300e 	add	r3, r3, #14	; 0xe
30007b34:	e1a00003 	mov	r0, r3
30007b38:	e51b1038 	ldr	r1, [fp, #-56]
30007b3c:	e51b203c 	ldr	r2, [fp, #-60]
30007b40:	ebffe7e6 	bl	30001ae0 <memcpy>
30007b44:	e51b3014 	ldr	r3, [fp, #-20]
30007b48:	e24b2022 	sub	r2, fp, #34	; 0x22
30007b4c:	e1a00003 	mov	r0, r3
30007b50:	e1a01002 	mov	r1, r2
30007b54:	e3a0200e 	mov	r2, #14	; 0xe
30007b58:	ebffe7e0 	bl	30001ae0 <memcpy>
30007b5c:	e51b2014 	ldr	r2, [fp, #-20]
30007b60:	e51b303c 	ldr	r3, [fp, #-60]
30007b64:	e283300e 	add	r3, r3, #14	; 0xe
30007b68:	e1a00002 	mov	r0, r2
30007b6c:	e1a01003 	mov	r1, r3
30007b70:	eb000738 	bl	30009858 <DM9000_sendPacket>
30007b74:	e1a0d005 	mov	sp, r5
30007b78:	e24bd00c 	sub	sp, fp, #12	; 0xc
30007b7c:	e8bd4830 	pop	{r4, r5, fp, lr}
30007b80:	e12fff1e 	bx	lr
30007b84:	cfff86ac 	.word	0xcfff86ac
30007b88:	3000c5ba 	.word	0x3000c5ba
30007b8c:	3000c5b4 	.word	0x3000c5b4

30007b90 <ipchecksum>:
30007b90:	e52db004 	push	{fp}		; (str fp, [sp, #-4]!)
30007b94:	e28db000 	add	fp, sp, #0	; 0x0
30007b98:	e24dd014 	sub	sp, sp, #20	; 0x14
30007b9c:	e50b0010 	str	r0, [fp, #-16]
30007ba0:	e3a03000 	mov	r3, #0	; 0x0
30007ba4:	e50b300c 	str	r3, [fp, #-12]
30007ba8:	e3a03000 	mov	r3, #0	; 0x0
30007bac:	e54b3005 	strb	r3, [fp, #-5]
30007bb0:	e3a03000 	mov	r3, #0	; 0x0
30007bb4:	e54b3005 	strb	r3, [fp, #-5]
30007bb8:	ea00000a 	b	30007be8 <ipchecksum+0x58>
30007bbc:	e55b2005 	ldrb	r2, [fp, #-5]
30007bc0:	e51b3010 	ldr	r3, [fp, #-16]
30007bc4:	e0833002 	add	r3, r3, r2
30007bc8:	e5d33000 	ldrb	r3, [r3]
30007bcc:	e1a02003 	mov	r2, r3
30007bd0:	e51b300c 	ldr	r3, [fp, #-12]
30007bd4:	e0833002 	add	r3, r3, r2
30007bd8:	e50b300c 	str	r3, [fp, #-12]
30007bdc:	e55b3005 	ldrb	r3, [fp, #-5]
30007be0:	e2833002 	add	r3, r3, #2	; 0x2
30007be4:	e54b3005 	strb	r3, [fp, #-5]
30007be8:	e55b3005 	ldrb	r3, [fp, #-5]
30007bec:	e3530014 	cmp	r3, #20	; 0x14
30007bf0:	1afffff1 	bne	30007bbc <ipchecksum+0x2c>
30007bf4:	e51b300c 	ldr	r3, [fp, #-12]
30007bf8:	e1a03403 	lsl	r3, r3, #8
30007bfc:	e50b300c 	str	r3, [fp, #-12]
30007c00:	e3a03001 	mov	r3, #1	; 0x1
30007c04:	e54b3005 	strb	r3, [fp, #-5]
30007c08:	ea00000a 	b	30007c38 <ipchecksum+0xa8>
30007c0c:	e55b2005 	ldrb	r2, [fp, #-5]
30007c10:	e51b3010 	ldr	r3, [fp, #-16]
30007c14:	e0833002 	add	r3, r3, r2
30007c18:	e5d33000 	ldrb	r3, [r3]
30007c1c:	e1a02003 	mov	r2, r3
30007c20:	e51b300c 	ldr	r3, [fp, #-12]
30007c24:	e0833002 	add	r3, r3, r2
30007c28:	e50b300c 	str	r3, [fp, #-12]
30007c2c:	e55b3005 	ldrb	r3, [fp, #-5]
30007c30:	e2833002 	add	r3, r3, #2	; 0x2
30007c34:	e54b3005 	strb	r3, [fp, #-5]
30007c38:	e55b3005 	ldrb	r3, [fp, #-5]
30007c3c:	e3530015 	cmp	r3, #21	; 0x15
30007c40:	1afffff1 	bne	30007c0c <ipchecksum+0x7c>
30007c44:	e51b300c 	ldr	r3, [fp, #-12]
30007c48:	e1a03803 	lsl	r3, r3, #16
30007c4c:	e1a03823 	lsr	r3, r3, #16
30007c50:	e51b200c 	ldr	r2, [fp, #-12]
30007c54:	e1a02822 	lsr	r2, r2, #16
30007c58:	e0833002 	add	r3, r3, r2
30007c5c:	e50b300c 	str	r3, [fp, #-12]
30007c60:	e51b300c 	ldr	r3, [fp, #-12]
30007c64:	e1a03803 	lsl	r3, r3, #16
30007c68:	e1a03823 	lsr	r3, r3, #16
30007c6c:	e1e03003 	mvn	r3, r3
30007c70:	e1a03803 	lsl	r3, r3, #16
30007c74:	e1a03823 	lsr	r3, r3, #16
30007c78:	e1a00003 	mov	r0, r3
30007c7c:	e28bd000 	add	sp, fp, #0	; 0x0
30007c80:	e8bd0800 	pop	{fp}
30007c84:	e12fff1e 	bx	lr

30007c88 <IP_pack>:
30007c88:	e92d4830 	push	{r4, r5, fp, lr}
30007c8c:	e28db00c 	add	fp, sp, #12	; 0xc
30007c90:	e24dd048 	sub	sp, sp, #72	; 0x48
30007c94:	e59f4308 	ldr	r4, [pc, #776]	; 30007fa4 <IP_pack+0x31c>
30007c98:	e08f4004 	add	r4, pc, r4
30007c9c:	e50b0038 	str	r0, [fp, #-56]
30007ca0:	e1a03001 	mov	r3, r1
30007ca4:	e14b33ba 	strh	r3, [fp, #-58]
30007ca8:	e1a03002 	mov	r3, r2
30007cac:	e54b303b 	strb	r3, [fp, #-59]
30007cb0:	e1a0300d 	mov	r3, sp
30007cb4:	e1a05003 	mov	r5, r3
30007cb8:	e59f32e8 	ldr	r3, [pc, #744]	; 30007fa8 <IP_pack+0x320>
30007cbc:	e0843003 	add	r3, r4, r3
30007cc0:	e24b2018 	sub	r2, fp, #24	; 0x18
30007cc4:	e3a0c004 	mov	ip, #4	; 0x4
30007cc8:	e1a00002 	mov	r0, r2
30007ccc:	e1a01003 	mov	r1, r3
30007cd0:	e1a0200c 	mov	r2, ip
30007cd4:	ebffe781 	bl	30001ae0 <memcpy>
30007cd8:	e59f32cc 	ldr	r3, [pc, #716]	; 30007fac <IP_pack+0x324>
30007cdc:	e0843003 	add	r3, r4, r3
30007ce0:	e24b201c 	sub	r2, fp, #28	; 0x1c
30007ce4:	e3a0c004 	mov	ip, #4	; 0x4
30007ce8:	e1a00002 	mov	r0, r2
30007cec:	e1a01003 	mov	r1, r3
30007cf0:	e1a0200c 	mov	r2, ip
30007cf4:	ebffe779 	bl	30001ae0 <memcpy>
30007cf8:	e15b33ba 	ldrh	r3, [fp, #-58]
30007cfc:	e2830014 	add	r0, r3, #20	; 0x14
30007d00:	e1a03000 	mov	r3, r0
30007d04:	e1a01003 	mov	r1, r3
30007d08:	e3a02000 	mov	r2, #0	; 0x0
30007d0c:	e3e03000 	mvn	r3, #0	; 0x0
30007d10:	e3a0400f 	mov	r4, #15	; 0xf
30007d14:	e0011003 	and	r1, r1, r3
30007d18:	e0022004 	and	r2, r2, r4
30007d1c:	e1a03ea1 	lsr	r3, r1, #29
30007d20:	e1a04182 	lsl	r4, r2, #3
30007d24:	e50b4050 	str	r4, [fp, #-80]
30007d28:	e51bc050 	ldr	ip, [fp, #-80]
30007d2c:	e183c00c 	orr	ip, r3, ip
30007d30:	e50bc050 	str	ip, [fp, #-80]
30007d34:	e1a03181 	lsl	r3, r1, #3
30007d38:	e50b3054 	str	r3, [fp, #-84]
30007d3c:	e24b2054 	sub	r2, fp, #84	; 0x54
30007d40:	e8920006 	ldm	r2, {r1, r2}
30007d44:	e50b1054 	str	r1, [fp, #-84]
30007d48:	e50b2050 	str	r2, [fp, #-80]
30007d4c:	e3e03000 	mvn	r3, #0	; 0x0
30007d50:	e3a0400f 	mov	r4, #15	; 0xf
30007d54:	e24b2054 	sub	r2, fp, #84	; 0x54
30007d58:	e8920006 	ldm	r2, {r1, r2}
30007d5c:	e0011003 	and	r1, r1, r3
30007d60:	e0022004 	and	r2, r2, r4
30007d64:	e1a03000 	mov	r3, r0
30007d68:	e1a01003 	mov	r1, r3
30007d6c:	e3a02000 	mov	r2, #0	; 0x0
30007d70:	e3e03000 	mvn	r3, #0	; 0x0
30007d74:	e3a0400f 	mov	r4, #15	; 0xf
30007d78:	e0011003 	and	r1, r1, r3
30007d7c:	e0022004 	and	r2, r2, r4
30007d80:	e1a03ea1 	lsr	r3, r1, #29
30007d84:	e1a04182 	lsl	r4, r2, #3
30007d88:	e50b4048 	str	r4, [fp, #-72]
30007d8c:	e51bc048 	ldr	ip, [fp, #-72]
30007d90:	e183c00c 	orr	ip, r3, ip
30007d94:	e50bc048 	str	ip, [fp, #-72]
30007d98:	e1a03181 	lsl	r3, r1, #3
30007d9c:	e50b304c 	str	r3, [fp, #-76]
30007da0:	e24b204c 	sub	r2, fp, #76	; 0x4c
30007da4:	e8920006 	ldm	r2, {r1, r2}
30007da8:	e50b104c 	str	r1, [fp, #-76]
30007dac:	e50b2048 	str	r2, [fp, #-72]
30007db0:	e3e03000 	mvn	r3, #0	; 0x0
30007db4:	e3a0400f 	mov	r4, #15	; 0xf
30007db8:	e24b204c 	sub	r2, fp, #76	; 0x4c
30007dbc:	e8920006 	ldm	r2, {r1, r2}
30007dc0:	e0011003 	and	r1, r1, r3
30007dc4:	e0022004 	and	r2, r2, r4
30007dc8:	e1a03000 	mov	r3, r0
30007dcc:	e2833007 	add	r3, r3, #7	; 0x7
30007dd0:	e2833007 	add	r3, r3, #7	; 0x7
30007dd4:	e1a031a3 	lsr	r3, r3, #3
30007dd8:	e1a03183 	lsl	r3, r3, #3
30007ddc:	e04dd003 	sub	sp, sp, r3
30007de0:	e50bd040 	str	sp, [fp, #-64]
30007de4:	e51b2040 	ldr	r2, [fp, #-64]
30007de8:	e2823007 	add	r3, r2, #7	; 0x7
30007dec:	e1a031a3 	lsr	r3, r3, #3
30007df0:	e1a03183 	lsl	r3, r3, #3
30007df4:	e50b3040 	str	r3, [fp, #-64]
30007df8:	e51b3040 	ldr	r3, [fp, #-64]
30007dfc:	e50b3014 	str	r3, [fp, #-20]
30007e00:	e24b3030 	sub	r3, fp, #48	; 0x30
30007e04:	e50b3010 	str	r3, [fp, #-16]
30007e08:	e51b2010 	ldr	r2, [fp, #-16]
30007e0c:	e3a03045 	mov	r3, #69	; 0x45
30007e10:	e5c23000 	strb	r3, [r2]
30007e14:	e51b2010 	ldr	r2, [fp, #-16]
30007e18:	e3a03000 	mov	r3, #0	; 0x0
30007e1c:	e5c23001 	strb	r3, [r2, #1]
30007e20:	e15b33ba 	ldrh	r3, [fp, #-58]
30007e24:	e2833014 	add	r3, r3, #20	; 0x14
30007e28:	e1a03803 	lsl	r3, r3, #16
30007e2c:	e1a03823 	lsr	r3, r3, #16
30007e30:	e1a03403 	lsl	r3, r3, #8
30007e34:	e1a03803 	lsl	r3, r3, #16
30007e38:	e1a02823 	lsr	r2, r3, #16
30007e3c:	e15b33ba 	ldrh	r3, [fp, #-58]
30007e40:	e2833014 	add	r3, r3, #20	; 0x14
30007e44:	e1a03803 	lsl	r3, r3, #16
30007e48:	e1a03823 	lsr	r3, r3, #16
30007e4c:	e1a03423 	lsr	r3, r3, #8
30007e50:	e1a03803 	lsl	r3, r3, #16
30007e54:	e1a03823 	lsr	r3, r3, #16
30007e58:	e1823003 	orr	r3, r2, r3
30007e5c:	e1a03803 	lsl	r3, r3, #16
30007e60:	e1a03823 	lsr	r3, r3, #16
30007e64:	e1a03803 	lsl	r3, r3, #16
30007e68:	e1a02823 	lsr	r2, r3, #16
30007e6c:	e51b3010 	ldr	r3, [fp, #-16]
30007e70:	e1c320b2 	strh	r2, [r3, #2]
30007e74:	e51b2010 	ldr	r2, [fp, #-16]
30007e78:	e3a03000 	mov	r3, #0	; 0x0
30007e7c:	e1c230b4 	strh	r3, [r2, #4]
30007e80:	e51b2010 	ldr	r2, [fp, #-16]
30007e84:	e3a03000 	mov	r3, #0	; 0x0
30007e88:	e1c230b6 	strh	r3, [r2, #6]
30007e8c:	e51b2010 	ldr	r2, [fp, #-16]
30007e90:	e3e0307f 	mvn	r3, #127	; 0x7f
30007e94:	e5c23008 	strb	r3, [r2, #8]
30007e98:	e51b2010 	ldr	r2, [fp, #-16]
30007e9c:	e55b303b 	ldrb	r3, [fp, #-59]
30007ea0:	e5c23009 	strb	r3, [r2, #9]
30007ea4:	e51b2010 	ldr	r2, [fp, #-16]
30007ea8:	e3a03000 	mov	r3, #0	; 0x0
30007eac:	e1c230ba 	strh	r3, [r2, #10]
30007eb0:	e51b3010 	ldr	r3, [fp, #-16]
30007eb4:	e283300c 	add	r3, r3, #12	; 0xc
30007eb8:	e24b2018 	sub	r2, fp, #24	; 0x18
30007ebc:	e1a00003 	mov	r0, r3
30007ec0:	e1a01002 	mov	r1, r2
30007ec4:	e3a02004 	mov	r2, #4	; 0x4
30007ec8:	ebffe704 	bl	30001ae0 <memcpy>
30007ecc:	e51b3010 	ldr	r3, [fp, #-16]
30007ed0:	e2833010 	add	r3, r3, #16	; 0x10
30007ed4:	e24b201c 	sub	r2, fp, #28	; 0x1c
30007ed8:	e1a00003 	mov	r0, r3
30007edc:	e1a01002 	mov	r1, r2
30007ee0:	e3a02004 	mov	r2, #4	; 0x4
30007ee4:	ebffe6fd 	bl	30001ae0 <memcpy>
30007ee8:	e24b3030 	sub	r3, fp, #48	; 0x30
30007eec:	e1a00003 	mov	r0, r3
30007ef0:	ebffff26 	bl	30007b90 <ipchecksum>
30007ef4:	e1a03000 	mov	r3, r0
30007ef8:	e1a03403 	lsl	r3, r3, #8
30007efc:	e1a03803 	lsl	r3, r3, #16
30007f00:	e1a04823 	lsr	r4, r3, #16
30007f04:	e24b3030 	sub	r3, fp, #48	; 0x30
30007f08:	e1a00003 	mov	r0, r3
30007f0c:	ebffff1f 	bl	30007b90 <ipchecksum>
30007f10:	e1a03000 	mov	r3, r0
30007f14:	e1a03423 	lsr	r3, r3, #8
30007f18:	e1a03803 	lsl	r3, r3, #16
30007f1c:	e1a03823 	lsr	r3, r3, #16
30007f20:	e1a02004 	mov	r2, r4
30007f24:	e1823003 	orr	r3, r2, r3
30007f28:	e1a03803 	lsl	r3, r3, #16
30007f2c:	e1a03823 	lsr	r3, r3, #16
30007f30:	e1a03803 	lsl	r3, r3, #16
30007f34:	e1a02823 	lsr	r2, r3, #16
30007f38:	e51b3010 	ldr	r3, [fp, #-16]
30007f3c:	e1c320ba 	strh	r2, [r3, #10]
30007f40:	e51b3014 	ldr	r3, [fp, #-20]
30007f44:	e2833014 	add	r3, r3, #20	; 0x14
30007f48:	e15b23ba 	ldrh	r2, [fp, #-58]
30007f4c:	e1a00003 	mov	r0, r3
30007f50:	e51b1038 	ldr	r1, [fp, #-56]
30007f54:	ebffe6e1 	bl	30001ae0 <memcpy>
30007f58:	e51b3014 	ldr	r3, [fp, #-20]
30007f5c:	e24b2030 	sub	r2, fp, #48	; 0x30
30007f60:	e1a00003 	mov	r0, r3
30007f64:	e1a01002 	mov	r1, r2
30007f68:	e3a02014 	mov	r2, #20	; 0x14
30007f6c:	ebffe6db 	bl	30001ae0 <memcpy>
30007f70:	e51b2014 	ldr	r2, [fp, #-20]
30007f74:	e15b33ba 	ldrh	r3, [fp, #-58]
30007f78:	e2833014 	add	r3, r3, #20	; 0x14
30007f7c:	e1a00002 	mov	r0, r2
30007f80:	e1a01003 	mov	r1, r3
30007f84:	e3a02001 	mov	r2, #1	; 0x1
30007f88:	ebfffe6b 	bl	3000793c <mac_send_pack>
30007f8c:	e3a03b02 	mov	r3, #2048	; 0x800
30007f90:	e1a0d005 	mov	sp, r5
30007f94:	e1a00003 	mov	r0, r3
30007f98:	e24bd00c 	sub	sp, fp, #12	; 0xc
30007f9c:	e8bd4830 	pop	{r4, r5, fp, lr}
30007fa0:	e12fff1e 	bx	lr
30007fa4:	cfff8360 	.word	0xcfff8360
30007fa8:	3000c5c4 	.word	0x3000c5c4
30007fac:	3000c5c0 	.word	0x3000c5c0

30007fb0 <ARP_pack>:
30007fb0:	e92d4870 	push	{r4, r5, r6, fp, lr}
30007fb4:	e28db010 	add	fp, sp, #16	; 0x10
30007fb8:	e24dd0ac 	sub	sp, sp, #172	; 0xac
30007fbc:	e59f52c0 	ldr	r5, [pc, #704]	; 30008284 <ARP_pack+0x2d4>
30007fc0:	e08f5005 	add	r5, pc, r5
30007fc4:	e50b00a0 	str	r0, [fp, #-160]
30007fc8:	e1a03001 	mov	r3, r1
30007fcc:	e50b20a8 	str	r2, [fp, #-168]
30007fd0:	e14b3ab2 	strh	r3, [fp, #-162]
30007fd4:	e1a0300d 	mov	r3, sp
30007fd8:	e1a06003 	mov	r6, r3
30007fdc:	e15b3ab2 	ldrh	r3, [fp, #-162]
30007fe0:	e283001c 	add	r0, r3, #28	; 0x1c
30007fe4:	e1a03000 	mov	r3, r0
30007fe8:	e1a01003 	mov	r1, r3
30007fec:	e3a02000 	mov	r2, #0	; 0x0
30007ff0:	e3e03000 	mvn	r3, #0	; 0x0
30007ff4:	e3a0400f 	mov	r4, #15	; 0xf
30007ff8:	e0011003 	and	r1, r1, r3
30007ffc:	e0022004 	and	r2, r2, r4
30008000:	e1a03ea1 	lsr	r3, r1, #29
30008004:	e1a04182 	lsl	r4, r2, #3
30008008:	e50b40b8 	str	r4, [fp, #-184]
3000800c:	e51bc0b8 	ldr	ip, [fp, #-184]
30008010:	e183c00c 	orr	ip, r3, ip
30008014:	e50bc0b8 	str	ip, [fp, #-184]
30008018:	e1a03181 	lsl	r3, r1, #3
3000801c:	e50b30bc 	str	r3, [fp, #-188]
30008020:	e24b20bc 	sub	r2, fp, #188	; 0xbc
30008024:	e8920006 	ldm	r2, {r1, r2}
30008028:	e50b10bc 	str	r1, [fp, #-188]
3000802c:	e50b20b8 	str	r2, [fp, #-184]
30008030:	e3e03000 	mvn	r3, #0	; 0x0
30008034:	e3a0400f 	mov	r4, #15	; 0xf
30008038:	e24b20bc 	sub	r2, fp, #188	; 0xbc
3000803c:	e8920006 	ldm	r2, {r1, r2}
30008040:	e0011003 	and	r1, r1, r3
30008044:	e0022004 	and	r2, r2, r4
30008048:	e1a03000 	mov	r3, r0
3000804c:	e1a01003 	mov	r1, r3
30008050:	e3a02000 	mov	r2, #0	; 0x0
30008054:	e3e03000 	mvn	r3, #0	; 0x0
30008058:	e3a0400f 	mov	r4, #15	; 0xf
3000805c:	e0011003 	and	r1, r1, r3
30008060:	e0022004 	and	r2, r2, r4
30008064:	e1a03ea1 	lsr	r3, r1, #29
30008068:	e1a04182 	lsl	r4, r2, #3
3000806c:	e50b40b0 	str	r4, [fp, #-176]
30008070:	e51bc0b0 	ldr	ip, [fp, #-176]
30008074:	e183c00c 	orr	ip, r3, ip
30008078:	e50bc0b0 	str	ip, [fp, #-176]
3000807c:	e1a03181 	lsl	r3, r1, #3
30008080:	e50b30b4 	str	r3, [fp, #-180]
30008084:	e24b20b4 	sub	r2, fp, #180	; 0xb4
30008088:	e8920006 	ldm	r2, {r1, r2}
3000808c:	e50b10b4 	str	r1, [fp, #-180]
30008090:	e50b20b0 	str	r2, [fp, #-176]
30008094:	e3e03000 	mvn	r3, #0	; 0x0
30008098:	e3a0400f 	mov	r4, #15	; 0xf
3000809c:	e24b20b4 	sub	r2, fp, #180	; 0xb4
300080a0:	e8920006 	ldm	r2, {r1, r2}
300080a4:	e0011003 	and	r1, r1, r3
300080a8:	e0022004 	and	r2, r2, r4
300080ac:	e1a03000 	mov	r3, r0
300080b0:	e2833007 	add	r3, r3, #7	; 0x7
300080b4:	e2833007 	add	r3, r3, #7	; 0x7
300080b8:	e1a031a3 	lsr	r3, r3, #3
300080bc:	e1a03183 	lsl	r3, r3, #3
300080c0:	e04dd003 	sub	sp, sp, r3
300080c4:	e50bd0ac 	str	sp, [fp, #-172]
300080c8:	e51b20ac 	ldr	r2, [fp, #-172]
300080cc:	e2823007 	add	r3, r2, #7	; 0x7
300080d0:	e1a031a3 	lsr	r3, r3, #3
300080d4:	e1a03183 	lsl	r3, r3, #3
300080d8:	e50b30ac 	str	r3, [fp, #-172]
300080dc:	e51b30ac 	ldr	r3, [fp, #-172]
300080e0:	e50b301c 	str	r3, [fp, #-28]
300080e4:	e59f319c 	ldr	r3, [pc, #412]	; 30008288 <ARP_pack+0x2d8>
300080e8:	e0853003 	add	r3, r5, r3
300080ec:	e24b2090 	sub	r2, fp, #144	; 0x90
300080f0:	e3a0c004 	mov	ip, #4	; 0x4
300080f4:	e1a00002 	mov	r0, r2
300080f8:	e1a01003 	mov	r1, r3
300080fc:	e1a0200c 	mov	r2, ip
30008100:	ebffe676 	bl	30001ae0 <memcpy>
30008104:	e59f3180 	ldr	r3, [pc, #384]	; 3000828c <ARP_pack+0x2dc>
30008108:	e0853003 	add	r3, r5, r3
3000810c:	e24b2094 	sub	r2, fp, #148	; 0x94
30008110:	e3a0c004 	mov	ip, #4	; 0x4
30008114:	e1a00002 	mov	r0, r2
30008118:	e1a01003 	mov	r1, r3
3000811c:	e1a0200c 	mov	r2, ip
30008120:	ebffe66e 	bl	30001ae0 <memcpy>
30008124:	e59f3164 	ldr	r3, [pc, #356]	; 30008290 <ARP_pack+0x2e0>
30008128:	e0853003 	add	r3, r5, r3
3000812c:	e24b209a 	sub	r2, fp, #154	; 0x9a
30008130:	e3a0c006 	mov	ip, #6	; 0x6
30008134:	e1a00002 	mov	r0, r2
30008138:	e1a01003 	mov	r1, r3
3000813c:	e1a0200c 	mov	r2, ip
30008140:	ebffe666 	bl	30001ae0 <memcpy>
30008144:	e24b308c 	sub	r3, fp, #140	; 0x8c
30008148:	e50b3018 	str	r3, [fp, #-24]
3000814c:	e51b2018 	ldr	r2, [fp, #-24]
30008150:	e3a03c01 	mov	r3, #256	; 0x100
30008154:	e1c230be 	strh	r3, [r2, #14]
30008158:	e51b2018 	ldr	r2, [fp, #-24]
3000815c:	e3a03008 	mov	r3, #8	; 0x8
30008160:	e1c231b0 	strh	r3, [r2, #16]
30008164:	e51b2018 	ldr	r2, [fp, #-24]
30008168:	e3a03006 	mov	r3, #6	; 0x6
3000816c:	e5c23012 	strb	r3, [r2, #18]
30008170:	e51b2018 	ldr	r2, [fp, #-24]
30008174:	e3a03004 	mov	r3, #4	; 0x4
30008178:	e5c23013 	strb	r3, [r2, #19]
3000817c:	e51b30a8 	ldr	r3, [fp, #-168]
30008180:	e1a03803 	lsl	r3, r3, #16
30008184:	e1a03823 	lsr	r3, r3, #16
30008188:	e1a03403 	lsl	r3, r3, #8
3000818c:	e1a03803 	lsl	r3, r3, #16
30008190:	e1a02823 	lsr	r2, r3, #16
30008194:	e51b30a8 	ldr	r3, [fp, #-168]
30008198:	e1a03803 	lsl	r3, r3, #16
3000819c:	e1a03823 	lsr	r3, r3, #16
300081a0:	e1a03423 	lsr	r3, r3, #8
300081a4:	e1a03803 	lsl	r3, r3, #16
300081a8:	e1a03823 	lsr	r3, r3, #16
300081ac:	e1823003 	orr	r3, r2, r3
300081b0:	e1a03803 	lsl	r3, r3, #16
300081b4:	e1a03823 	lsr	r3, r3, #16
300081b8:	e1a03803 	lsl	r3, r3, #16
300081bc:	e1a02823 	lsr	r2, r3, #16
300081c0:	e51b3018 	ldr	r3, [fp, #-24]
300081c4:	e1c321b4 	strh	r2, [r3, #20]
300081c8:	e51b3018 	ldr	r3, [fp, #-24]
300081cc:	e2833016 	add	r3, r3, #22	; 0x16
300081d0:	e24b209a 	sub	r2, fp, #154	; 0x9a
300081d4:	e1a00003 	mov	r0, r3
300081d8:	e1a01002 	mov	r1, r2
300081dc:	e3a02006 	mov	r2, #6	; 0x6
300081e0:	ebffe63e 	bl	30001ae0 <memcpy>
300081e4:	e51b3018 	ldr	r3, [fp, #-24]
300081e8:	e283301c 	add	r3, r3, #28	; 0x1c
300081ec:	e24b2090 	sub	r2, fp, #144	; 0x90
300081f0:	e1a00003 	mov	r0, r3
300081f4:	e1a01002 	mov	r1, r2
300081f8:	e3a02004 	mov	r2, #4	; 0x4
300081fc:	ebffe637 	bl	30001ae0 <memcpy>
30008200:	e51b3018 	ldr	r3, [fp, #-24]
30008204:	e2833026 	add	r3, r3, #38	; 0x26
30008208:	e24b2094 	sub	r2, fp, #148	; 0x94
3000820c:	e1a00003 	mov	r0, r3
30008210:	e1a01002 	mov	r1, r2
30008214:	e3a02004 	mov	r2, #4	; 0x4
30008218:	ebffe630 	bl	30001ae0 <memcpy>
3000821c:	e51b301c 	ldr	r3, [fp, #-28]
30008220:	e283301c 	add	r3, r3, #28	; 0x1c
30008224:	e15b2ab2 	ldrh	r2, [fp, #-162]
30008228:	e1a00003 	mov	r0, r3
3000822c:	e51b10a0 	ldr	r1, [fp, #-160]
30008230:	ebffe62a 	bl	30001ae0 <memcpy>
30008234:	e51b301c 	ldr	r3, [fp, #-28]
30008238:	e24b208c 	sub	r2, fp, #140	; 0x8c
3000823c:	e1a00003 	mov	r0, r3
30008240:	e1a01002 	mov	r1, r2
30008244:	e3a0201c 	mov	r2, #28	; 0x1c
30008248:	ebffe624 	bl	30001ae0 <memcpy>
3000824c:	e51b201c 	ldr	r2, [fp, #-28]
30008250:	e15b3ab2 	ldrh	r3, [fp, #-162]
30008254:	e283301c 	add	r3, r3, #28	; 0x1c
30008258:	e1a00002 	mov	r0, r2
3000825c:	e1a01003 	mov	r1, r3
30008260:	e3a02000 	mov	r2, #0	; 0x0
30008264:	ebfffdb4 	bl	3000793c <mac_send_pack>
30008268:	e3a03b02 	mov	r3, #2048	; 0x800
3000826c:	e2833006 	add	r3, r3, #6	; 0x6
30008270:	e1a0d006 	mov	sp, r6
30008274:	e1a00003 	mov	r0, r3
30008278:	e24bd010 	sub	sp, fp, #16	; 0x10
3000827c:	e8bd4870 	pop	{r4, r5, r6, fp, lr}
30008280:	e12fff1e 	bx	lr
30008284:	cfff8038 	.word	0xcfff8038
30008288:	3000c5d2 	.word	0x3000c5d2
3000828c:	3000c5ce 	.word	0x3000c5ce
30008290:	3000c5c8 	.word	0x3000c5c8

30008294 <udpchecksum>:
30008294:	e52db004 	push	{fp}		; (str fp, [sp, #-4]!)
30008298:	e28db000 	add	fp, sp, #0	; 0x0
3000829c:	e24dd024 	sub	sp, sp, #36	; 0x24
300082a0:	e50b0018 	str	r0, [fp, #-24]
300082a4:	e50b101c 	str	r1, [fp, #-28]
300082a8:	e1a03002 	mov	r3, r2
300082ac:	e14b31be 	strh	r3, [fp, #-30]
300082b0:	e3a03000 	mov	r3, #0	; 0x0
300082b4:	e50b3014 	str	r3, [fp, #-20]
300082b8:	e3a03000 	mov	r3, #0	; 0x0
300082bc:	e50b3010 	str	r3, [fp, #-16]
300082c0:	e3a03000 	mov	r3, #0	; 0x0
300082c4:	e50b300c 	str	r3, [fp, #-12]
300082c8:	e3a03000 	mov	r3, #0	; 0x0
300082cc:	e14b30b6 	strh	r3, [fp, #-6]
300082d0:	e3a03001 	mov	r3, #1	; 0x1
300082d4:	e14b30b6 	strh	r3, [fp, #-6]
300082d8:	ea00000a 	b	30008308 <udpchecksum+0x74>
300082dc:	e15b20b6 	ldrh	r2, [fp, #-6]
300082e0:	e51b301c 	ldr	r3, [fp, #-28]
300082e4:	e0833002 	add	r3, r3, r2
300082e8:	e5d33000 	ldrb	r3, [r3]
300082ec:	e1a02003 	mov	r2, r3
300082f0:	e51b3010 	ldr	r3, [fp, #-16]
300082f4:	e0833002 	add	r3, r3, r2
300082f8:	e50b3010 	str	r3, [fp, #-16]
300082fc:	e15b30b6 	ldrh	r3, [fp, #-6]
30008300:	e2833002 	add	r3, r3, #2	; 0x2
30008304:	e14b30b6 	strh	r3, [fp, #-6]
30008308:	e15b30b6 	ldrh	r3, [fp, #-6]
3000830c:	e15b21be 	ldrh	r2, [fp, #-30]
30008310:	e2822001 	add	r2, r2, #1	; 0x1
30008314:	e1530002 	cmp	r3, r2
30008318:	1affffef 	bne	300082dc <udpchecksum+0x48>
3000831c:	e3a03000 	mov	r3, #0	; 0x0
30008320:	e14b30b6 	strh	r3, [fp, #-6]
30008324:	ea00000a 	b	30008354 <udpchecksum+0xc0>
30008328:	e15b20b6 	ldrh	r2, [fp, #-6]
3000832c:	e51b301c 	ldr	r3, [fp, #-28]
30008330:	e0833002 	add	r3, r3, r2
30008334:	e5d33000 	ldrb	r3, [r3]
30008338:	e1a02003 	mov	r2, r3
3000833c:	e51b300c 	ldr	r3, [fp, #-12]
30008340:	e0833002 	add	r3, r3, r2
30008344:	e50b300c 	str	r3, [fp, #-12]
30008348:	e15b30b6 	ldrh	r3, [fp, #-6]
3000834c:	e2833002 	add	r3, r3, #2	; 0x2
30008350:	e14b30b6 	strh	r3, [fp, #-6]
30008354:	e15b20b6 	ldrh	r2, [fp, #-6]
30008358:	e15b31be 	ldrh	r3, [fp, #-30]
3000835c:	e1520003 	cmp	r2, r3
30008360:	1afffff0 	bne	30008328 <udpchecksum+0x94>
30008364:	e51b300c 	ldr	r3, [fp, #-12]
30008368:	e1a02403 	lsl	r2, r3, #8
3000836c:	e51b3010 	ldr	r3, [fp, #-16]
30008370:	e0823003 	add	r3, r2, r3
30008374:	e50b3014 	str	r3, [fp, #-20]
30008378:	e51b3014 	ldr	r3, [fp, #-20]
3000837c:	e1a03803 	lsl	r3, r3, #16
30008380:	e1a03823 	lsr	r3, r3, #16
30008384:	e51b2014 	ldr	r2, [fp, #-20]
30008388:	e1a02822 	lsr	r2, r2, #16
3000838c:	e0833002 	add	r3, r3, r2
30008390:	e50b3014 	str	r3, [fp, #-20]
30008394:	e51b3014 	ldr	r3, [fp, #-20]
30008398:	e1a03803 	lsl	r3, r3, #16
3000839c:	e1a03823 	lsr	r3, r3, #16
300083a0:	e1e03003 	mvn	r3, r3
300083a4:	e1a03803 	lsl	r3, r3, #16
300083a8:	e1a03823 	lsr	r3, r3, #16
300083ac:	e1a00003 	mov	r0, r3
300083b0:	e28bd000 	add	sp, fp, #0	; 0x0
300083b4:	e8bd0800 	pop	{fp}
300083b8:	e12fff1e 	bx	lr

300083bc <UDP_pack>:
300083bc:	e92d4810 	push	{r4, fp, lr}
300083c0:	e28db008 	add	fp, sp, #8	; 0x8
300083c4:	e24dd024 	sub	sp, sp, #36	; 0x24
300083c8:	e50b0028 	str	r0, [fp, #-40]
300083cc:	e1a03001 	mov	r3, r1
300083d0:	e14b32ba 	strh	r3, [fp, #-42]
300083d4:	e24b3020 	sub	r3, fp, #32	; 0x20
300083d8:	e50b3010 	str	r3, [fp, #-16]
300083dc:	e51b2010 	ldr	r2, [fp, #-16]
300083e0:	e3a03004 	mov	r3, #4	; 0x4
300083e4:	e1c230b0 	strh	r3, [r2]
300083e8:	e51b2010 	ldr	r2, [fp, #-16]
300083ec:	e3a03b07 	mov	r3, #7168	; 0x1c00
300083f0:	e283300b 	add	r3, r3, #11	; 0xb
300083f4:	e1c230b2 	strh	r3, [r2, #2]
300083f8:	e15b32ba 	ldrh	r3, [fp, #-42]
300083fc:	e2833008 	add	r3, r3, #8	; 0x8
30008400:	e1a03803 	lsl	r3, r3, #16
30008404:	e1a03823 	lsr	r3, r3, #16
30008408:	e1a03403 	lsl	r3, r3, #8
3000840c:	e1a03803 	lsl	r3, r3, #16
30008410:	e1a02823 	lsr	r2, r3, #16
30008414:	e15b32ba 	ldrh	r3, [fp, #-42]
30008418:	e2833008 	add	r3, r3, #8	; 0x8
3000841c:	e1a03803 	lsl	r3, r3, #16
30008420:	e1a03823 	lsr	r3, r3, #16
30008424:	e1a03423 	lsr	r3, r3, #8
30008428:	e1a03803 	lsl	r3, r3, #16
3000842c:	e1a03823 	lsr	r3, r3, #16
30008430:	e1823003 	orr	r3, r2, r3
30008434:	e1a03803 	lsl	r3, r3, #16
30008438:	e1a03823 	lsr	r3, r3, #16
3000843c:	e1a03803 	lsl	r3, r3, #16
30008440:	e1a02823 	lsr	r2, r3, #16
30008444:	e51b3010 	ldr	r3, [fp, #-16]
30008448:	e1c320b4 	strh	r2, [r3, #4]
3000844c:	e51b2010 	ldr	r2, [fp, #-16]
30008450:	e3a03000 	mov	r3, #0	; 0x0
30008454:	e1c230b6 	strh	r3, [r2, #6]
30008458:	e24b3020 	sub	r3, fp, #32	; 0x20
3000845c:	e15b22ba 	ldrh	r2, [fp, #-42]
30008460:	e1a00003 	mov	r0, r3
30008464:	e51b1028 	ldr	r1, [fp, #-40]
30008468:	ebffff89 	bl	30008294 <udpchecksum>
3000846c:	e1a03000 	mov	r3, r0
30008470:	e1a03403 	lsl	r3, r3, #8
30008474:	e1a03803 	lsl	r3, r3, #16
30008478:	e1a04823 	lsr	r4, r3, #16
3000847c:	e24b3020 	sub	r3, fp, #32	; 0x20
30008480:	e15b22ba 	ldrh	r2, [fp, #-42]
30008484:	e1a00003 	mov	r0, r3
30008488:	e51b1028 	ldr	r1, [fp, #-40]
3000848c:	ebffff80 	bl	30008294 <udpchecksum>
30008490:	e1a03000 	mov	r3, r0
30008494:	e1a03423 	lsr	r3, r3, #8
30008498:	e1a03803 	lsl	r3, r3, #16
3000849c:	e1a03823 	lsr	r3, r3, #16
300084a0:	e1a02004 	mov	r2, r4
300084a4:	e1823003 	orr	r3, r2, r3
300084a8:	e1a03803 	lsl	r3, r3, #16
300084ac:	e1a03823 	lsr	r3, r3, #16
300084b0:	e1a03803 	lsl	r3, r3, #16
300084b4:	e1a02823 	lsr	r2, r3, #16
300084b8:	e51b3010 	ldr	r3, [fp, #-16]
300084bc:	e1c320b6 	strh	r2, [r3, #6]
300084c0:	e24b3020 	sub	r3, fp, #32	; 0x20
300084c4:	e51b0028 	ldr	r0, [fp, #-40]
300084c8:	e1a01003 	mov	r1, r3
300084cc:	e3a02008 	mov	r2, #8	; 0x8
300084d0:	ebffe582 	bl	30001ae0 <memcpy>
300084d4:	e3a03011 	mov	r3, #17	; 0x11
300084d8:	e1a00003 	mov	r0, r3
300084dc:	e24bd008 	sub	sp, fp, #8	; 0x8
300084e0:	e8bd4810 	pop	{r4, fp, lr}
300084e4:	e12fff1e 	bx	lr

300084e8 <udelay_us>:
300084e8:	e52db004 	push	{fp}		; (str fp, [sp, #-4]!)
300084ec:	e28db000 	add	fp, sp, #0	; 0x0
300084f0:	e24dd014 	sub	sp, sp, #20	; 0x14
300084f4:	e50b0010 	str	r0, [fp, #-16]
300084f8:	ea000008 	b	30008520 <udelay_us+0x38>
300084fc:	e3a03000 	mov	r3, #0	; 0x0
30008500:	e50b3008 	str	r3, [fp, #-8]
30008504:	ea000002 	b	30008514 <udelay_us+0x2c>
30008508:	e51b3008 	ldr	r3, [fp, #-8]
3000850c:	e2833001 	add	r3, r3, #1	; 0x1
30008510:	e50b3008 	str	r3, [fp, #-8]
30008514:	e51b3008 	ldr	r3, [fp, #-8]
30008518:	e35300bd 	cmp	r3, #189	; 0xbd
3000851c:	dafffff9 	ble	30008508 <udelay_us+0x20>
30008520:	e51b3010 	ldr	r3, [fp, #-16]
30008524:	e3530000 	cmp	r3, #0	; 0x0
30008528:	03a03000 	moveq	r3, #0	; 0x0
3000852c:	13a03001 	movne	r3, #1	; 0x1
30008530:	e20320ff 	and	r2, r3, #255	; 0xff
30008534:	e51b3010 	ldr	r3, [fp, #-16]
30008538:	e2433001 	sub	r3, r3, #1	; 0x1
3000853c:	e50b3010 	str	r3, [fp, #-16]
30008540:	e3520000 	cmp	r2, #0	; 0x0
30008544:	1affffec 	bne	300084fc <udelay_us+0x14>
30008548:	e28bd000 	add	sp, fp, #0	; 0x0
3000854c:	e8bd0800 	pop	{fp}
30008550:	e12fff1e 	bx	lr

30008554 <udelay_ms>:
30008554:	e52db004 	push	{fp}		; (str fp, [sp, #-4]!)
30008558:	e28db000 	add	fp, sp, #0	; 0x0
3000855c:	e24dd014 	sub	sp, sp, #20	; 0x14
30008560:	e50b0010 	str	r0, [fp, #-16]
30008564:	ea00000b 	b	30008598 <udelay_ms+0x44>
30008568:	e3a03000 	mov	r3, #0	; 0x0
3000856c:	e50b3008 	str	r3, [fp, #-8]
30008570:	ea000002 	b	30008580 <udelay_ms+0x2c>
30008574:	e51b3008 	ldr	r3, [fp, #-8]
30008578:	e2833001 	add	r3, r3, #1	; 0x1
3000857c:	e50b3008 	str	r3, [fp, #-8]
30008580:	e51b2008 	ldr	r2, [fp, #-8]
30008584:	e3a03bc3 	mov	r3, #199680	; 0x30c00
30008588:	e2833f4f 	add	r3, r3, #316	; 0x13c
3000858c:	e2833003 	add	r3, r3, #3	; 0x3
30008590:	e1520003 	cmp	r2, r3
30008594:	dafffff6 	ble	30008574 <udelay_ms+0x20>
30008598:	e51b3010 	ldr	r3, [fp, #-16]
3000859c:	e3530000 	cmp	r3, #0	; 0x0
300085a0:	03a03000 	moveq	r3, #0	; 0x0
300085a4:	13a03001 	movne	r3, #1	; 0x1
300085a8:	e20320ff 	and	r2, r3, #255	; 0xff
300085ac:	e51b3010 	ldr	r3, [fp, #-16]
300085b0:	e2433001 	sub	r3, r3, #1	; 0x1
300085b4:	e50b3010 	str	r3, [fp, #-16]
300085b8:	e3520000 	cmp	r2, #0	; 0x0
300085bc:	1affffe9 	bne	30008568 <udelay_ms+0x14>
300085c0:	e28bd000 	add	sp, fp, #0	; 0x0
300085c4:	e8bd0800 	pop	{fp}
300085c8:	e12fff1e 	bx	lr

300085cc <dm9000_outblk_8bit>:
300085cc:	e52db004 	push	{fp}		; (str fp, [sp, #-4]!)
300085d0:	e28db000 	add	fp, sp, #0	; 0x0
300085d4:	e24dd01c 	sub	sp, sp, #28	; 0x1c
300085d8:	e59f2070 	ldr	r2, [pc, #112]	; 30008650 <dm9000_outblk_8bit+0x84>
300085dc:	e50b2018 	str	r2, [fp, #-24]
300085e0:	e51b3018 	ldr	r3, [fp, #-24]
300085e4:	e08f3003 	add	r3, pc, r3
300085e8:	e50b3018 	str	r3, [fp, #-24]
300085ec:	e50b0010 	str	r0, [fp, #-16]
300085f0:	e50b1014 	str	r1, [fp, #-20]
300085f4:	e3a03000 	mov	r3, #0	; 0x0
300085f8:	e50b3008 	str	r3, [fp, #-8]
300085fc:	ea00000c 	b	30008634 <dm9000_outblk_8bit+0x68>
30008600:	e59f304c 	ldr	r3, [pc, #76]	; 30008654 <dm9000_outblk_8bit+0x88>
30008604:	e51b2018 	ldr	r2, [fp, #-24]
30008608:	e0823003 	add	r3, r2, r3
3000860c:	e5933000 	ldr	r3, [r3]
30008610:	e1a01003 	mov	r1, r3
30008614:	e51b2010 	ldr	r2, [fp, #-16]
30008618:	e51b3008 	ldr	r3, [fp, #-8]
3000861c:	e0823003 	add	r3, r2, r3
30008620:	e5d33000 	ldrb	r3, [r3]
30008624:	e5c13000 	strb	r3, [r1]
30008628:	e51b3008 	ldr	r3, [fp, #-8]
3000862c:	e2833001 	add	r3, r3, #1	; 0x1
30008630:	e50b3008 	str	r3, [fp, #-8]
30008634:	e51b2008 	ldr	r2, [fp, #-8]
30008638:	e51b3014 	ldr	r3, [fp, #-20]
3000863c:	e1520003 	cmp	r2, r3
30008640:	baffffee 	blt	30008600 <dm9000_outblk_8bit+0x34>
30008644:	e28bd000 	add	sp, fp, #0	; 0x0
30008648:	e8bd0800 	pop	{fp}
3000864c:	e12fff1e 	bx	lr
30008650:	cfff7a14 	.word	0xcfff7a14
30008654:	3000cfdc 	.word	0x3000cfdc

30008658 <dm9000_outblk_16bit>:
30008658:	e52db004 	push	{fp}		; (str fp, [sp, #-4]!)
3000865c:	e28db000 	add	fp, sp, #0	; 0x0
30008660:	e24dd01c 	sub	sp, sp, #28	; 0x1c
30008664:	e59f208c 	ldr	r2, [pc, #140]	; 300086f8 <dm9000_outblk_16bit+0xa0>
30008668:	e50b2018 	str	r2, [fp, #-24]
3000866c:	e51b3018 	ldr	r3, [fp, #-24]
30008670:	e08f3003 	add	r3, pc, r3
30008674:	e50b3018 	str	r3, [fp, #-24]
30008678:	e50b0010 	str	r0, [fp, #-16]
3000867c:	e50b1014 	str	r1, [fp, #-20]
30008680:	e51b3014 	ldr	r3, [fp, #-20]
30008684:	e2832001 	add	r2, r3, #1	; 0x1
30008688:	e1a03fa2 	lsr	r3, r2, #31
3000868c:	e0833002 	add	r3, r3, r2
30008690:	e1a030c3 	asr	r3, r3, #1
30008694:	e50b3008 	str	r3, [fp, #-8]
30008698:	e3a03000 	mov	r3, #0	; 0x0
3000869c:	e50b300c 	str	r3, [fp, #-12]
300086a0:	ea00000d 	b	300086dc <dm9000_outblk_16bit+0x84>
300086a4:	e59f3050 	ldr	r3, [pc, #80]	; 300086fc <dm9000_outblk_16bit+0xa4>
300086a8:	e51b2018 	ldr	r2, [fp, #-24]
300086ac:	e0823003 	add	r3, r2, r3
300086b0:	e5933000 	ldr	r3, [r3]
300086b4:	e1a01003 	mov	r1, r3
300086b8:	e51b2010 	ldr	r2, [fp, #-16]
300086bc:	e51b300c 	ldr	r3, [fp, #-12]
300086c0:	e1a03083 	lsl	r3, r3, #1
300086c4:	e0823003 	add	r3, r2, r3
300086c8:	e1d330b0 	ldrh	r3, [r3]
300086cc:	e1c130b0 	strh	r3, [r1]
300086d0:	e51b300c 	ldr	r3, [fp, #-12]
300086d4:	e2833001 	add	r3, r3, #1	; 0x1
300086d8:	e50b300c 	str	r3, [fp, #-12]
300086dc:	e51b200c 	ldr	r2, [fp, #-12]
300086e0:	e51b3008 	ldr	r3, [fp, #-8]
300086e4:	e1520003 	cmp	r2, r3
300086e8:	3affffed 	bcc	300086a4 <dm9000_outblk_16bit+0x4c>
300086ec:	e28bd000 	add	sp, fp, #0	; 0x0
300086f0:	e8bd0800 	pop	{fp}
300086f4:	e12fff1e 	bx	lr
300086f8:	cfff7988 	.word	0xcfff7988
300086fc:	3000cfdc 	.word	0x3000cfdc

30008700 <dm9000_outblk_32bit>:
30008700:	e52db004 	push	{fp}		; (str fp, [sp, #-4]!)
30008704:	e28db000 	add	fp, sp, #0	; 0x0
30008708:	e24dd01c 	sub	sp, sp, #28	; 0x1c
3000870c:	e59f2090 	ldr	r2, [pc, #144]	; 300087a4 <dm9000_outblk_32bit+0xa4>
30008710:	e50b2018 	str	r2, [fp, #-24]
30008714:	e51b3018 	ldr	r3, [fp, #-24]
30008718:	e08f3003 	add	r3, pc, r3
3000871c:	e50b3018 	str	r3, [fp, #-24]
30008720:	e50b0010 	str	r0, [fp, #-16]
30008724:	e50b1014 	str	r1, [fp, #-20]
30008728:	e51b3014 	ldr	r3, [fp, #-20]
3000872c:	e2833003 	add	r3, r3, #3	; 0x3
30008730:	e2832003 	add	r2, r3, #3	; 0x3
30008734:	e3530000 	cmp	r3, #0	; 0x0
30008738:	b1a03002 	movlt	r3, r2
3000873c:	e1a03143 	asr	r3, r3, #2
30008740:	e50b3008 	str	r3, [fp, #-8]
30008744:	e3a03000 	mov	r3, #0	; 0x0
30008748:	e50b300c 	str	r3, [fp, #-12]
3000874c:	ea00000d 	b	30008788 <dm9000_outblk_32bit+0x88>
30008750:	e59f3050 	ldr	r3, [pc, #80]	; 300087a8 <dm9000_outblk_32bit+0xa8>
30008754:	e51b2018 	ldr	r2, [fp, #-24]
30008758:	e0823003 	add	r3, r2, r3
3000875c:	e5933000 	ldr	r3, [r3]
30008760:	e1a01003 	mov	r1, r3
30008764:	e51b2010 	ldr	r2, [fp, #-16]
30008768:	e51b300c 	ldr	r3, [fp, #-12]
3000876c:	e1a03103 	lsl	r3, r3, #2
30008770:	e0823003 	add	r3, r2, r3
30008774:	e5933000 	ldr	r3, [r3]
30008778:	e5813000 	str	r3, [r1]
3000877c:	e51b300c 	ldr	r3, [fp, #-12]
30008780:	e2833001 	add	r3, r3, #1	; 0x1
30008784:	e50b300c 	str	r3, [fp, #-12]
30008788:	e51b200c 	ldr	r2, [fp, #-12]
3000878c:	e51b3008 	ldr	r3, [fp, #-8]
30008790:	e1520003 	cmp	r2, r3
30008794:	3affffed 	bcc	30008750 <dm9000_outblk_32bit+0x50>
30008798:	e28bd000 	add	sp, fp, #0	; 0x0
3000879c:	e8bd0800 	pop	{fp}
300087a0:	e12fff1e 	bx	lr
300087a4:	cfff78e0 	.word	0xcfff78e0
300087a8:	3000cfdc 	.word	0x3000cfdc

300087ac <dm9000_inblk_8bit>:
300087ac:	e52db004 	push	{fp}		; (str fp, [sp, #-4]!)
300087b0:	e28db000 	add	fp, sp, #0	; 0x0
300087b4:	e24dd01c 	sub	sp, sp, #28	; 0x1c
300087b8:	e59f3070 	ldr	r3, [pc, #112]	; 30008830 <dm9000_inblk_8bit+0x84>
300087bc:	e50b3018 	str	r3, [fp, #-24]
300087c0:	e51b3018 	ldr	r3, [fp, #-24]
300087c4:	e08f3003 	add	r3, pc, r3
300087c8:	e50b3018 	str	r3, [fp, #-24]
300087cc:	e50b0010 	str	r0, [fp, #-16]
300087d0:	e50b1014 	str	r1, [fp, #-20]
300087d4:	e3a03000 	mov	r3, #0	; 0x0
300087d8:	e50b3008 	str	r3, [fp, #-8]
300087dc:	ea00000c 	b	30008814 <dm9000_inblk_8bit+0x68>
300087e0:	e51b2010 	ldr	r2, [fp, #-16]
300087e4:	e51b3008 	ldr	r3, [fp, #-8]
300087e8:	e0822003 	add	r2, r2, r3
300087ec:	e59f3040 	ldr	r3, [pc, #64]	; 30008834 <dm9000_inblk_8bit+0x88>
300087f0:	e51b1018 	ldr	r1, [fp, #-24]
300087f4:	e0813003 	add	r3, r1, r3
300087f8:	e5933000 	ldr	r3, [r3]
300087fc:	e5d33000 	ldrb	r3, [r3]
30008800:	e20330ff 	and	r3, r3, #255	; 0xff
30008804:	e5c23000 	strb	r3, [r2]
30008808:	e51b3008 	ldr	r3, [fp, #-8]
3000880c:	e2833001 	add	r3, r3, #1	; 0x1
30008810:	e50b3008 	str	r3, [fp, #-8]
30008814:	e51b2008 	ldr	r2, [fp, #-8]
30008818:	e51b3014 	ldr	r3, [fp, #-20]
3000881c:	e1520003 	cmp	r2, r3
30008820:	baffffee 	blt	300087e0 <dm9000_inblk_8bit+0x34>
30008824:	e28bd000 	add	sp, fp, #0	; 0x0
30008828:	e8bd0800 	pop	{fp}
3000882c:	e12fff1e 	bx	lr
30008830:	cfff7834 	.word	0xcfff7834
30008834:	3000cfdc 	.word	0x3000cfdc

30008838 <dm9000_inblk_16bit>:
30008838:	e52db004 	push	{fp}		; (str fp, [sp, #-4]!)
3000883c:	e28db000 	add	fp, sp, #0	; 0x0
30008840:	e24dd01c 	sub	sp, sp, #28	; 0x1c
30008844:	e59f3090 	ldr	r3, [pc, #144]	; 300088dc <dm9000_inblk_16bit+0xa4>
30008848:	e50b3018 	str	r3, [fp, #-24]
3000884c:	e51b3018 	ldr	r3, [fp, #-24]
30008850:	e08f3003 	add	r3, pc, r3
30008854:	e50b3018 	str	r3, [fp, #-24]
30008858:	e50b0010 	str	r0, [fp, #-16]
3000885c:	e50b1014 	str	r1, [fp, #-20]
30008860:	e51b3014 	ldr	r3, [fp, #-20]
30008864:	e2832001 	add	r2, r3, #1	; 0x1
30008868:	e1a03fa2 	lsr	r3, r2, #31
3000886c:	e0833002 	add	r3, r3, r2
30008870:	e1a030c3 	asr	r3, r3, #1
30008874:	e50b3008 	str	r3, [fp, #-8]
30008878:	e3a03000 	mov	r3, #0	; 0x0
3000887c:	e50b300c 	str	r3, [fp, #-12]
30008880:	ea00000e 	b	300088c0 <dm9000_inblk_16bit+0x88>
30008884:	e51b2010 	ldr	r2, [fp, #-16]
30008888:	e51b300c 	ldr	r3, [fp, #-12]
3000888c:	e1a03083 	lsl	r3, r3, #1
30008890:	e0822003 	add	r2, r2, r3
30008894:	e59f3044 	ldr	r3, [pc, #68]	; 300088e0 <dm9000_inblk_16bit+0xa8>
30008898:	e51b1018 	ldr	r1, [fp, #-24]
3000889c:	e0813003 	add	r3, r1, r3
300088a0:	e5933000 	ldr	r3, [r3]
300088a4:	e1d330b0 	ldrh	r3, [r3]
300088a8:	e1a03803 	lsl	r3, r3, #16
300088ac:	e1a03823 	lsr	r3, r3, #16
300088b0:	e1c230b0 	strh	r3, [r2]
300088b4:	e51b300c 	ldr	r3, [fp, #-12]
300088b8:	e2833001 	add	r3, r3, #1	; 0x1
300088bc:	e50b300c 	str	r3, [fp, #-12]
300088c0:	e51b200c 	ldr	r2, [fp, #-12]
300088c4:	e51b3008 	ldr	r3, [fp, #-8]
300088c8:	e1520003 	cmp	r2, r3
300088cc:	3affffec 	bcc	30008884 <dm9000_inblk_16bit+0x4c>
300088d0:	e28bd000 	add	sp, fp, #0	; 0x0
300088d4:	e8bd0800 	pop	{fp}
300088d8:	e12fff1e 	bx	lr
300088dc:	cfff77a8 	.word	0xcfff77a8
300088e0:	3000cfdc 	.word	0x3000cfdc

300088e4 <dm9000_inblk_32bit>:
300088e4:	e52db004 	push	{fp}		; (str fp, [sp, #-4]!)
300088e8:	e28db000 	add	fp, sp, #0	; 0x0
300088ec:	e24dd01c 	sub	sp, sp, #28	; 0x1c
300088f0:	e59f308c 	ldr	r3, [pc, #140]	; 30008984 <dm9000_inblk_32bit+0xa0>
300088f4:	e50b3018 	str	r3, [fp, #-24]
300088f8:	e51b3018 	ldr	r3, [fp, #-24]
300088fc:	e08f3003 	add	r3, pc, r3
30008900:	e50b3018 	str	r3, [fp, #-24]
30008904:	e50b0010 	str	r0, [fp, #-16]
30008908:	e50b1014 	str	r1, [fp, #-20]
3000890c:	e51b3014 	ldr	r3, [fp, #-20]
30008910:	e2833003 	add	r3, r3, #3	; 0x3
30008914:	e2832003 	add	r2, r3, #3	; 0x3
30008918:	e3530000 	cmp	r3, #0	; 0x0
3000891c:	b1a03002 	movlt	r3, r2
30008920:	e1a03143 	asr	r3, r3, #2
30008924:	e50b3008 	str	r3, [fp, #-8]
30008928:	e3a03000 	mov	r3, #0	; 0x0
3000892c:	e50b300c 	str	r3, [fp, #-12]
30008930:	ea00000c 	b	30008968 <dm9000_inblk_32bit+0x84>
30008934:	e51b2010 	ldr	r2, [fp, #-16]
30008938:	e51b300c 	ldr	r3, [fp, #-12]
3000893c:	e1a03103 	lsl	r3, r3, #2
30008940:	e0822003 	add	r2, r2, r3
30008944:	e59f303c 	ldr	r3, [pc, #60]	; 30008988 <dm9000_inblk_32bit+0xa4>
30008948:	e51b1018 	ldr	r1, [fp, #-24]
3000894c:	e0813003 	add	r3, r1, r3
30008950:	e5933000 	ldr	r3, [r3]
30008954:	e5933000 	ldr	r3, [r3]
30008958:	e5823000 	str	r3, [r2]
3000895c:	e51b300c 	ldr	r3, [fp, #-12]
30008960:	e2833001 	add	r3, r3, #1	; 0x1
30008964:	e50b300c 	str	r3, [fp, #-12]
30008968:	e51b200c 	ldr	r2, [fp, #-12]
3000896c:	e51b3008 	ldr	r3, [fp, #-8]
30008970:	e1520003 	cmp	r2, r3
30008974:	3affffee 	bcc	30008934 <dm9000_inblk_32bit+0x50>
30008978:	e28bd000 	add	sp, fp, #0	; 0x0
3000897c:	e8bd0800 	pop	{fp}
30008980:	e12fff1e 	bx	lr
30008984:	cfff76fc 	.word	0xcfff76fc
30008988:	3000cfdc 	.word	0x3000cfdc

3000898c <dm9000_rx_status_8bit>:
3000898c:	e52db004 	push	{fp}		; (str fp, [sp, #-4]!)
30008990:	e28db000 	add	fp, sp, #0	; 0x0
30008994:	e24dd00c 	sub	sp, sp, #12	; 0xc
30008998:	e59fc0c4 	ldr	ip, [pc, #196]	; 30008a64 <dm9000_rx_status_8bit+0xd8>
3000899c:	e08fc00c 	add	ip, pc, ip
300089a0:	e50b0008 	str	r0, [fp, #-8]
300089a4:	e50b100c 	str	r1, [fp, #-12]
300089a8:	e59f30b8 	ldr	r3, [pc, #184]	; 30008a68 <dm9000_rx_status_8bit+0xdc>
300089ac:	e08c3003 	add	r3, ip, r3
300089b0:	e5933000 	ldr	r3, [r3]
300089b4:	e1a02003 	mov	r2, r3
300089b8:	e3e0300d 	mvn	r3, #13	; 0xd
300089bc:	e5c23000 	strb	r3, [r2]
300089c0:	e59f30a4 	ldr	r3, [pc, #164]	; 30008a6c <dm9000_rx_status_8bit+0xe0>
300089c4:	e08c3003 	add	r3, ip, r3
300089c8:	e5933000 	ldr	r3, [r3]
300089cc:	e5d33000 	ldrb	r3, [r3]
300089d0:	e20330ff 	and	r3, r3, #255	; 0xff
300089d4:	e1a02003 	mov	r2, r3
300089d8:	e59f308c 	ldr	r3, [pc, #140]	; 30008a6c <dm9000_rx_status_8bit+0xe0>
300089dc:	e08c3003 	add	r3, ip, r3
300089e0:	e5933000 	ldr	r3, [r3]
300089e4:	e5d33000 	ldrb	r3, [r3]
300089e8:	e20330ff 	and	r3, r3, #255	; 0xff
300089ec:	e1a03403 	lsl	r3, r3, #8
300089f0:	e1a03803 	lsl	r3, r3, #16
300089f4:	e1a03823 	lsr	r3, r3, #16
300089f8:	e0823003 	add	r3, r2, r3
300089fc:	e1a03803 	lsl	r3, r3, #16
30008a00:	e1a02823 	lsr	r2, r3, #16
30008a04:	e51b3008 	ldr	r3, [fp, #-8]
30008a08:	e1c320b0 	strh	r2, [r3]
30008a0c:	e59f3058 	ldr	r3, [pc, #88]	; 30008a6c <dm9000_rx_status_8bit+0xe0>
30008a10:	e08c3003 	add	r3, ip, r3
30008a14:	e5933000 	ldr	r3, [r3]
30008a18:	e5d33000 	ldrb	r3, [r3]
30008a1c:	e20330ff 	and	r3, r3, #255	; 0xff
30008a20:	e1a02003 	mov	r2, r3
30008a24:	e59f3040 	ldr	r3, [pc, #64]	; 30008a6c <dm9000_rx_status_8bit+0xe0>
30008a28:	e08c3003 	add	r3, ip, r3
30008a2c:	e5933000 	ldr	r3, [r3]
30008a30:	e5d33000 	ldrb	r3, [r3]
30008a34:	e20330ff 	and	r3, r3, #255	; 0xff
30008a38:	e1a03403 	lsl	r3, r3, #8
30008a3c:	e1a03803 	lsl	r3, r3, #16
30008a40:	e1a03823 	lsr	r3, r3, #16
30008a44:	e0823003 	add	r3, r2, r3
30008a48:	e1a03803 	lsl	r3, r3, #16
30008a4c:	e1a02823 	lsr	r2, r3, #16
30008a50:	e51b300c 	ldr	r3, [fp, #-12]
30008a54:	e1c320b0 	strh	r2, [r3]
30008a58:	e28bd000 	add	sp, fp, #0	; 0x0
30008a5c:	e8bd0800 	pop	{fp}
30008a60:	e12fff1e 	bx	lr
30008a64:	cfff765c 	.word	0xcfff765c
30008a68:	3000cfd8 	.word	0x3000cfd8
30008a6c:	3000cfdc 	.word	0x3000cfdc

30008a70 <dm9000_rx_status_16bit>:
30008a70:	e52db004 	push	{fp}		; (str fp, [sp, #-4]!)
30008a74:	e28db000 	add	fp, sp, #0	; 0x0
30008a78:	e24dd00c 	sub	sp, sp, #12	; 0xc
30008a7c:	e59fc06c 	ldr	ip, [pc, #108]	; 30008af0 <dm9000_rx_status_16bit+0x80>
30008a80:	e08fc00c 	add	ip, pc, ip
30008a84:	e50b0008 	str	r0, [fp, #-8]
30008a88:	e50b100c 	str	r1, [fp, #-12]
30008a8c:	e59f3060 	ldr	r3, [pc, #96]	; 30008af4 <dm9000_rx_status_16bit+0x84>
30008a90:	e08c3003 	add	r3, ip, r3
30008a94:	e5933000 	ldr	r3, [r3]
30008a98:	e1a02003 	mov	r2, r3
30008a9c:	e3e0300d 	mvn	r3, #13	; 0xd
30008aa0:	e5c23000 	strb	r3, [r2]
30008aa4:	e59f304c 	ldr	r3, [pc, #76]	; 30008af8 <dm9000_rx_status_16bit+0x88>
30008aa8:	e08c3003 	add	r3, ip, r3
30008aac:	e5933000 	ldr	r3, [r3]
30008ab0:	e1d330b0 	ldrh	r3, [r3]
30008ab4:	e1a03803 	lsl	r3, r3, #16
30008ab8:	e1a02823 	lsr	r2, r3, #16
30008abc:	e51b3008 	ldr	r3, [fp, #-8]
30008ac0:	e1c320b0 	strh	r2, [r3]
30008ac4:	e59f302c 	ldr	r3, [pc, #44]	; 30008af8 <dm9000_rx_status_16bit+0x88>
30008ac8:	e08c3003 	add	r3, ip, r3
30008acc:	e5933000 	ldr	r3, [r3]
30008ad0:	e1d330b0 	ldrh	r3, [r3]
30008ad4:	e1a03803 	lsl	r3, r3, #16
30008ad8:	e1a02823 	lsr	r2, r3, #16
30008adc:	e51b300c 	ldr	r3, [fp, #-12]
30008ae0:	e1c320b0 	strh	r2, [r3]
30008ae4:	e28bd000 	add	sp, fp, #0	; 0x0
30008ae8:	e8bd0800 	pop	{fp}
30008aec:	e12fff1e 	bx	lr
30008af0:	cfff7578 	.word	0xcfff7578
30008af4:	3000cfd8 	.word	0x3000cfd8
30008af8:	3000cfdc 	.word	0x3000cfdc

30008afc <dm9000_rx_status_32bit>:
30008afc:	e52db004 	push	{fp}		; (str fp, [sp, #-4]!)
30008b00:	e28db000 	add	fp, sp, #0	; 0x0
30008b04:	e24dd014 	sub	sp, sp, #20	; 0x14
30008b08:	e59f206c 	ldr	r2, [pc, #108]	; 30008b7c <dm9000_rx_status_32bit+0x80>
30008b0c:	e08f2002 	add	r2, pc, r2
30008b10:	e50b0010 	str	r0, [fp, #-16]
30008b14:	e50b1014 	str	r1, [fp, #-20]
30008b18:	e59f3060 	ldr	r3, [pc, #96]	; 30008b80 <dm9000_rx_status_32bit+0x84>
30008b1c:	e0823003 	add	r3, r2, r3
30008b20:	e5933000 	ldr	r3, [r3]
30008b24:	e1a01003 	mov	r1, r3
30008b28:	e3e0300d 	mvn	r3, #13	; 0xd
30008b2c:	e5c13000 	strb	r3, [r1]
30008b30:	e59f304c 	ldr	r3, [pc, #76]	; 30008b84 <dm9000_rx_status_32bit+0x88>
30008b34:	e0823003 	add	r3, r2, r3
30008b38:	e5933000 	ldr	r3, [r3]
30008b3c:	e5933000 	ldr	r3, [r3]
30008b40:	e50b3008 	str	r3, [fp, #-8]
30008b44:	e51b3008 	ldr	r3, [fp, #-8]
30008b48:	e1a03803 	lsl	r3, r3, #16
30008b4c:	e1a02823 	lsr	r2, r3, #16
30008b50:	e51b3010 	ldr	r3, [fp, #-16]
30008b54:	e1c320b0 	strh	r2, [r3]
30008b58:	e51b3008 	ldr	r3, [fp, #-8]
30008b5c:	e1a03823 	lsr	r3, r3, #16
30008b60:	e1a03803 	lsl	r3, r3, #16
30008b64:	e1a02823 	lsr	r2, r3, #16
30008b68:	e51b3014 	ldr	r3, [fp, #-20]
30008b6c:	e1c320b0 	strh	r2, [r3]
30008b70:	e28bd000 	add	sp, fp, #0	; 0x0
30008b74:	e8bd0800 	pop	{fp}
30008b78:	e12fff1e 	bx	lr
30008b7c:	cfff74ec 	.word	0xcfff74ec
30008b80:	3000cfd8 	.word	0x3000cfd8
30008b84:	3000cfdc 	.word	0x3000cfdc

30008b88 <dm9000_read_srom_word>:
30008b88:	e92d4810 	push	{r4, fp, lr}
30008b8c:	e28db008 	add	fp, sp, #8	; 0x8
30008b90:	e24dd00c 	sub	sp, sp, #12	; 0xc
30008b94:	e50b0010 	str	r0, [fp, #-16]
30008b98:	e50b1014 	str	r1, [fp, #-20]
30008b9c:	e51b3010 	ldr	r3, [fp, #-16]
30008ba0:	e20330ff 	and	r3, r3, #255	; 0xff
30008ba4:	e3a0000c 	mov	r0, #12	; 0xc
30008ba8:	e1a01003 	mov	r1, r3
30008bac:	eb000015 	bl	30008c08 <DM9000_iow>
30008bb0:	e3a0000b 	mov	r0, #11	; 0xb
30008bb4:	e3a01004 	mov	r1, #4	; 0x4
30008bb8:	eb000012 	bl	30008c08 <DM9000_iow>
30008bbc:	e3a00d7d 	mov	r0, #8000	; 0x1f40
30008bc0:	ebfffe48 	bl	300084e8 <udelay_us>
30008bc4:	e3a0000b 	mov	r0, #11	; 0xb
30008bc8:	e3a01000 	mov	r1, #0	; 0x0
30008bcc:	eb00000d 	bl	30008c08 <DM9000_iow>
30008bd0:	e3a0000d 	mov	r0, #13	; 0xd
30008bd4:	eb000026 	bl	30008c74 <DM9000_ior>
30008bd8:	e1a03000 	mov	r3, r0
30008bdc:	e51b2014 	ldr	r2, [fp, #-20]
30008be0:	e5c23000 	strb	r3, [r2]
30008be4:	e51b3014 	ldr	r3, [fp, #-20]
30008be8:	e2834001 	add	r4, r3, #1	; 0x1
30008bec:	e3a0000e 	mov	r0, #14	; 0xe
30008bf0:	eb00001f 	bl	30008c74 <DM9000_ior>
30008bf4:	e1a03000 	mov	r3, r0
30008bf8:	e5c43000 	strb	r3, [r4]
30008bfc:	e24bd008 	sub	sp, fp, #8	; 0x8
30008c00:	e8bd4810 	pop	{r4, fp, lr}
30008c04:	e12fff1e 	bx	lr

30008c08 <DM9000_iow>:
30008c08:	e52db004 	push	{fp}		; (str fp, [sp, #-4]!)
30008c0c:	e28db000 	add	fp, sp, #0	; 0x0
30008c10:	e24dd00c 	sub	sp, sp, #12	; 0xc
30008c14:	e59f204c 	ldr	r2, [pc, #76]	; 30008c68 <DM9000_iow+0x60>
30008c18:	e08f2002 	add	r2, pc, r2
30008c1c:	e50b0008 	str	r0, [fp, #-8]
30008c20:	e1a03001 	mov	r3, r1
30008c24:	e54b3009 	strb	r3, [fp, #-9]
30008c28:	e59f303c 	ldr	r3, [pc, #60]	; 30008c6c <DM9000_iow+0x64>
30008c2c:	e0823003 	add	r3, r2, r3
30008c30:	e5933000 	ldr	r3, [r3]
30008c34:	e1a01003 	mov	r1, r3
30008c38:	e51b3008 	ldr	r3, [fp, #-8]
30008c3c:	e20330ff 	and	r3, r3, #255	; 0xff
30008c40:	e5c13000 	strb	r3, [r1]
30008c44:	e59f3024 	ldr	r3, [pc, #36]	; 30008c70 <DM9000_iow+0x68>
30008c48:	e0823003 	add	r3, r2, r3
30008c4c:	e5933000 	ldr	r3, [r3]
30008c50:	e1a02003 	mov	r2, r3
30008c54:	e55b3009 	ldrb	r3, [fp, #-9]
30008c58:	e5c23000 	strb	r3, [r2]
30008c5c:	e28bd000 	add	sp, fp, #0	; 0x0
30008c60:	e8bd0800 	pop	{fp}
30008c64:	e12fff1e 	bx	lr
30008c68:	cfff73e0 	.word	0xcfff73e0
30008c6c:	3000cfd8 	.word	0x3000cfd8
30008c70:	3000cfdc 	.word	0x3000cfdc

30008c74 <DM9000_ior>:
30008c74:	e52db004 	push	{fp}		; (str fp, [sp, #-4]!)
30008c78:	e28db000 	add	fp, sp, #0	; 0x0
30008c7c:	e24dd00c 	sub	sp, sp, #12	; 0xc
30008c80:	e59f2044 	ldr	r2, [pc, #68]	; 30008ccc <DM9000_ior+0x58>
30008c84:	e08f2002 	add	r2, pc, r2
30008c88:	e50b0008 	str	r0, [fp, #-8]
30008c8c:	e59f303c 	ldr	r3, [pc, #60]	; 30008cd0 <DM9000_ior+0x5c>
30008c90:	e0823003 	add	r3, r2, r3
30008c94:	e5933000 	ldr	r3, [r3]
30008c98:	e1a01003 	mov	r1, r3
30008c9c:	e51b3008 	ldr	r3, [fp, #-8]
30008ca0:	e20330ff 	and	r3, r3, #255	; 0xff
30008ca4:	e5c13000 	strb	r3, [r1]
30008ca8:	e59f3024 	ldr	r3, [pc, #36]	; 30008cd4 <DM9000_ior+0x60>
30008cac:	e0823003 	add	r3, r2, r3
30008cb0:	e5933000 	ldr	r3, [r3]
30008cb4:	e5d33000 	ldrb	r3, [r3]
30008cb8:	e20330ff 	and	r3, r3, #255	; 0xff
30008cbc:	e1a00003 	mov	r0, r3
30008cc0:	e28bd000 	add	sp, fp, #0	; 0x0
30008cc4:	e8bd0800 	pop	{fp}
30008cc8:	e12fff1e 	bx	lr
30008ccc:	cfff7374 	.word	0xcfff7374
30008cd0:	3000cfd8 	.word	0x3000cfd8
30008cd4:	3000cfdc 	.word	0x3000cfdc

30008cd8 <dm9000_write_srom_word>:
30008cd8:	e92d4800 	push	{fp, lr}
30008cdc:	e28db004 	add	fp, sp, #4	; 0x4
30008ce0:	e24dd008 	sub	sp, sp, #8	; 0x8
30008ce4:	e50b0008 	str	r0, [fp, #-8]
30008ce8:	e1a03001 	mov	r3, r1
30008cec:	e14b30ba 	strh	r3, [fp, #-10]
30008cf0:	e51b3008 	ldr	r3, [fp, #-8]
30008cf4:	e20330ff 	and	r3, r3, #255	; 0xff
30008cf8:	e3a0000c 	mov	r0, #12	; 0xc
30008cfc:	e1a01003 	mov	r1, r3
30008d00:	ebffffc0 	bl	30008c08 <DM9000_iow>
30008d04:	e15b30ba 	ldrh	r3, [fp, #-10]
30008d08:	e1a03423 	lsr	r3, r3, #8
30008d0c:	e1a03803 	lsl	r3, r3, #16
30008d10:	e1a03823 	lsr	r3, r3, #16
30008d14:	e20330ff 	and	r3, r3, #255	; 0xff
30008d18:	e3a0000e 	mov	r0, #14	; 0xe
30008d1c:	e1a01003 	mov	r1, r3
30008d20:	ebffffb8 	bl	30008c08 <DM9000_iow>
30008d24:	e15b30ba 	ldrh	r3, [fp, #-10]
30008d28:	e20330ff 	and	r3, r3, #255	; 0xff
30008d2c:	e3a0000d 	mov	r0, #13	; 0xd
30008d30:	e1a01003 	mov	r1, r3
30008d34:	ebffffb3 	bl	30008c08 <DM9000_iow>
30008d38:	e3a0000b 	mov	r0, #11	; 0xb
30008d3c:	e3a01012 	mov	r1, #18	; 0x12
30008d40:	ebffffb0 	bl	30008c08 <DM9000_iow>
30008d44:	e3a00d7d 	mov	r0, #8000	; 0x1f40
30008d48:	ebfffde6 	bl	300084e8 <udelay_us>
30008d4c:	e3a0000b 	mov	r0, #11	; 0xb
30008d50:	e3a01000 	mov	r1, #0	; 0x0
30008d54:	ebffffab 	bl	30008c08 <DM9000_iow>
30008d58:	e24bd004 	sub	sp, fp, #4	; 0x4
30008d5c:	e8bd4800 	pop	{fp, lr}
30008d60:	e12fff1e 	bx	lr

30008d64 <get_dm9000_resoures>:
30008d64:	e92d4800 	push	{fp, lr}
30008d68:	e28db004 	add	fp, sp, #4	; 0x4
30008d6c:	e24dd018 	sub	sp, sp, #24	; 0x18
30008d70:	e59f13d4 	ldr	r1, [pc, #980]	; 3000914c <get_dm9000_resoures+0x3e8>
30008d74:	e50b1018 	str	r1, [fp, #-24]
30008d78:	e51b2018 	ldr	r2, [fp, #-24]
30008d7c:	e08f2002 	add	r2, pc, r2
30008d80:	e50b2018 	str	r2, [fp, #-24]
30008d84:	e3a03000 	mov	r3, #0	; 0x0
30008d88:	e50b300c 	str	r3, [fp, #-12]
30008d8c:	e59f33bc 	ldr	r3, [pc, #956]	; 30009150 <get_dm9000_resoures+0x3ec>
30008d90:	e51b1018 	ldr	r1, [fp, #-24]
30008d94:	e7913003 	ldr	r3, [r1, r3]
30008d98:	e5933000 	ldr	r3, [r3]
30008d9c:	e50b3008 	str	r3, [fp, #-8]
30008da0:	e59f33a8 	ldr	r3, [pc, #936]	; 30009150 <get_dm9000_resoures+0x3ec>
30008da4:	e51b2018 	ldr	r2, [fp, #-24]
30008da8:	e7923003 	ldr	r3, [r2, r3]
30008dac:	e5932000 	ldr	r2, [r3]
30008db0:	e59f339c 	ldr	r3, [pc, #924]	; 30009154 <get_dm9000_resoures+0x3f0>
30008db4:	e51b1018 	ldr	r1, [fp, #-24]
30008db8:	e0813003 	add	r3, r1, r3
30008dbc:	e1a00003 	mov	r0, r3
30008dc0:	e1a01002 	mov	r1, r2
30008dc4:	ebffdfca 	bl	30000cf4 <printf>
30008dc8:	ea00000d 	b	30008e04 <get_dm9000_resoures+0xa0>
30008dcc:	e51b3008 	ldr	r3, [fp, #-8]
30008dd0:	e5933000 	ldr	r3, [r3]
30008dd4:	e1a00003 	mov	r0, r3
30008dd8:	e59f3378 	ldr	r3, [pc, #888]	; 30009158 <get_dm9000_resoures+0x3f4>
30008ddc:	e51b2018 	ldr	r2, [fp, #-24]
30008de0:	e0823003 	add	r3, r2, r3
30008de4:	e1a01003 	mov	r1, r3
30008de8:	ebffe155 	bl	30001344 <strcmp>
30008dec:	e1a03000 	mov	r3, r0
30008df0:	e3530000 	cmp	r3, #0	; 0x0
30008df4:	0a000005 	beq	30008e10 <get_dm9000_resoures+0xac>
30008df8:	e51b3008 	ldr	r3, [fp, #-8]
30008dfc:	e5933010 	ldr	r3, [r3, #16]
30008e00:	e50b3008 	str	r3, [fp, #-8]
30008e04:	e51b3008 	ldr	r3, [fp, #-8]
30008e08:	e3530000 	cmp	r3, #0	; 0x0
30008e0c:	1affffee 	bne	30008dcc <get_dm9000_resoures+0x68>
30008e10:	e51b3008 	ldr	r3, [fp, #-8]
30008e14:	e3530000 	cmp	r3, #0	; 0x0
30008e18:	1a000011 	bne	30008e64 <get_dm9000_resoures+0x100>
30008e1c:	e3e03000 	mvn	r3, #0	; 0x0
30008e20:	e50b300c 	str	r3, [fp, #-12]
30008e24:	e59f3330 	ldr	r3, [pc, #816]	; 3000915c <get_dm9000_resoures+0x3f8>
30008e28:	e51b1018 	ldr	r1, [fp, #-24]
30008e2c:	e0813003 	add	r3, r1, r3
30008e30:	e1a00003 	mov	r0, r3
30008e34:	e59f3324 	ldr	r3, [pc, #804]	; 30009160 <get_dm9000_resoures+0x3fc>
30008e38:	e51b2018 	ldr	r2, [fp, #-24]
30008e3c:	e0823003 	add	r3, r2, r3
30008e40:	e1a01003 	mov	r1, r3
30008e44:	e59f3318 	ldr	r3, [pc, #792]	; 30009164 <get_dm9000_resoures+0x400>
30008e48:	e51b2018 	ldr	r2, [fp, #-24]
30008e4c:	e0823003 	add	r3, r2, r3
30008e50:	e1a02003 	mov	r2, r3
30008e54:	e3a03f6b 	mov	r3, #428	; 0x1ac
30008e58:	e2833003 	add	r3, r3, #3	; 0x3
30008e5c:	ebffdfa4 	bl	30000cf4 <printf>
30008e60:	ea0000a5 	b	300090fc <get_dm9000_resoures+0x398>
30008e64:	e51b3008 	ldr	r3, [fp, #-8]
30008e68:	e5933008 	ldr	r3, [r3, #8]
30008e6c:	e50b3010 	str	r3, [fp, #-16]
30008e70:	e51b3010 	ldr	r3, [fp, #-16]
30008e74:	e3530000 	cmp	r3, #0	; 0x0
30008e78:	ca000002 	bgt	30008e88 <get_dm9000_resoures+0x124>
30008e7c:	e3e03000 	mvn	r3, #0	; 0x0
30008e80:	e50b300c 	str	r3, [fp, #-12]
30008e84:	ea00009c 	b	300090fc <get_dm9000_resoures+0x398>
30008e88:	e59f32cc 	ldr	r3, [pc, #716]	; 3000915c <get_dm9000_resoures+0x3f8>
30008e8c:	e51b1018 	ldr	r1, [fp, #-24]
30008e90:	e0813003 	add	r3, r1, r3
30008e94:	e1a00003 	mov	r0, r3
30008e98:	e59f32c0 	ldr	r3, [pc, #704]	; 30009160 <get_dm9000_resoures+0x3fc>
30008e9c:	e51b2018 	ldr	r2, [fp, #-24]
30008ea0:	e0823003 	add	r3, r2, r3
30008ea4:	e1a01003 	mov	r1, r3
30008ea8:	e59f32b4 	ldr	r3, [pc, #692]	; 30009164 <get_dm9000_resoures+0x400>
30008eac:	e51b2018 	ldr	r2, [fp, #-24]
30008eb0:	e0823003 	add	r3, r2, r3
30008eb4:	e1a02003 	mov	r2, r3
30008eb8:	e3a03f6e 	mov	r3, #440	; 0x1b8
30008ebc:	e2833001 	add	r3, r3, #1	; 0x1
30008ec0:	ebffdf8b 	bl	30000cf4 <printf>
30008ec4:	e3a03000 	mov	r3, #0	; 0x0
30008ec8:	e50b3014 	str	r3, [fp, #-20]
30008ecc:	ea000065 	b	30009068 <get_dm9000_resoures+0x304>
30008ed0:	e51b3014 	ldr	r3, [fp, #-20]
30008ed4:	e3530000 	cmp	r3, #0	; 0x0
30008ed8:	1a000019 	bne	30008f44 <get_dm9000_resoures+0x1e0>
30008edc:	e51b3008 	ldr	r3, [fp, #-8]
30008ee0:	e593100c 	ldr	r1, [r3, #12]
30008ee4:	e51b2014 	ldr	r2, [fp, #-20]
30008ee8:	e1a03002 	mov	r3, r2
30008eec:	e1a03183 	lsl	r3, r3, #3
30008ef0:	e0623003 	rsb	r3, r2, r3
30008ef4:	e1a03103 	lsl	r3, r3, #2
30008ef8:	e0813003 	add	r3, r1, r3
30008efc:	e593300c 	ldr	r3, [r3, #12]
30008f00:	e3530c02 	cmp	r3, #512	; 0x200
30008f04:	1a00000e 	bne	30008f44 <get_dm9000_resoures+0x1e0>
30008f08:	e51b3008 	ldr	r3, [fp, #-8]
30008f0c:	e593100c 	ldr	r1, [r3, #12]
30008f10:	e51b2014 	ldr	r2, [fp, #-20]
30008f14:	e1a03002 	mov	r3, r2
30008f18:	e1a03183 	lsl	r3, r3, #3
30008f1c:	e0623003 	rsb	r3, r2, r3
30008f20:	e1a03103 	lsl	r3, r3, #2
30008f24:	e0813003 	add	r3, r1, r3
30008f28:	e5933000 	ldr	r3, [r3]
30008f2c:	e1a02003 	mov	r2, r3
30008f30:	e59f3230 	ldr	r3, [pc, #560]	; 30009168 <get_dm9000_resoures+0x404>
30008f34:	e51b1018 	ldr	r1, [fp, #-24]
30008f38:	e0813003 	add	r3, r1, r3
30008f3c:	e58320c0 	str	r2, [r3, #192]
30008f40:	ea000027 	b	30008fe4 <get_dm9000_resoures+0x280>
30008f44:	e51b3008 	ldr	r3, [fp, #-8]
30008f48:	e593100c 	ldr	r1, [r3, #12]
30008f4c:	e51b2014 	ldr	r2, [fp, #-20]
30008f50:	e1a03002 	mov	r3, r2
30008f54:	e1a03183 	lsl	r3, r3, #3
30008f58:	e0623003 	rsb	r3, r2, r3
30008f5c:	e1a03103 	lsl	r3, r3, #2
30008f60:	e0813003 	add	r3, r1, r3
30008f64:	e593300c 	ldr	r3, [r3, #12]
30008f68:	e2033b01 	and	r3, r3, #1024	; 0x400
30008f6c:	e3530000 	cmp	r3, #0	; 0x0
30008f70:	0a00001b 	beq	30008fe4 <get_dm9000_resoures+0x280>
30008f74:	e51b3008 	ldr	r3, [fp, #-8]
30008f78:	e593100c 	ldr	r1, [r3, #12]
30008f7c:	e51b2014 	ldr	r2, [fp, #-20]
30008f80:	e1a03002 	mov	r3, r2
30008f84:	e1a03183 	lsl	r3, r3, #3
30008f88:	e0623003 	rsb	r3, r2, r3
30008f8c:	e1a03103 	lsl	r3, r3, #2
30008f90:	e0813003 	add	r3, r1, r3
30008f94:	e5933000 	ldr	r3, [r3]
30008f98:	e1a02003 	mov	r2, r3
30008f9c:	e59f31c4 	ldr	r3, [pc, #452]	; 30009168 <get_dm9000_resoures+0x404>
30008fa0:	e51b1018 	ldr	r1, [fp, #-24]
30008fa4:	e0813003 	add	r3, r1, r3
30008fa8:	e58320c4 	str	r2, [r3, #196]
30008fac:	e51b3008 	ldr	r3, [fp, #-8]
30008fb0:	e593100c 	ldr	r1, [r3, #12]
30008fb4:	e51b2014 	ldr	r2, [fp, #-20]
30008fb8:	e1a03002 	mov	r3, r2
30008fbc:	e1a03183 	lsl	r3, r3, #3
30008fc0:	e0623003 	rsb	r3, r2, r3
30008fc4:	e1a03103 	lsl	r3, r3, #2
30008fc8:	e0813003 	add	r3, r1, r3
30008fcc:	e593300c 	ldr	r3, [r3, #12]
30008fd0:	e1a02003 	mov	r2, r3
30008fd4:	e59f318c 	ldr	r3, [pc, #396]	; 30009168 <get_dm9000_resoures+0x404>
30008fd8:	e51b1018 	ldr	r1, [fp, #-24]
30008fdc:	e0813003 	add	r3, r1, r3
30008fe0:	e58320c8 	str	r2, [r3, #200]
30008fe4:	e51b3008 	ldr	r3, [fp, #-8]
30008fe8:	e593100c 	ldr	r1, [r3, #12]
30008fec:	e51b2014 	ldr	r2, [fp, #-20]
30008ff0:	e1a03002 	mov	r3, r2
30008ff4:	e1a03183 	lsl	r3, r3, #3
30008ff8:	e0623003 	rsb	r3, r2, r3
30008ffc:	e1a03103 	lsl	r3, r3, #2
30009000:	e0813003 	add	r3, r1, r3
30009004:	e5932000 	ldr	r2, [r3]
30009008:	e59f315c 	ldr	r3, [pc, #348]	; 3000916c <get_dm9000_resoures+0x408>
3000900c:	e51b1018 	ldr	r1, [fp, #-24]
30009010:	e0813003 	add	r3, r1, r3
30009014:	e1a00003 	mov	r0, r3
30009018:	e1a01002 	mov	r1, r2
3000901c:	ebffdf34 	bl	30000cf4 <printf>
30009020:	e51b3008 	ldr	r3, [fp, #-8]
30009024:	e593100c 	ldr	r1, [r3, #12]
30009028:	e51b2014 	ldr	r2, [fp, #-20]
3000902c:	e1a03002 	mov	r3, r2
30009030:	e1a03183 	lsl	r3, r3, #3
30009034:	e0623003 	rsb	r3, r2, r3
30009038:	e1a03103 	lsl	r3, r3, #2
3000903c:	e0813003 	add	r3, r1, r3
30009040:	e593200c 	ldr	r2, [r3, #12]
30009044:	e59f3124 	ldr	r3, [pc, #292]	; 30009170 <get_dm9000_resoures+0x40c>
30009048:	e51b1018 	ldr	r1, [fp, #-24]
3000904c:	e0813003 	add	r3, r1, r3
30009050:	e1a00003 	mov	r0, r3
30009054:	e1a01002 	mov	r1, r2
30009058:	ebffdf25 	bl	30000cf4 <printf>
3000905c:	e51b3014 	ldr	r3, [fp, #-20]
30009060:	e2833001 	add	r3, r3, #1	; 0x1
30009064:	e50b3014 	str	r3, [fp, #-20]
30009068:	e51b2014 	ldr	r2, [fp, #-20]
3000906c:	e51b3010 	ldr	r3, [fp, #-16]
30009070:	e1520003 	cmp	r2, r3
30009074:	baffff95 	blt	30008ed0 <get_dm9000_resoures+0x16c>
30009078:	e51b3008 	ldr	r3, [fp, #-8]
3000907c:	e5932014 	ldr	r2, [r3, #20]
30009080:	e59f30e0 	ldr	r3, [pc, #224]	; 30009168 <get_dm9000_resoures+0x404>
30009084:	e51b1018 	ldr	r1, [fp, #-24]
30009088:	e0813003 	add	r3, r1, r3
3000908c:	e58320ec 	str	r2, [r3, #236]
30009090:	e51b3008 	ldr	r3, [fp, #-8]
30009094:	e5932000 	ldr	r2, [r3]
30009098:	e59f30c8 	ldr	r3, [pc, #200]	; 30009168 <get_dm9000_resoures+0x404>
3000909c:	e51b1018 	ldr	r1, [fp, #-24]
300090a0:	e0813003 	add	r3, r1, r3
300090a4:	e28300a8 	add	r0, r3, #168	; 0xa8
300090a8:	e3a01010 	mov	r1, #16	; 0x10
300090ac:	ebffe9d3 	bl	30003800 <snprintf>
300090b0:	e59f30b0 	ldr	r3, [pc, #176]	; 30009168 <get_dm9000_resoures+0x404>
300090b4:	e51b2018 	ldr	r2, [fp, #-24]
300090b8:	e0823003 	add	r3, r2, r3
300090bc:	e59330c0 	ldr	r3, [r3, #192]
300090c0:	e1a02003 	mov	r2, r3
300090c4:	e59f30a8 	ldr	r3, [pc, #168]	; 30009174 <get_dm9000_resoures+0x410>
300090c8:	e51b1018 	ldr	r1, [fp, #-24]
300090cc:	e0813003 	add	r3, r1, r3
300090d0:	e5832000 	str	r2, [r3]
300090d4:	e59f308c 	ldr	r3, [pc, #140]	; 30009168 <get_dm9000_resoures+0x404>
300090d8:	e51b2018 	ldr	r2, [fp, #-24]
300090dc:	e0823003 	add	r3, r2, r3
300090e0:	e59330c0 	ldr	r3, [r3, #192]
300090e4:	e2833004 	add	r3, r3, #4	; 0x4
300090e8:	e1a02003 	mov	r2, r3
300090ec:	e59f3084 	ldr	r3, [pc, #132]	; 30009178 <get_dm9000_resoures+0x414>
300090f0:	e51b1018 	ldr	r1, [fp, #-24]
300090f4:	e0813003 	add	r3, r1, r3
300090f8:	e5832000 	str	r2, [r3]
300090fc:	e59f3058 	ldr	r3, [pc, #88]	; 3000915c <get_dm9000_resoures+0x3f8>
30009100:	e51b2018 	ldr	r2, [fp, #-24]
30009104:	e0823003 	add	r3, r2, r3
30009108:	e1a00003 	mov	r0, r3
3000910c:	e59f304c 	ldr	r3, [pc, #76]	; 30009160 <get_dm9000_resoures+0x3fc>
30009110:	e51b1018 	ldr	r1, [fp, #-24]
30009114:	e0813003 	add	r3, r1, r3
30009118:	e1a01003 	mov	r1, r3
3000911c:	e59f3040 	ldr	r3, [pc, #64]	; 30009164 <get_dm9000_resoures+0x400>
30009120:	e51b2018 	ldr	r2, [fp, #-24]
30009124:	e0823003 	add	r3, r2, r3
30009128:	e1a02003 	mov	r2, r3
3000912c:	e3a03f73 	mov	r3, #460	; 0x1cc
30009130:	e2833002 	add	r3, r3, #2	; 0x2
30009134:	ebffdeee 	bl	30000cf4 <printf>
30009138:	e51b300c 	ldr	r3, [fp, #-12]
3000913c:	e1a00003 	mov	r0, r3
30009140:	e24bd004 	sub	sp, fp, #4	; 0x4
30009144:	e8bd4800 	pop	{fp, lr}
30009148:	e12fff1e 	bx	lr
3000914c:	cfff727c 	.word	0xcfff727c
30009150:	00000594 	.word	0x00000594
30009154:	3000c5ec 	.word	0x3000c5ec
30009158:	3000c608 	.word	0x3000c608
3000915c:	3000c610 	.word	0x3000c610
30009160:	3000c61c 	.word	0x3000c61c
30009164:	3000c5d8 	.word	0x3000c5d8
30009168:	3000d9c8 	.word	0x3000d9c8
3000916c:	3000c628 	.word	0x3000c628
30009170:	3000c648 	.word	0x3000c648
30009174:	3000cfd8 	.word	0x3000cfd8
30009178:	3000cfdc 	.word	0x3000cfdc

3000917c <dm9000_get_enetaddr>:
3000917c:	e92d4800 	push	{fp, lr}
30009180:	e28db004 	add	fp, sp, #4	; 0x4
30009184:	e24dd010 	sub	sp, sp, #16	; 0x10
30009188:	e50b0010 	str	r0, [fp, #-16]
3000918c:	e3a03000 	mov	r3, #0	; 0x0
30009190:	e50b3008 	str	r3, [fp, #-8]
30009194:	ea00000a 	b	300091c4 <dm9000_get_enetaddr+0x48>
30009198:	e51b3010 	ldr	r3, [fp, #-16]
3000919c:	e2832010 	add	r2, r3, #16	; 0x10
300091a0:	e51b3008 	ldr	r3, [fp, #-8]
300091a4:	e1a03083 	lsl	r3, r3, #1
300091a8:	e0823003 	add	r3, r2, r3
300091ac:	e51b0008 	ldr	r0, [fp, #-8]
300091b0:	e1a01003 	mov	r1, r3
300091b4:	ebfffe73 	bl	30008b88 <dm9000_read_srom_word>
300091b8:	e51b3008 	ldr	r3, [fp, #-8]
300091bc:	e2833001 	add	r3, r3, #1	; 0x1
300091c0:	e50b3008 	str	r3, [fp, #-8]
300091c4:	e51b3008 	ldr	r3, [fp, #-8]
300091c8:	e3530002 	cmp	r3, #2	; 0x2
300091cc:	dafffff1 	ble	30009198 <dm9000_get_enetaddr+0x1c>
300091d0:	e24bd004 	sub	sp, fp, #4	; 0x4
300091d4:	e8bd4800 	pop	{fp, lr}
300091d8:	e12fff1e 	bx	lr

300091dc <test_dm9000_ID>:
300091dc:	e92d4810 	push	{r4, fp, lr}
300091e0:	e28db008 	add	fp, sp, #8	; 0x8
300091e4:	e24dd00c 	sub	sp, sp, #12	; 0xc
300091e8:	e59f41ac 	ldr	r4, [pc, #428]	; 3000939c <test_dm9000_ID+0x1c0>
300091ec:	e08f4004 	add	r4, pc, r4
300091f0:	e3a03000 	mov	r3, #0	; 0x0
300091f4:	e14b31b0 	strh	r3, [fp, #-16]
300091f8:	e3a03000 	mov	r3, #0	; 0x0
300091fc:	e14b30be 	strh	r3, [fp, #-14]
30009200:	e59f3198 	ldr	r3, [pc, #408]	; 300093a0 <test_dm9000_ID+0x1c4>
30009204:	e0843003 	add	r3, r4, r3
30009208:	e1a00003 	mov	r0, r3
3000920c:	ebffdeb8 	bl	30000cf4 <printf>
30009210:	e3a00028 	mov	r0, #40	; 0x28
30009214:	ebfffe96 	bl	30008c74 <DM9000_ior>
30009218:	e1a03000 	mov	r3, r0
3000921c:	e14b31b0 	strh	r3, [fp, #-16]
30009220:	e3a00029 	mov	r0, #41	; 0x29
30009224:	ebfffe92 	bl	30008c74 <DM9000_ior>
30009228:	e1a03000 	mov	r3, r0
3000922c:	e1a03403 	lsl	r3, r3, #8
30009230:	e1a03803 	lsl	r3, r3, #16
30009234:	e1a03823 	lsr	r3, r3, #16
30009238:	e15b21b0 	ldrh	r2, [fp, #-16]
3000923c:	e1a01003 	mov	r1, r3
30009240:	e1a03002 	mov	r3, r2
30009244:	e1813003 	orr	r3, r1, r3
30009248:	e1a03803 	lsl	r3, r3, #16
3000924c:	e1a03823 	lsr	r3, r3, #16
30009250:	e14b31b0 	strh	r3, [fp, #-16]
30009254:	e3a0002a 	mov	r0, #42	; 0x2a
30009258:	ebfffe85 	bl	30008c74 <DM9000_ior>
3000925c:	e1a03000 	mov	r3, r0
30009260:	e14b30be 	strh	r3, [fp, #-14]
30009264:	e3a0002b 	mov	r0, #43	; 0x2b
30009268:	ebfffe81 	bl	30008c74 <DM9000_ior>
3000926c:	e1a03000 	mov	r3, r0
30009270:	e1a03403 	lsl	r3, r3, #8
30009274:	e1a03803 	lsl	r3, r3, #16
30009278:	e1a03823 	lsr	r3, r3, #16
3000927c:	e15b20be 	ldrh	r2, [fp, #-14]
30009280:	e1a01003 	mov	r1, r3
30009284:	e1a03002 	mov	r3, r2
30009288:	e1813003 	orr	r3, r1, r3
3000928c:	e1a03803 	lsl	r3, r3, #16
30009290:	e1a03823 	lsr	r3, r3, #16
30009294:	e14b30be 	strh	r3, [fp, #-14]
30009298:	e15b21b0 	ldrh	r2, [fp, #-16]
3000929c:	e15bc0be 	ldrh	ip, [fp, #-14]
300092a0:	e59f30fc 	ldr	r3, [pc, #252]	; 300093a4 <test_dm9000_ID+0x1c8>
300092a4:	e0843003 	add	r3, r4, r3
300092a8:	e1a00003 	mov	r0, r3
300092ac:	e1a01002 	mov	r1, r2
300092b0:	e1a0200c 	mov	r2, ip
300092b4:	ebffde8e 	bl	30000cf4 <printf>
300092b8:	e3a00010 	mov	r0, #16	; 0x10
300092bc:	ebfffe6c 	bl	30008c74 <DM9000_ior>
300092c0:	e1a03000 	mov	r3, r0
300092c4:	e1a02003 	mov	r2, r3
300092c8:	e59f30d8 	ldr	r3, [pc, #216]	; 300093a8 <test_dm9000_ID+0x1cc>
300092cc:	e0843003 	add	r3, r4, r3
300092d0:	e1a00003 	mov	r0, r3
300092d4:	e1a01002 	mov	r1, r2
300092d8:	ebffde85 	bl	30000cf4 <printf>
300092dc:	e3a00011 	mov	r0, #17	; 0x11
300092e0:	ebfffe63 	bl	30008c74 <DM9000_ior>
300092e4:	e1a03000 	mov	r3, r0
300092e8:	e1a02003 	mov	r2, r3
300092ec:	e59f30b8 	ldr	r3, [pc, #184]	; 300093ac <test_dm9000_ID+0x1d0>
300092f0:	e0843003 	add	r3, r4, r3
300092f4:	e1a00003 	mov	r0, r3
300092f8:	e1a01002 	mov	r1, r2
300092fc:	ebffde7c 	bl	30000cf4 <printf>
30009300:	e3a00012 	mov	r0, #18	; 0x12
30009304:	ebfffe5a 	bl	30008c74 <DM9000_ior>
30009308:	e1a03000 	mov	r3, r0
3000930c:	e1a02003 	mov	r2, r3
30009310:	e59f3094 	ldr	r3, [pc, #148]	; 300093ac <test_dm9000_ID+0x1d0>
30009314:	e0843003 	add	r3, r4, r3
30009318:	e1a00003 	mov	r0, r3
3000931c:	e1a01002 	mov	r1, r2
30009320:	ebffde73 	bl	30000cf4 <printf>
30009324:	e3a00013 	mov	r0, #19	; 0x13
30009328:	ebfffe51 	bl	30008c74 <DM9000_ior>
3000932c:	e1a03000 	mov	r3, r0
30009330:	e1a02003 	mov	r2, r3
30009334:	e59f3070 	ldr	r3, [pc, #112]	; 300093ac <test_dm9000_ID+0x1d0>
30009338:	e0843003 	add	r3, r4, r3
3000933c:	e1a00003 	mov	r0, r3
30009340:	e1a01002 	mov	r1, r2
30009344:	ebffde6a 	bl	30000cf4 <printf>
30009348:	e3a00014 	mov	r0, #20	; 0x14
3000934c:	ebfffe48 	bl	30008c74 <DM9000_ior>
30009350:	e1a03000 	mov	r3, r0
30009354:	e1a02003 	mov	r2, r3
30009358:	e59f304c 	ldr	r3, [pc, #76]	; 300093ac <test_dm9000_ID+0x1d0>
3000935c:	e0843003 	add	r3, r4, r3
30009360:	e1a00003 	mov	r0, r3
30009364:	e1a01002 	mov	r1, r2
30009368:	ebffde61 	bl	30000cf4 <printf>
3000936c:	e3a00015 	mov	r0, #21	; 0x15
30009370:	ebfffe3f 	bl	30008c74 <DM9000_ior>
30009374:	e1a03000 	mov	r3, r0
30009378:	e1a02003 	mov	r2, r3
3000937c:	e59f302c 	ldr	r3, [pc, #44]	; 300093b0 <test_dm9000_ID+0x1d4>
30009380:	e0843003 	add	r3, r4, r3
30009384:	e1a00003 	mov	r0, r3
30009388:	e1a01002 	mov	r1, r2
3000938c:	ebffde58 	bl	30000cf4 <printf>
30009390:	e24bd008 	sub	sp, fp, #8	; 0x8
30009394:	e8bd4810 	pop	{r4, fp, lr}
30009398:	e12fff1e 	bx	lr
3000939c:	cfff6e0c 	.word	0xcfff6e0c
300093a0:	3000c668 	.word	0x3000c668
300093a4:	3000c690 	.word	0x3000c690
300093a8:	3000c6a8 	.word	0x3000c6a8
300093ac:	3000c6b4 	.word	0x3000c6b4
300093b0:	3000c6b8 	.word	0x3000c6b8

300093b4 <dm9000_regs>:
300093b4:	e92d4830 	push	{r4, r5, fp, lr}
300093b8:	e28db00c 	add	fp, sp, #12	; 0xc
300093bc:	e59f4300 	ldr	r4, [pc, #768]	; 300096c4 <dm9000_regs+0x310>
300093c0:	e08f4004 	add	r4, pc, r4
300093c4:	e3a00000 	mov	r0, #0	; 0x0
300093c8:	ebfffe29 	bl	30008c74 <DM9000_ior>
300093cc:	e1a03000 	mov	r3, r0
300093d0:	e1a02003 	mov	r2, r3
300093d4:	e59f32ec 	ldr	r3, [pc, #748]	; 300096c8 <dm9000_regs+0x314>
300093d8:	e0843003 	add	r3, r4, r3
300093dc:	e1a00003 	mov	r0, r3
300093e0:	e1a01002 	mov	r1, r2
300093e4:	ebffde42 	bl	30000cf4 <printf>
300093e8:	e3a00001 	mov	r0, #1	; 0x1
300093ec:	ebfffe20 	bl	30008c74 <DM9000_ior>
300093f0:	e1a03000 	mov	r3, r0
300093f4:	e1a02003 	mov	r2, r3
300093f8:	e59f32cc 	ldr	r3, [pc, #716]	; 300096cc <dm9000_regs+0x318>
300093fc:	e0843003 	add	r3, r4, r3
30009400:	e1a00003 	mov	r0, r3
30009404:	e1a01002 	mov	r1, r2
30009408:	ebffde39 	bl	30000cf4 <printf>
3000940c:	e3a00002 	mov	r0, #2	; 0x2
30009410:	ebfffe17 	bl	30008c74 <DM9000_ior>
30009414:	e1a03000 	mov	r3, r0
30009418:	e1a02003 	mov	r2, r3
3000941c:	e59f32ac 	ldr	r3, [pc, #684]	; 300096d0 <dm9000_regs+0x31c>
30009420:	e0843003 	add	r3, r4, r3
30009424:	e1a00003 	mov	r0, r3
30009428:	e1a01002 	mov	r1, r2
3000942c:	ebffde30 	bl	30000cf4 <printf>
30009430:	e3a00003 	mov	r0, #3	; 0x3
30009434:	ebfffe0e 	bl	30008c74 <DM9000_ior>
30009438:	e1a03000 	mov	r3, r0
3000943c:	e1a02003 	mov	r2, r3
30009440:	e59f328c 	ldr	r3, [pc, #652]	; 300096d4 <dm9000_regs+0x320>
30009444:	e0843003 	add	r3, r4, r3
30009448:	e1a00003 	mov	r0, r3
3000944c:	e1a01002 	mov	r1, r2
30009450:	ebffde27 	bl	30000cf4 <printf>
30009454:	e3a00004 	mov	r0, #4	; 0x4
30009458:	ebfffe05 	bl	30008c74 <DM9000_ior>
3000945c:	e1a03000 	mov	r3, r0
30009460:	e1a02003 	mov	r2, r3
30009464:	e59f326c 	ldr	r3, [pc, #620]	; 300096d8 <dm9000_regs+0x324>
30009468:	e0843003 	add	r3, r4, r3
3000946c:	e1a00003 	mov	r0, r3
30009470:	e1a01002 	mov	r1, r2
30009474:	ebffde1e 	bl	30000cf4 <printf>
30009478:	e3a00005 	mov	r0, #5	; 0x5
3000947c:	ebfffdfc 	bl	30008c74 <DM9000_ior>
30009480:	e1a03000 	mov	r3, r0
30009484:	e1a02003 	mov	r2, r3
30009488:	e59f324c 	ldr	r3, [pc, #588]	; 300096dc <dm9000_regs+0x328>
3000948c:	e0843003 	add	r3, r4, r3
30009490:	e1a00003 	mov	r0, r3
30009494:	e1a01002 	mov	r1, r2
30009498:	ebffde15 	bl	30000cf4 <printf>
3000949c:	e3a00006 	mov	r0, #6	; 0x6
300094a0:	ebfffdf3 	bl	30008c74 <DM9000_ior>
300094a4:	e1a03000 	mov	r3, r0
300094a8:	e1a02003 	mov	r2, r3
300094ac:	e59f322c 	ldr	r3, [pc, #556]	; 300096e0 <dm9000_regs+0x32c>
300094b0:	e0843003 	add	r3, r4, r3
300094b4:	e1a00003 	mov	r0, r3
300094b8:	e1a01002 	mov	r1, r2
300094bc:	ebffde0c 	bl	30000cf4 <printf>
300094c0:	e3a00007 	mov	r0, #7	; 0x7
300094c4:	ebfffdea 	bl	30008c74 <DM9000_ior>
300094c8:	e1a03000 	mov	r3, r0
300094cc:	e1a02003 	mov	r2, r3
300094d0:	e59f320c 	ldr	r3, [pc, #524]	; 300096e4 <dm9000_regs+0x330>
300094d4:	e0843003 	add	r3, r4, r3
300094d8:	e1a00003 	mov	r0, r3
300094dc:	e1a01002 	mov	r1, r2
300094e0:	ebffde03 	bl	30000cf4 <printf>
300094e4:	e3a00008 	mov	r0, #8	; 0x8
300094e8:	ebfffde1 	bl	30008c74 <DM9000_ior>
300094ec:	e1a03000 	mov	r3, r0
300094f0:	e1a02003 	mov	r2, r3
300094f4:	e59f31ec 	ldr	r3, [pc, #492]	; 300096e8 <dm9000_regs+0x334>
300094f8:	e0843003 	add	r3, r4, r3
300094fc:	e1a00003 	mov	r0, r3
30009500:	e1a01002 	mov	r1, r2
30009504:	ebffddfa 	bl	30000cf4 <printf>
30009508:	e3a00009 	mov	r0, #9	; 0x9
3000950c:	ebfffdd8 	bl	30008c74 <DM9000_ior>
30009510:	e1a03000 	mov	r3, r0
30009514:	e1a02003 	mov	r2, r3
30009518:	e59f31cc 	ldr	r3, [pc, #460]	; 300096ec <dm9000_regs+0x338>
3000951c:	e0843003 	add	r3, r4, r3
30009520:	e1a00003 	mov	r0, r3
30009524:	e1a01002 	mov	r1, r2
30009528:	ebffddf1 	bl	30000cf4 <printf>
3000952c:	e3a0000a 	mov	r0, #10	; 0xa
30009530:	ebfffdcf 	bl	30008c74 <DM9000_ior>
30009534:	e1a03000 	mov	r3, r0
30009538:	e1a02003 	mov	r2, r3
3000953c:	e59f31ac 	ldr	r3, [pc, #428]	; 300096f0 <dm9000_regs+0x33c>
30009540:	e0843003 	add	r3, r4, r3
30009544:	e1a00003 	mov	r0, r3
30009548:	e1a01002 	mov	r1, r2
3000954c:	ebffdde8 	bl	30000cf4 <printf>
30009550:	e3a0000b 	mov	r0, #11	; 0xb
30009554:	ebfffdc6 	bl	30008c74 <DM9000_ior>
30009558:	e1a03000 	mov	r3, r0
3000955c:	e1a02003 	mov	r2, r3
30009560:	e59f318c 	ldr	r3, [pc, #396]	; 300096f4 <dm9000_regs+0x340>
30009564:	e0843003 	add	r3, r4, r3
30009568:	e1a00003 	mov	r0, r3
3000956c:	e1a01002 	mov	r1, r2
30009570:	ebffdddf 	bl	30000cf4 <printf>
30009574:	e3a0000c 	mov	r0, #12	; 0xc
30009578:	ebfffdbd 	bl	30008c74 <DM9000_ior>
3000957c:	e1a03000 	mov	r3, r0
30009580:	e1a02003 	mov	r2, r3
30009584:	e59f316c 	ldr	r3, [pc, #364]	; 300096f8 <dm9000_regs+0x344>
30009588:	e0843003 	add	r3, r4, r3
3000958c:	e1a00003 	mov	r0, r3
30009590:	e1a01002 	mov	r1, r2
30009594:	ebffddd6 	bl	30000cf4 <printf>
30009598:	e3a0000d 	mov	r0, #13	; 0xd
3000959c:	ebfffdb4 	bl	30008c74 <DM9000_ior>
300095a0:	e1a03000 	mov	r3, r0
300095a4:	e1a02003 	mov	r2, r3
300095a8:	e59f314c 	ldr	r3, [pc, #332]	; 300096fc <dm9000_regs+0x348>
300095ac:	e0843003 	add	r3, r4, r3
300095b0:	e1a00003 	mov	r0, r3
300095b4:	e1a01002 	mov	r1, r2
300095b8:	ebffddcd 	bl	30000cf4 <printf>
300095bc:	e3a0000e 	mov	r0, #14	; 0xe
300095c0:	ebfffdab 	bl	30008c74 <DM9000_ior>
300095c4:	e1a03000 	mov	r3, r0
300095c8:	e1a02003 	mov	r2, r3
300095cc:	e59f312c 	ldr	r3, [pc, #300]	; 30009700 <dm9000_regs+0x34c>
300095d0:	e0843003 	add	r3, r4, r3
300095d4:	e1a00003 	mov	r0, r3
300095d8:	e1a01002 	mov	r1, r2
300095dc:	ebffddc4 	bl	30000cf4 <printf>
300095e0:	e3a0000f 	mov	r0, #15	; 0xf
300095e4:	ebfffda2 	bl	30008c74 <DM9000_ior>
300095e8:	e1a03000 	mov	r3, r0
300095ec:	e1a02003 	mov	r2, r3
300095f0:	e59f310c 	ldr	r3, [pc, #268]	; 30009704 <dm9000_regs+0x350>
300095f4:	e0843003 	add	r3, r4, r3
300095f8:	e1a00003 	mov	r0, r3
300095fc:	e1a01002 	mov	r1, r2
30009600:	ebffddbb 	bl	30000cf4 <printf>
30009604:	e3a0001e 	mov	r0, #30	; 0x1e
30009608:	ebfffd99 	bl	30008c74 <DM9000_ior>
3000960c:	e1a03000 	mov	r3, r0
30009610:	e1a02003 	mov	r2, r3
30009614:	e59f30ec 	ldr	r3, [pc, #236]	; 30009708 <dm9000_regs+0x354>
30009618:	e0843003 	add	r3, r4, r3
3000961c:	e1a00003 	mov	r0, r3
30009620:	e1a01002 	mov	r1, r2
30009624:	ebffddb2 	bl	30000cf4 <printf>
30009628:	e3a0001f 	mov	r0, #31	; 0x1f
3000962c:	ebfffd90 	bl	30008c74 <DM9000_ior>
30009630:	e1a03000 	mov	r3, r0
30009634:	e1a02003 	mov	r2, r3
30009638:	e59f30cc 	ldr	r3, [pc, #204]	; 3000970c <dm9000_regs+0x358>
3000963c:	e0843003 	add	r3, r4, r3
30009640:	e1a00003 	mov	r0, r3
30009644:	e1a01002 	mov	r1, r2
30009648:	ebffdda9 	bl	30000cf4 <printf>
3000964c:	e3a0002f 	mov	r0, #47	; 0x2f
30009650:	ebfffd87 	bl	30008c74 <DM9000_ior>
30009654:	e1a03000 	mov	r3, r0
30009658:	e1a02003 	mov	r2, r3
3000965c:	e59f30ac 	ldr	r3, [pc, #172]	; 30009710 <dm9000_regs+0x35c>
30009660:	e0843003 	add	r3, r4, r3
30009664:	e1a00003 	mov	r0, r3
30009668:	e1a01002 	mov	r1, r2
3000966c:	ebffdda0 	bl	30000cf4 <printf>
30009670:	e3a000fe 	mov	r0, #254	; 0xfe
30009674:	ebfffd7e 	bl	30008c74 <DM9000_ior>
30009678:	e1a03000 	mov	r3, r0
3000967c:	e1a02003 	mov	r2, r3
30009680:	e59f308c 	ldr	r3, [pc, #140]	; 30009714 <dm9000_regs+0x360>
30009684:	e0843003 	add	r3, r4, r3
30009688:	e1a00003 	mov	r0, r3
3000968c:	e1a01002 	mov	r1, r2
30009690:	ebffdd97 	bl	30000cf4 <printf>
30009694:	e3a000ff 	mov	r0, #255	; 0xff
30009698:	ebfffd75 	bl	30008c74 <DM9000_ior>
3000969c:	e1a03000 	mov	r3, r0
300096a0:	e1a02003 	mov	r2, r3
300096a4:	e59f306c 	ldr	r3, [pc, #108]	; 30009718 <dm9000_regs+0x364>
300096a8:	e0843003 	add	r3, r4, r3
300096ac:	e1a00003 	mov	r0, r3
300096b0:	e1a01002 	mov	r1, r2
300096b4:	ebffdd8e 	bl	30000cf4 <printf>
300096b8:	e24bd00c 	sub	sp, fp, #12	; 0xc
300096bc:	e8bd4830 	pop	{r4, r5, fp, lr}
300096c0:	e12fff1e 	bx	lr
300096c4:	cfff6c38 	.word	0xcfff6c38
300096c8:	3000c6c0 	.word	0x3000c6c0
300096cc:	3000c6cc 	.word	0x3000c6cc
300096d0:	3000c6d8 	.word	0x3000c6d8
300096d4:	3000c6e4 	.word	0x3000c6e4
300096d8:	3000c6f0 	.word	0x3000c6f0
300096dc:	3000c6fc 	.word	0x3000c6fc
300096e0:	3000c708 	.word	0x3000c708
300096e4:	3000c714 	.word	0x3000c714
300096e8:	3000c720 	.word	0x3000c720
300096ec:	3000c72c 	.word	0x3000c72c
300096f0:	3000c738 	.word	0x3000c738
300096f4:	3000c748 	.word	0x3000c748
300096f8:	3000c754 	.word	0x3000c754
300096fc:	3000c760 	.word	0x3000c760
30009700:	3000c770 	.word	0x3000c770
30009704:	3000c780 	.word	0x3000c780
30009708:	3000c78c 	.word	0x3000c78c
3000970c:	3000c798 	.word	0x3000c798
30009710:	3000c7a4 	.word	0x3000c7a4
30009714:	3000c7b0 	.word	0x3000c7b0
30009718:	3000c7bc 	.word	0x3000c7bc

3000971c <DM9000_reset>:
3000971c:	e92d4800 	push	{fp, lr}
30009720:	e28db004 	add	fp, sp, #4	; 0x4
30009724:	e24dd008 	sub	sp, sp, #8	; 0x8
30009728:	e59f2114 	ldr	r2, [pc, #276]	; 30009844 <DM9000_reset+0x128>
3000972c:	e50b2008 	str	r2, [fp, #-8]
30009730:	e51b3008 	ldr	r3, [fp, #-8]
30009734:	e08f3003 	add	r3, pc, r3
30009738:	e50b3008 	str	r3, [fp, #-8]
3000973c:	e59f3104 	ldr	r3, [pc, #260]	; 30009848 <DM9000_reset+0x12c>
30009740:	e51b2008 	ldr	r2, [fp, #-8]
30009744:	e0823003 	add	r3, r2, r3
30009748:	e1a00003 	mov	r0, r3
3000974c:	ebffdd68 	bl	30000cf4 <printf>
30009750:	e3a0001e 	mov	r0, #30	; 0x1e
30009754:	e3a01001 	mov	r1, #1	; 0x1
30009758:	ebfffd2a 	bl	30008c08 <DM9000_iow>
3000975c:	e3a0001f 	mov	r0, #31	; 0x1f
30009760:	e3a01000 	mov	r1, #0	; 0x0
30009764:	ebfffd27 	bl	30008c08 <DM9000_iow>
30009768:	e3a00000 	mov	r0, #0	; 0x0
3000976c:	e3a01003 	mov	r1, #3	; 0x3
30009770:	ebfffd24 	bl	30008c08 <DM9000_iow>
30009774:	e59f30d0 	ldr	r3, [pc, #208]	; 3000984c <DM9000_reset+0x130>
30009778:	e51b2008 	ldr	r2, [fp, #-8]
3000977c:	e0823003 	add	r3, r2, r3
30009780:	e1a00003 	mov	r0, r3
30009784:	ebffdd5a 	bl	30000cf4 <printf>
30009788:	e3a00019 	mov	r0, #25	; 0x19
3000978c:	ebfffb55 	bl	300084e8 <udelay_us>
30009790:	e3a00000 	mov	r0, #0	; 0x0
30009794:	ebfffd36 	bl	30008c74 <DM9000_ior>
30009798:	e1a03000 	mov	r3, r0
3000979c:	e2033001 	and	r3, r3, #1	; 0x1
300097a0:	e20330ff 	and	r3, r3, #255	; 0xff
300097a4:	e3530000 	cmp	r3, #0	; 0x0
300097a8:	1afffff1 	bne	30009774 <DM9000_reset+0x58>
300097ac:	e3a00000 	mov	r0, #0	; 0x0
300097b0:	e3a01000 	mov	r1, #0	; 0x0
300097b4:	ebfffd13 	bl	30008c08 <DM9000_iow>
300097b8:	e3a00000 	mov	r0, #0	; 0x0
300097bc:	e3a01003 	mov	r1, #3	; 0x3
300097c0:	ebfffd10 	bl	30008c08 <DM9000_iow>
300097c4:	e59f3084 	ldr	r3, [pc, #132]	; 30009850 <DM9000_reset+0x134>
300097c8:	e51b2008 	ldr	r2, [fp, #-8]
300097cc:	e0823003 	add	r3, r2, r3
300097d0:	e1a00003 	mov	r0, r3
300097d4:	ebffdd46 	bl	30000cf4 <printf>
300097d8:	e3a00019 	mov	r0, #25	; 0x19
300097dc:	ebfffb41 	bl	300084e8 <udelay_us>
300097e0:	e3a00000 	mov	r0, #0	; 0x0
300097e4:	ebfffd22 	bl	30008c74 <DM9000_ior>
300097e8:	e1a03000 	mov	r3, r0
300097ec:	e2033001 	and	r3, r3, #1	; 0x1
300097f0:	e20330ff 	and	r3, r3, #255	; 0xff
300097f4:	e3530000 	cmp	r3, #0	; 0x0
300097f8:	1afffff1 	bne	300097c4 <DM9000_reset+0xa8>
300097fc:	e3a0002a 	mov	r0, #42	; 0x2a
30009800:	ebfffd1b 	bl	30008c74 <DM9000_ior>
30009804:	e1a03000 	mov	r3, r0
30009808:	e3530000 	cmp	r3, #0	; 0x0
3000980c:	1a000004 	bne	30009824 <DM9000_reset+0x108>
30009810:	e3a0002b 	mov	r0, #43	; 0x2b
30009814:	ebfffd16 	bl	30008c74 <DM9000_ior>
30009818:	e1a03000 	mov	r3, r0
3000981c:	e3530090 	cmp	r3, #144	; 0x90
30009820:	0a000004 	beq	30009838 <DM9000_reset+0x11c>
30009824:	e59f3028 	ldr	r3, [pc, #40]	; 30009854 <DM9000_reset+0x138>
30009828:	e51b2008 	ldr	r2, [fp, #-8]
3000982c:	e0823003 	add	r3, r2, r3
30009830:	e1a00003 	mov	r0, r3
30009834:	ebffdd2e 	bl	30000cf4 <printf>
30009838:	e24bd004 	sub	sp, fp, #4	; 0x4
3000983c:	e8bd4800 	pop	{fp, lr}
30009840:	e12fff1e 	bx	lr
30009844:	cfff68c4 	.word	0xcfff68c4
30009848:	3000c7c8 	.word	0x3000c7c8
3000984c:	3000c7dc 	.word	0x3000c7dc
30009850:	3000c800 	.word	0x3000c800
30009854:	3000c824 	.word	0x3000c824

30009858 <DM9000_sendPacket>:
30009858:	e92d4800 	push	{fp, lr}
3000985c:	e28db004 	add	fp, sp, #4	; 0x4
30009860:	e24dd020 	sub	sp, sp, #32	; 0x20
30009864:	e59f21f4 	ldr	r2, [pc, #500]	; 30009a60 <DM9000_sendPacket+0x208>
30009868:	e50b2020 	str	r2, [fp, #-32]
3000986c:	e51b3020 	ldr	r3, [fp, #-32]
30009870:	e08f3003 	add	r3, pc, r3
30009874:	e50b3020 	str	r3, [fp, #-32]
30009878:	e50b0018 	str	r0, [fp, #-24]
3000987c:	e50b101c 	str	r1, [fp, #-28]
30009880:	e51b3018 	ldr	r3, [fp, #-24]
30009884:	e50b3008 	str	r3, [fp, #-8]
30009888:	e3a000fe 	mov	r0, #254	; 0xfe
3000988c:	e3a01002 	mov	r1, #2	; 0x2
30009890:	ebfffcdc 	bl	30008c08 <DM9000_iow>
30009894:	e51b301c 	ldr	r3, [fp, #-28]
30009898:	e50b3014 	str	r3, [fp, #-20]
3000989c:	e3a03000 	mov	r3, #0	; 0x0
300098a0:	e50b3010 	str	r3, [fp, #-16]
300098a4:	ea00001d 	b	30009920 <DM9000_sendPacket+0xc8>
300098a8:	e3a00002 	mov	r0, #2	; 0x2
300098ac:	ebfffb0d 	bl	300084e8 <udelay_us>
300098b0:	e59f31ac 	ldr	r3, [pc, #428]	; 30009a64 <DM9000_sendPacket+0x20c>
300098b4:	e51b2020 	ldr	r2, [fp, #-32]
300098b8:	e0823003 	add	r3, r2, r3
300098bc:	e5930000 	ldr	r0, [r3]
300098c0:	e51b2010 	ldr	r2, [fp, #-16]
300098c4:	e51b3008 	ldr	r3, [fp, #-8]
300098c8:	e0833002 	add	r3, r3, r2
300098cc:	e5d33000 	ldrb	r3, [r3]
300098d0:	e1a01003 	mov	r1, r3
300098d4:	e51b3010 	ldr	r3, [fp, #-16]
300098d8:	e2832001 	add	r2, r3, #1	; 0x1
300098dc:	e51b3008 	ldr	r3, [fp, #-8]
300098e0:	e0833002 	add	r3, r3, r2
300098e4:	e5d33000 	ldrb	r3, [r3]
300098e8:	e1a03403 	lsl	r3, r3, #8
300098ec:	e1a03803 	lsl	r3, r3, #16
300098f0:	e1a03823 	lsr	r3, r3, #16
300098f4:	e1a02001 	mov	r2, r1
300098f8:	e1823003 	orr	r3, r2, r3
300098fc:	e1a03803 	lsl	r3, r3, #16
30009900:	e1a03823 	lsr	r3, r3, #16
30009904:	e1a03803 	lsl	r3, r3, #16
30009908:	e1a03843 	asr	r3, r3, #16
3000990c:	e1a01003 	mov	r1, r3
30009910:	eb000058 	bl	30009a78 <DM9000_iows>
30009914:	e51b3010 	ldr	r3, [fp, #-16]
30009918:	e2833002 	add	r3, r3, #2	; 0x2
3000991c:	e50b3010 	str	r3, [fp, #-16]
30009920:	e51b2010 	ldr	r2, [fp, #-16]
30009924:	e51b3014 	ldr	r3, [fp, #-20]
30009928:	e1520003 	cmp	r2, r3
3000992c:	3affffdd 	bcc	300098a8 <DM9000_sendPacket+0x50>
30009930:	e51b3014 	ldr	r3, [fp, #-20]
30009934:	e1a03423 	lsr	r3, r3, #8
30009938:	e20330ff 	and	r3, r3, #255	; 0xff
3000993c:	e3a000fd 	mov	r0, #253	; 0xfd
30009940:	e1a01003 	mov	r1, r3
30009944:	ebfffcaf 	bl	30008c08 <DM9000_iow>
30009948:	e51b3014 	ldr	r3, [fp, #-20]
3000994c:	e20330ff 	and	r3, r3, #255	; 0xff
30009950:	e3a000fc 	mov	r0, #252	; 0xfc
30009954:	e1a01003 	mov	r1, r3
30009958:	ebfffcaa 	bl	30008c08 <DM9000_iow>
3000995c:	e3a00002 	mov	r0, #2	; 0x2
30009960:	e3a01001 	mov	r1, #1	; 0x1
30009964:	ebfffca7 	bl	30008c08 <DM9000_iow>
30009968:	e3a00002 	mov	r0, #2	; 0x2
3000996c:	ebfffcc0 	bl	30008c74 <DM9000_ior>
30009970:	e1a03000 	mov	r3, r0
30009974:	e54b3009 	strb	r3, [fp, #-9]
30009978:	e55b3009 	ldrb	r3, [fp, #-9]
3000997c:	e2033001 	and	r3, r3, #1	; 0x1
30009980:	e3530000 	cmp	r3, #0	; 0x0
30009984:	1afffff7 	bne	30009968 <DM9000_sendPacket+0x110>
30009988:	e3a00001 	mov	r0, #1	; 0x1
3000998c:	ebfffcb8 	bl	30008c74 <DM9000_ior>
30009990:	e1a03000 	mov	r3, r0
30009994:	e54b3009 	strb	r3, [fp, #-9]
30009998:	e55b3009 	ldrb	r3, [fp, #-9]
3000999c:	e2033004 	and	r3, r3, #4	; 0x4
300099a0:	e3530000 	cmp	r3, #0	; 0x0
300099a4:	0a000011 	beq	300099f0 <DM9000_sendPacket+0x198>
300099a8:	e3a00003 	mov	r0, #3	; 0x3
300099ac:	ebfffcb0 	bl	30008c74 <DM9000_ior>
300099b0:	e1a03000 	mov	r3, r0
300099b4:	e20330fc 	and	r3, r3, #252	; 0xfc
300099b8:	e3530000 	cmp	r3, #0	; 0x0
300099bc:	1a000005 	bne	300099d8 <DM9000_sendPacket+0x180>
300099c0:	e59f30a0 	ldr	r3, [pc, #160]	; 30009a68 <DM9000_sendPacket+0x210>
300099c4:	e51b2020 	ldr	r2, [fp, #-32]
300099c8:	e0823003 	add	r3, r2, r3
300099cc:	e1a00003 	mov	r0, r3
300099d0:	ebffdd34 	bl	30000ea8 <puts>
300099d4:	ea000016 	b	30009a34 <DM9000_sendPacket+0x1dc>
300099d8:	e59f308c 	ldr	r3, [pc, #140]	; 30009a6c <DM9000_sendPacket+0x214>
300099dc:	e51b2020 	ldr	r2, [fp, #-32]
300099e0:	e0823003 	add	r3, r2, r3
300099e4:	e1a00003 	mov	r0, r3
300099e8:	ebffdd2e 	bl	30000ea8 <puts>
300099ec:	ea000010 	b	30009a34 <DM9000_sendPacket+0x1dc>
300099f0:	e3a00004 	mov	r0, #4	; 0x4
300099f4:	ebfffc9e 	bl	30008c74 <DM9000_ior>
300099f8:	e1a03000 	mov	r3, r0
300099fc:	e20330fc 	and	r3, r3, #252	; 0xfc
30009a00:	e3530000 	cmp	r3, #0	; 0x0
30009a04:	1a000005 	bne	30009a20 <DM9000_sendPacket+0x1c8>
30009a08:	e59f3060 	ldr	r3, [pc, #96]	; 30009a70 <DM9000_sendPacket+0x218>
30009a0c:	e51b2020 	ldr	r2, [fp, #-32]
30009a10:	e0823003 	add	r3, r2, r3
30009a14:	e1a00003 	mov	r0, r3
30009a18:	ebffdd22 	bl	30000ea8 <puts>
30009a1c:	ea000004 	b	30009a34 <DM9000_sendPacket+0x1dc>
30009a20:	e59f304c 	ldr	r3, [pc, #76]	; 30009a74 <DM9000_sendPacket+0x21c>
30009a24:	e51b2020 	ldr	r2, [fp, #-32]
30009a28:	e0823003 	add	r3, r2, r3
30009a2c:	e1a00003 	mov	r0, r3
30009a30:	ebffdd1c 	bl	30000ea8 <puts>
30009a34:	e3a00001 	mov	r0, #1	; 0x1
30009a38:	e3a0102c 	mov	r1, #44	; 0x2c
30009a3c:	ebfffc71 	bl	30008c08 <DM9000_iow>
30009a40:	e3a000ff 	mov	r0, #255	; 0xff
30009a44:	e3a01081 	mov	r1, #129	; 0x81
30009a48:	ebfffc6e 	bl	30008c08 <DM9000_iow>
30009a4c:	e3a03000 	mov	r3, #0	; 0x0
30009a50:	e1a00003 	mov	r0, r3
30009a54:	e24bd004 	sub	sp, fp, #4	; 0x4
30009a58:	e8bd4800 	pop	{fp, lr}
30009a5c:	e12fff1e 	bx	lr
30009a60:	cfff6788 	.word	0xcfff6788
30009a64:	3000cfdc 	.word	0x3000cfdc
30009a68:	3000c850 	.word	0x3000c850
30009a6c:	3000c860 	.word	0x3000c860
30009a70:	3000c86c 	.word	0x3000c86c
30009a74:	3000c87c 	.word	0x3000c87c

30009a78 <DM9000_iows>:
30009a78:	e52db004 	push	{fp}		; (str fp, [sp, #-4]!)
30009a7c:	e28db000 	add	fp, sp, #0	; 0x0
30009a80:	e24dd00c 	sub	sp, sp, #12	; 0xc
30009a84:	e59f2050 	ldr	r2, [pc, #80]	; 30009adc <DM9000_iows+0x64>
30009a88:	e08f2002 	add	r2, pc, r2
30009a8c:	e50b0008 	str	r0, [fp, #-8]
30009a90:	e1a03001 	mov	r3, r1
30009a94:	e14b30ba 	strh	r3, [fp, #-10]
30009a98:	e59f3040 	ldr	r3, [pc, #64]	; 30009ae0 <DM9000_iows+0x68>
30009a9c:	e0823003 	add	r3, r2, r3
30009aa0:	e5933000 	ldr	r3, [r3]
30009aa4:	e1a01003 	mov	r1, r3
30009aa8:	e51b3008 	ldr	r3, [fp, #-8]
30009aac:	e1a03803 	lsl	r3, r3, #16
30009ab0:	e1a03823 	lsr	r3, r3, #16
30009ab4:	e1c130b0 	strh	r3, [r1]
30009ab8:	e59f3024 	ldr	r3, [pc, #36]	; 30009ae4 <DM9000_iows+0x6c>
30009abc:	e0823003 	add	r3, r2, r3
30009ac0:	e5933000 	ldr	r3, [r3]
30009ac4:	e1a02003 	mov	r2, r3
30009ac8:	e15b30ba 	ldrh	r3, [fp, #-10]
30009acc:	e1c230b0 	strh	r3, [r2]
30009ad0:	e28bd000 	add	sp, fp, #0	; 0x0
30009ad4:	e8bd0800 	pop	{fp}
30009ad8:	e12fff1e 	bx	lr
30009adc:	cfff6570 	.word	0xcfff6570
30009ae0:	3000cfd8 	.word	0x3000cfd8
30009ae4:	3000cfdc 	.word	0x3000cfdc

30009ae8 <dm9000_revPacket>:
30009ae8:	e92d4800 	push	{fp, lr}
30009aec:	e28db004 	add	fp, sp, #4	; 0x4
30009af0:	e24dd020 	sub	sp, sp, #32	; 0x20
30009af4:	e59f123c 	ldr	r1, [pc, #572]	; 30009d38 <dm9000_revPacket+0x250>
30009af8:	e50b1020 	str	r1, [fp, #-32]
30009afc:	e51b2020 	ldr	r2, [fp, #-32]
30009b00:	e08f2002 	add	r2, pc, r2
30009b04:	e50b2020 	str	r2, [fp, #-32]
30009b08:	e50b0018 	str	r0, [fp, #-24]
30009b0c:	e3a03000 	mov	r3, #0	; 0x0
30009b10:	e54b3009 	strb	r3, [fp, #-9]
30009b14:	e3a03000 	mov	r3, #0	; 0x0
30009b18:	e14b30bc 	strh	r3, [fp, #-12]
30009b1c:	e3a03000 	mov	r3, #0	; 0x0
30009b20:	e14b30be 	strh	r3, [fp, #-14]
30009b24:	e59f3210 	ldr	r3, [pc, #528]	; 30009d3c <dm9000_revPacket+0x254>
30009b28:	e51b0020 	ldr	r0, [fp, #-32]
30009b2c:	e0803003 	add	r3, r0, r3
30009b30:	e50b3008 	str	r3, [fp, #-8]
30009b34:	e3a000fe 	mov	r0, #254	; 0xfe
30009b38:	ebfffc4d 	bl	30008c74 <DM9000_ior>
30009b3c:	e1a03000 	mov	r3, r0
30009b40:	e2033001 	and	r3, r3, #1	; 0x1
30009b44:	e3530000 	cmp	r3, #0	; 0x0
30009b48:	1a000002 	bne	30009b58 <dm9000_revPacket+0x70>
30009b4c:	e3a01000 	mov	r1, #0	; 0x0
30009b50:	e50b101c 	str	r1, [fp, #-28]
30009b54:	ea000072 	b	30009d24 <dm9000_revPacket+0x23c>
30009b58:	e3a000fe 	mov	r0, #254	; 0xfe
30009b5c:	e3a01001 	mov	r1, #1	; 0x1
30009b60:	ebfffc28 	bl	30008c08 <DM9000_iow>
30009b64:	e3a000f0 	mov	r0, #240	; 0xf0
30009b68:	ebfffc41 	bl	30008c74 <DM9000_ior>
30009b6c:	e59f31cc 	ldr	r3, [pc, #460]	; 30009d40 <dm9000_revPacket+0x258>
30009b70:	e51b2020 	ldr	r2, [fp, #-32]
30009b74:	e0823003 	add	r3, r2, r3
30009b78:	e5933000 	ldr	r3, [r3]
30009b7c:	e5d33000 	ldrb	r3, [r3]
30009b80:	e20330ff 	and	r3, r3, #255	; 0xff
30009b84:	e2033003 	and	r3, r3, #3	; 0x3
30009b88:	e54b3009 	strb	r3, [fp, #-9]
30009b8c:	e55b3009 	ldrb	r3, [fp, #-9]
30009b90:	e3530001 	cmp	r3, #1	; 0x1
30009b94:	9a00000f 	bls	30009bd8 <dm9000_revPacket+0xf0>
30009b98:	e3a00005 	mov	r0, #5	; 0x5
30009b9c:	e3a01000 	mov	r1, #0	; 0x0
30009ba0:	ebfffc18 	bl	30008c08 <DM9000_iow>
30009ba4:	e3a000fe 	mov	r0, #254	; 0xfe
30009ba8:	e3a01080 	mov	r1, #128	; 0x80
30009bac:	ebfffc15 	bl	30008c08 <DM9000_iow>
30009bb0:	e55b3009 	ldrb	r3, [fp, #-9]
30009bb4:	e59f2188 	ldr	r2, [pc, #392]	; 30009d44 <dm9000_revPacket+0x25c>
30009bb8:	e51b0020 	ldr	r0, [fp, #-32]
30009bbc:	e0802002 	add	r2, r0, r2
30009bc0:	e1a00002 	mov	r0, r2
30009bc4:	e1a01003 	mov	r1, r3
30009bc8:	ebffdc49 	bl	30000cf4 <printf>
30009bcc:	e3a01000 	mov	r1, #0	; 0x0
30009bd0:	e50b101c 	str	r1, [fp, #-28]
30009bd4:	ea000052 	b	30009d24 <dm9000_revPacket+0x23c>
30009bd8:	e55b3009 	ldrb	r3, [fp, #-9]
30009bdc:	e3530001 	cmp	r3, #1	; 0x1
30009be0:	0a000002 	beq	30009bf0 <dm9000_revPacket+0x108>
30009be4:	e3a02000 	mov	r2, #0	; 0x0
30009be8:	e50b201c 	str	r2, [fp, #-28]
30009bec:	ea00004c 	b	30009d24 <dm9000_revPacket+0x23c>
30009bf0:	e59f3150 	ldr	r3, [pc, #336]	; 30009d48 <dm9000_revPacket+0x260>
30009bf4:	e51b0020 	ldr	r0, [fp, #-32]
30009bf8:	e0803003 	add	r3, r0, r3
30009bfc:	e1a00003 	mov	r0, r3
30009c00:	ebffdca8 	bl	30000ea8 <puts>
30009c04:	e51b3008 	ldr	r3, [fp, #-8]
30009c08:	e593c0a4 	ldr	ip, [r3, #164]
30009c0c:	e24b300c 	sub	r3, fp, #12	; 0xc
30009c10:	e24b200e 	sub	r2, fp, #14	; 0xe
30009c14:	e1a00003 	mov	r0, r3
30009c18:	e1a01002 	mov	r1, r2
30009c1c:	e1a0e00f 	mov	lr, pc
30009c20:	e12fff1c 	bx	ip
30009c24:	e15b30bc 	ldrh	r3, [fp, #-12]
30009c28:	e1a01003 	mov	r1, r3
30009c2c:	e15b30be 	ldrh	r3, [fp, #-14]
30009c30:	e1a02003 	mov	r2, r3
30009c34:	e59f3110 	ldr	r3, [pc, #272]	; 30009d4c <dm9000_revPacket+0x264>
30009c38:	e51b0020 	ldr	r0, [fp, #-32]
30009c3c:	e0803003 	add	r3, r0, r3
30009c40:	e1a00003 	mov	r0, r3
30009c44:	ebffdc2a 	bl	30000cf4 <printf>
30009c48:	e51b3008 	ldr	r3, [fp, #-8]
30009c4c:	e59320a0 	ldr	r2, [r3, #160]
30009c50:	e15b30be 	ldrh	r3, [fp, #-14]
30009c54:	e51b0018 	ldr	r0, [fp, #-24]
30009c58:	e1a01003 	mov	r1, r3
30009c5c:	e1a0e00f 	mov	lr, pc
30009c60:	e12fff12 	bx	r2
30009c64:	e15b30bc 	ldrh	r3, [fp, #-12]
30009c68:	e2033cbf 	and	r3, r3, #48896	; 0xbf00
30009c6c:	e3530000 	cmp	r3, #0	; 0x0
30009c70:	1a000005 	bne	30009c8c <dm9000_revPacket+0x1a4>
30009c74:	e15b30be 	ldrh	r3, [fp, #-14]
30009c78:	e353003f 	cmp	r3, #63	; 0x3f
30009c7c:	9a000002 	bls	30009c8c <dm9000_revPacket+0x1a4>
30009c80:	e15b30be 	ldrh	r3, [fp, #-14]
30009c84:	e3530c06 	cmp	r3, #1536	; 0x600
30009c88:	9affffb5 	bls	30009b64 <dm9000_revPacket+0x7c>
30009c8c:	e15b30bc 	ldrh	r3, [fp, #-12]
30009c90:	e2033c01 	and	r3, r3, #256	; 0x100
30009c94:	e3530000 	cmp	r3, #0	; 0x0
30009c98:	0a000004 	beq	30009cb0 <dm9000_revPacket+0x1c8>
30009c9c:	e59f30ac 	ldr	r3, [pc, #172]	; 30009d50 <dm9000_revPacket+0x268>
30009ca0:	e51b1020 	ldr	r1, [fp, #-32]
30009ca4:	e0813003 	add	r3, r1, r3
30009ca8:	e1a00003 	mov	r0, r3
30009cac:	ebffdc7d 	bl	30000ea8 <puts>
30009cb0:	e15b30bc 	ldrh	r3, [fp, #-12]
30009cb4:	e2033c02 	and	r3, r3, #512	; 0x200
30009cb8:	e3530000 	cmp	r3, #0	; 0x0
30009cbc:	0a000004 	beq	30009cd4 <dm9000_revPacket+0x1ec>
30009cc0:	e59f308c 	ldr	r3, [pc, #140]	; 30009d54 <dm9000_revPacket+0x26c>
30009cc4:	e51b2020 	ldr	r2, [fp, #-32]
30009cc8:	e0823003 	add	r3, r2, r3
30009ccc:	e1a00003 	mov	r0, r3
30009cd0:	ebffdc74 	bl	30000ea8 <puts>
30009cd4:	e15b30bc 	ldrh	r3, [fp, #-12]
30009cd8:	e1a03803 	lsl	r3, r3, #16
30009cdc:	e1a03843 	asr	r3, r3, #16
30009ce0:	e3530000 	cmp	r3, #0	; 0x0
30009ce4:	aa000004 	bge	30009cfc <dm9000_revPacket+0x214>
30009ce8:	e59f3068 	ldr	r3, [pc, #104]	; 30009d58 <dm9000_revPacket+0x270>
30009cec:	e51b0020 	ldr	r0, [fp, #-32]
30009cf0:	e0803003 	add	r3, r0, r3
30009cf4:	e1a00003 	mov	r0, r3
30009cf8:	ebffdc6a 	bl	30000ea8 <puts>
30009cfc:	e15b30be 	ldrh	r3, [fp, #-14]
30009d00:	e3530c06 	cmp	r3, #1536	; 0x600
30009d04:	9affff96 	bls	30009b64 <dm9000_revPacket+0x7c>
30009d08:	e59f304c 	ldr	r3, [pc, #76]	; 30009d5c <dm9000_revPacket+0x274>
30009d0c:	e51b1020 	ldr	r1, [fp, #-32]
30009d10:	e0813003 	add	r3, r1, r3
30009d14:	e1a00003 	mov	r0, r3
30009d18:	ebffdc62 	bl	30000ea8 <puts>
30009d1c:	ebfffe7e 	bl	3000971c <DM9000_reset>
30009d20:	eaffff8f 	b	30009b64 <dm9000_revPacket+0x7c>
30009d24:	e51b301c 	ldr	r3, [fp, #-28]
30009d28:	e1a00003 	mov	r0, r3
30009d2c:	e24bd004 	sub	sp, fp, #4	; 0x4
30009d30:	e8bd4800 	pop	{fp, lr}
30009d34:	e12fff1e 	bx	lr
30009d38:	cfff64f8 	.word	0xcfff64f8
30009d3c:	3000d9c8 	.word	0x3000d9c8
30009d40:	3000cfdc 	.word	0x3000cfdc
30009d44:	3000c888 	.word	0x3000c888
30009d48:	3000c8b0 	.word	0x3000c8b0
30009d4c:	3000c8c4 	.word	0x3000c8c4
30009d50:	3000c8e4 	.word	0x3000c8e4
30009d54:	3000c8f4 	.word	0x3000c8f4
30009d58:	3000c904 	.word	0x3000c904
30009d5c:	3000c914 	.word	0x3000c914

30009d60 <dm9000_isr>:
30009d60:	e92d4800 	push	{fp, lr}
30009d64:	e28db004 	add	fp, sp, #4	; 0x4
30009d68:	e24ddffe 	sub	sp, sp, #1016	; 0x3f8
30009d6c:	e59f2074 	ldr	r2, [pc, #116]	; 30009de8 <dm9000_isr+0x88>
30009d70:	e08f2002 	add	r2, pc, r2
30009d74:	e50b03f8 	str	r0, [fp, #-1016]
30009d78:	e59f306c 	ldr	r3, [pc, #108]	; 30009dec <dm9000_isr+0x8c>
30009d7c:	e0823003 	add	r3, r2, r3
30009d80:	e1a00003 	mov	r0, r3
30009d84:	e59f3064 	ldr	r3, [pc, #100]	; 30009df0 <dm9000_isr+0x90>
30009d88:	e0823003 	add	r3, r2, r3
30009d8c:	e1a01003 	mov	r1, r3
30009d90:	e59f305c 	ldr	r3, [pc, #92]	; 30009df4 <dm9000_isr+0x94>
30009d94:	e0823003 	add	r3, r2, r3
30009d98:	e1a02003 	mov	r2, r3
30009d9c:	e3a03fd1 	mov	r3, #836	; 0x344
30009da0:	e2833003 	add	r3, r3, #3	; 0x3
30009da4:	ebffdbd2 	bl	30000cf4 <printf>
30009da8:	e24b3e3f 	sub	r3, fp, #1008	; 0x3f0
30009dac:	e1a00003 	mov	r0, r3
30009db0:	ebffff4c 	bl	30009ae8 <dm9000_revPacket>
30009db4:	e1a03000 	mov	r3, r0
30009db8:	e50b3008 	str	r3, [fp, #-8]
30009dbc:	e51b3008 	ldr	r3, [fp, #-8]
30009dc0:	e3530000 	cmp	r3, #0	; 0x0
30009dc4:	da000004 	ble	30009ddc <dm9000_isr+0x7c>
30009dc8:	e51b2008 	ldr	r2, [fp, #-8]
30009dcc:	e24b3e3f 	sub	r3, fp, #1008	; 0x3f0
30009dd0:	e1a00003 	mov	r0, r3
30009dd4:	e1a01002 	mov	r1, r2
30009dd8:	eb00030f 	bl	3000aa1c <arp_process>
30009ddc:	e24bd004 	sub	sp, fp, #4	; 0x4
30009de0:	e8bd4800 	pop	{fp, lr}
30009de4:	e12fff1e 	bx	lr
30009de8:	cfff6288 	.word	0xcfff6288
30009dec:	3000c934 	.word	0x3000c934
30009df0:	3000c61c 	.word	0x3000c61c
30009df4:	3000c928 	.word	0x3000c928

30009df8 <dm9000_gpio_init>:
30009df8:	e92d4830 	push	{r4, r5, fp, lr}
30009dfc:	e28db00c 	add	fp, sp, #12	; 0xc
30009e00:	e59f40c4 	ldr	r4, [pc, #196]	; 30009ecc <dm9000_gpio_init+0xd4>
30009e04:	e08f4004 	add	r4, pc, r4
30009e08:	e59f30c0 	ldr	r3, [pc, #192]	; 30009ed0 <dm9000_gpio_init+0xd8>
30009e0c:	e0843003 	add	r3, r4, r3
30009e10:	e59320c4 	ldr	r2, [r3, #196]
30009e14:	e59f30b8 	ldr	r3, [pc, #184]	; 30009ed4 <dm9000_gpio_init+0xdc>
30009e18:	e0843003 	add	r3, r4, r3
30009e1c:	e1a00003 	mov	r0, r3
30009e20:	e1a01002 	mov	r1, r2
30009e24:	ebffdbb2 	bl	30000cf4 <printf>
30009e28:	e59f30a0 	ldr	r3, [pc, #160]	; 30009ed0 <dm9000_gpio_init+0xd8>
30009e2c:	e0843003 	add	r3, r4, r3
30009e30:	e59330c4 	ldr	r3, [r3, #196]
30009e34:	e20330ff 	and	r3, r3, #255	; 0xff
30009e38:	e1a00003 	mov	r0, r3
30009e3c:	e3a01002 	mov	r1, #2	; 0x2
30009e40:	eb000634 	bl	3000b718 <key_init>
30009e44:	e3a02456 	mov	r2, #1442840576	; 0x56000000
30009e48:	e2822088 	add	r2, r2, #136	; 0x88
30009e4c:	e3a03456 	mov	r3, #1442840576	; 0x56000000
30009e50:	e2833088 	add	r3, r3, #136	; 0x88
30009e54:	e5931000 	ldr	r1, [r3]
30009e58:	e59f3070 	ldr	r3, [pc, #112]	; 30009ed0 <dm9000_gpio_init+0xd8>
30009e5c:	e0843003 	add	r3, r4, r3
30009e60:	e59330c4 	ldr	r3, [r3, #196]
30009e64:	e1a03e03 	lsl	r3, r3, #28
30009e68:	e1e03003 	mvn	r3, r3
30009e6c:	e0013003 	and	r3, r1, r3
30009e70:	e5823000 	str	r3, [r2]
30009e74:	e3a02456 	mov	r2, #1442840576	; 0x56000000
30009e78:	e2822088 	add	r2, r2, #136	; 0x88
30009e7c:	e3a03456 	mov	r3, #1442840576	; 0x56000000
30009e80:	e2833088 	add	r3, r3, #136	; 0x88
30009e84:	e5931000 	ldr	r1, [r3]
30009e88:	e59f3040 	ldr	r3, [pc, #64]	; 30009ed0 <dm9000_gpio_init+0xd8>
30009e8c:	e0843003 	add	r3, r4, r3
30009e90:	e59330c8 	ldr	r3, [r3, #200]
30009e94:	e1a03e03 	lsl	r3, r3, #28
30009e98:	e1813003 	orr	r3, r1, r3
30009e9c:	e5823000 	str	r3, [r2]
30009ea0:	e59f3028 	ldr	r3, [pc, #40]	; 30009ed0 <dm9000_gpio_init+0xd8>
30009ea4:	e0843003 	add	r3, r4, r3
30009ea8:	e59330c4 	ldr	r3, [r3, #196]
30009eac:	e1a00003 	mov	r0, r3
30009eb0:	e59f3020 	ldr	r3, [pc, #32]	; 30009ed8 <dm9000_gpio_init+0xe0>
30009eb4:	e0843003 	add	r3, r4, r3
30009eb8:	e1a01003 	mov	r1, r3
30009ebc:	ebfff62e 	bl	3000777c <register_extern_int>
30009ec0:	e24bd00c 	sub	sp, fp, #12	; 0xc
30009ec4:	e8bd4830 	pop	{r4, r5, fp, lr}
30009ec8:	e12fff1e 	bx	lr
30009ecc:	cfff61f4 	.word	0xcfff61f4
30009ed0:	3000d9c8 	.word	0x3000d9c8
30009ed4:	3000c940 	.word	0x3000c940
30009ed8:	30009d60 	.word	0x30009d60

30009edc <dm9000_phy_read>:
30009edc:	e92d4830 	push	{r4, r5, fp, lr}
30009ee0:	e28db00c 	add	fp, sp, #12	; 0xc
30009ee4:	e24dd010 	sub	sp, sp, #16	; 0x10
30009ee8:	e59f40a8 	ldr	r4, [pc, #168]	; 30009f98 <dm9000_phy_read+0xbc>
30009eec:	e08f4004 	add	r4, pc, r4
30009ef0:	e50b0018 	str	r0, [fp, #-24]
30009ef4:	e51b3018 	ldr	r3, [fp, #-24]
30009ef8:	e20330ff 	and	r3, r3, #255	; 0xff
30009efc:	e3833040 	orr	r3, r3, #64	; 0x40
30009f00:	e20330ff 	and	r3, r3, #255	; 0xff
30009f04:	e20330ff 	and	r3, r3, #255	; 0xff
30009f08:	e3a0000c 	mov	r0, #12	; 0xc
30009f0c:	e1a01003 	mov	r1, r3
30009f10:	ebfffb3c 	bl	30008c08 <DM9000_iow>
30009f14:	e3a0000b 	mov	r0, #11	; 0xb
30009f18:	e3a0100c 	mov	r1, #12	; 0xc
30009f1c:	ebfffb39 	bl	30008c08 <DM9000_iow>
30009f20:	e3a00064 	mov	r0, #100	; 0x64
30009f24:	ebfff96f 	bl	300084e8 <udelay_us>
30009f28:	e3a0000b 	mov	r0, #11	; 0xb
30009f2c:	e3a01000 	mov	r1, #0	; 0x0
30009f30:	ebfffb34 	bl	30008c08 <DM9000_iow>
30009f34:	e3a0000e 	mov	r0, #14	; 0xe
30009f38:	ebfffb4d 	bl	30008c74 <DM9000_ior>
30009f3c:	e1a03000 	mov	r3, r0
30009f40:	e1a03403 	lsl	r3, r3, #8
30009f44:	e1a03803 	lsl	r3, r3, #16
30009f48:	e1a05823 	lsr	r5, r3, #16
30009f4c:	e3a0000d 	mov	r0, #13	; 0xd
30009f50:	ebfffb47 	bl	30008c74 <DM9000_ior>
30009f54:	e1a03000 	mov	r3, r0
30009f58:	e1a02005 	mov	r2, r5
30009f5c:	e1823003 	orr	r3, r2, r3
30009f60:	e1a03803 	lsl	r3, r3, #16
30009f64:	e1a03823 	lsr	r3, r3, #16
30009f68:	e14b30be 	strh	r3, [fp, #-14]
30009f6c:	e15b20be 	ldrh	r2, [fp, #-14]
30009f70:	e59f3024 	ldr	r3, [pc, #36]	; 30009f9c <dm9000_phy_read+0xc0>
30009f74:	e0843003 	add	r3, r4, r3
30009f78:	e1a00003 	mov	r0, r3
30009f7c:	e51b1018 	ldr	r1, [fp, #-24]
30009f80:	ebffdb5b 	bl	30000cf4 <printf>
30009f84:	e15b30be 	ldrh	r3, [fp, #-14]
30009f88:	e1a00003 	mov	r0, r3
30009f8c:	e24bd00c 	sub	sp, fp, #12	; 0xc
30009f90:	e8bd4830 	pop	{r4, r5, fp, lr}
30009f94:	e12fff1e 	bx	lr
30009f98:	cfff610c 	.word	0xcfff610c
30009f9c:	3000c964 	.word	0x3000c964

30009fa0 <dm9000_probe>:
30009fa0:	e92d4800 	push	{fp, lr}
30009fa4:	e28db004 	add	fp, sp, #4	; 0x4
30009fa8:	e24dd010 	sub	sp, sp, #16	; 0x10
30009fac:	e59f1110 	ldr	r1, [pc, #272]	; 3000a0c4 <dm9000_probe+0x124>
30009fb0:	e50b1014 	str	r1, [fp, #-20]
30009fb4:	e51b2014 	ldr	r2, [fp, #-20]
30009fb8:	e08f2002 	add	r2, pc, r2
30009fbc:	e50b2014 	str	r2, [fp, #-20]
30009fc0:	e3a00028 	mov	r0, #40	; 0x28
30009fc4:	ebfffb2a 	bl	30008c74 <DM9000_ior>
30009fc8:	e1a03000 	mov	r3, r0
30009fcc:	e50b3008 	str	r3, [fp, #-8]
30009fd0:	e3a00029 	mov	r0, #41	; 0x29
30009fd4:	ebfffb26 	bl	30008c74 <DM9000_ior>
30009fd8:	e1a03000 	mov	r3, r0
30009fdc:	e1a03403 	lsl	r3, r3, #8
30009fe0:	e1a02003 	mov	r2, r3
30009fe4:	e51b3008 	ldr	r3, [fp, #-8]
30009fe8:	e1833002 	orr	r3, r3, r2
30009fec:	e50b3008 	str	r3, [fp, #-8]
30009ff0:	e3a0002a 	mov	r0, #42	; 0x2a
30009ff4:	ebfffb1e 	bl	30008c74 <DM9000_ior>
30009ff8:	e1a03000 	mov	r3, r0
30009ffc:	e1a03803 	lsl	r3, r3, #16
3000a000:	e1a02003 	mov	r2, r3
3000a004:	e51b3008 	ldr	r3, [fp, #-8]
3000a008:	e1833002 	orr	r3, r3, r2
3000a00c:	e50b3008 	str	r3, [fp, #-8]
3000a010:	e3a0002b 	mov	r0, #43	; 0x2b
3000a014:	ebfffb16 	bl	30008c74 <DM9000_ior>
3000a018:	e1a03000 	mov	r3, r0
3000a01c:	e1a03c03 	lsl	r3, r3, #24
3000a020:	e1a02003 	mov	r2, r3
3000a024:	e51b3008 	ldr	r3, [fp, #-8]
3000a028:	e1833002 	orr	r3, r3, r2
3000a02c:	e50b3008 	str	r3, [fp, #-8]
3000a030:	e51b2008 	ldr	r2, [fp, #-8]
3000a034:	e3a03d29 	mov	r3, #2624	; 0xa40
3000a038:	e2833269 	add	r3, r3, #-1879048186	; 0x90000006
3000a03c:	e1520003 	cmp	r2, r3
3000a040:	1a00000d 	bne	3000a07c <dm9000_probe+0xdc>
3000a044:	e59f307c 	ldr	r3, [pc, #124]	; 3000a0c8 <dm9000_probe+0x128>
3000a048:	e51b1014 	ldr	r1, [fp, #-20]
3000a04c:	e0813003 	add	r3, r1, r3
3000a050:	e5932000 	ldr	r2, [r3]
3000a054:	e59f3070 	ldr	r3, [pc, #112]	; 3000a0cc <dm9000_probe+0x12c>
3000a058:	e51b1014 	ldr	r1, [fp, #-20]
3000a05c:	e0813003 	add	r3, r1, r3
3000a060:	e1a00003 	mov	r0, r3
3000a064:	e1a01002 	mov	r1, r2
3000a068:	e51b2008 	ldr	r2, [fp, #-8]
3000a06c:	ebffdb20 	bl	30000cf4 <printf>
3000a070:	e3a02000 	mov	r2, #0	; 0x0
3000a074:	e50b2010 	str	r2, [fp, #-16]
3000a078:	ea00000c 	b	3000a0b0 <dm9000_probe+0x110>
3000a07c:	e59f3044 	ldr	r3, [pc, #68]	; 3000a0c8 <dm9000_probe+0x128>
3000a080:	e51b1014 	ldr	r1, [fp, #-20]
3000a084:	e0813003 	add	r3, r1, r3
3000a088:	e5932000 	ldr	r2, [r3]
3000a08c:	e59f303c 	ldr	r3, [pc, #60]	; 3000a0d0 <dm9000_probe+0x130>
3000a090:	e51b1014 	ldr	r1, [fp, #-20]
3000a094:	e0813003 	add	r3, r1, r3
3000a098:	e1a00003 	mov	r0, r3
3000a09c:	e1a01002 	mov	r1, r2
3000a0a0:	e51b2008 	ldr	r2, [fp, #-8]
3000a0a4:	ebffdb12 	bl	30000cf4 <printf>
3000a0a8:	e3e02000 	mvn	r2, #0	; 0x0
3000a0ac:	e50b2010 	str	r2, [fp, #-16]
3000a0b0:	e51b3010 	ldr	r3, [fp, #-16]
3000a0b4:	e1a00003 	mov	r0, r3
3000a0b8:	e24bd004 	sub	sp, fp, #4	; 0x4
3000a0bc:	e8bd4800 	pop	{fp, lr}
3000a0c0:	e12fff1e 	bx	lr
3000a0c4:	cfff6040 	.word	0xcfff6040
3000a0c8:	3000cfd8 	.word	0x3000cfd8
3000a0cc:	3000c984 	.word	0x3000c984
3000a0d0:	3000c9a4 	.word	0x3000c9a4

3000a0d4 <dm9000_phy_write>:
3000a0d4:	e92d4810 	push	{r4, fp, lr}
3000a0d8:	e28db008 	add	fp, sp, #8	; 0x8
3000a0dc:	e24dd00c 	sub	sp, sp, #12	; 0xc
3000a0e0:	e59f40a4 	ldr	r4, [pc, #164]	; 3000a18c <dm9000_phy_write+0xb8>
3000a0e4:	e08f4004 	add	r4, pc, r4
3000a0e8:	e50b0010 	str	r0, [fp, #-16]
3000a0ec:	e1a03001 	mov	r3, r1
3000a0f0:	e14b31b2 	strh	r3, [fp, #-18]
3000a0f4:	e51b3010 	ldr	r3, [fp, #-16]
3000a0f8:	e20330ff 	and	r3, r3, #255	; 0xff
3000a0fc:	e3833040 	orr	r3, r3, #64	; 0x40
3000a100:	e20330ff 	and	r3, r3, #255	; 0xff
3000a104:	e20330ff 	and	r3, r3, #255	; 0xff
3000a108:	e3a0000c 	mov	r0, #12	; 0xc
3000a10c:	e1a01003 	mov	r1, r3
3000a110:	ebfffabc 	bl	30008c08 <DM9000_iow>
3000a114:	e15b31b2 	ldrh	r3, [fp, #-18]
3000a118:	e20330ff 	and	r3, r3, #255	; 0xff
3000a11c:	e3a0000d 	mov	r0, #13	; 0xd
3000a120:	e1a01003 	mov	r1, r3
3000a124:	ebfffab7 	bl	30008c08 <DM9000_iow>
3000a128:	e15b31b2 	ldrh	r3, [fp, #-18]
3000a12c:	e1a03423 	lsr	r3, r3, #8
3000a130:	e1a03803 	lsl	r3, r3, #16
3000a134:	e1a03823 	lsr	r3, r3, #16
3000a138:	e20330ff 	and	r3, r3, #255	; 0xff
3000a13c:	e3a0000e 	mov	r0, #14	; 0xe
3000a140:	e1a01003 	mov	r1, r3
3000a144:	ebfffaaf 	bl	30008c08 <DM9000_iow>
3000a148:	e3a0000b 	mov	r0, #11	; 0xb
3000a14c:	e3a0100a 	mov	r1, #10	; 0xa
3000a150:	ebfffaac 	bl	30008c08 <DM9000_iow>
3000a154:	e3a00f7d 	mov	r0, #500	; 0x1f4
3000a158:	ebfff8e2 	bl	300084e8 <udelay_us>
3000a15c:	e3a0000b 	mov	r0, #11	; 0xb
3000a160:	e3a01000 	mov	r1, #0	; 0x0
3000a164:	ebfffaa7 	bl	30008c08 <DM9000_iow>
3000a168:	e15b21b2 	ldrh	r2, [fp, #-18]
3000a16c:	e59f301c 	ldr	r3, [pc, #28]	; 3000a190 <dm9000_phy_write+0xbc>
3000a170:	e0843003 	add	r3, r4, r3
3000a174:	e1a00003 	mov	r0, r3
3000a178:	e51b1010 	ldr	r1, [fp, #-16]
3000a17c:	ebffdadc 	bl	30000cf4 <printf>
3000a180:	e24bd008 	sub	sp, fp, #8	; 0x8
3000a184:	e8bd4810 	pop	{r4, fp, lr}
3000a188:	e12fff1e 	bx	lr
3000a18c:	cfff5f14 	.word	0xcfff5f14
3000a190:	3000c9cc 	.word	0x3000c9cc

3000a194 <dm9000_halt>:
3000a194:	e92d4800 	push	{fp, lr}
3000a198:	e28db004 	add	fp, sp, #4	; 0x4
3000a19c:	e3a00000 	mov	r0, #0	; 0x0
3000a1a0:	e3a01902 	mov	r1, #32768	; 0x8000
3000a1a4:	ebffffca 	bl	3000a0d4 <dm9000_phy_write>
3000a1a8:	e3a0001f 	mov	r0, #31	; 0x1f
3000a1ac:	e3a01001 	mov	r1, #1	; 0x1
3000a1b0:	ebfffa94 	bl	30008c08 <DM9000_iow>
3000a1b4:	e3a000ff 	mov	r0, #255	; 0xff
3000a1b8:	e3a01080 	mov	r1, #128	; 0x80
3000a1bc:	ebfffa91 	bl	30008c08 <DM9000_iow>
3000a1c0:	e3a00005 	mov	r0, #5	; 0x5
3000a1c4:	e3a01000 	mov	r1, #0	; 0x0
3000a1c8:	ebfffa8e 	bl	30008c08 <DM9000_iow>
3000a1cc:	e24bd004 	sub	sp, fp, #4	; 0x4
3000a1d0:	e8bd4800 	pop	{fp, lr}
3000a1d4:	e12fff1e 	bx	lr

3000a1d8 <DM9000_Init>:
3000a1d8:	e92d4800 	push	{fp, lr}
3000a1dc:	e28db004 	add	fp, sp, #4	; 0x4
3000a1e0:	e24dd018 	sub	sp, sp, #24	; 0x18
3000a1e4:	e59f04c8 	ldr	r0, [pc, #1224]	; 3000a6b4 <DM9000_Init+0x4dc>
3000a1e8:	e50b0018 	str	r0, [fp, #-24]
3000a1ec:	e51b1018 	ldr	r1, [fp, #-24]
3000a1f0:	e08f1001 	add	r1, pc, r1
3000a1f4:	e50b1018 	str	r1, [fp, #-24]
3000a1f8:	e59f34b8 	ldr	r3, [pc, #1208]	; 3000a6b8 <DM9000_Init+0x4e0>
3000a1fc:	e51b2018 	ldr	r2, [fp, #-24]
3000a200:	e0823003 	add	r3, r2, r3
3000a204:	e50b3008 	str	r3, [fp, #-8]
3000a208:	e51b3008 	ldr	r3, [fp, #-8]
3000a20c:	e3530000 	cmp	r3, #0	; 0x0
3000a210:	1a000002 	bne	3000a220 <DM9000_Init+0x48>
3000a214:	e3e03000 	mvn	r3, #0	; 0x0
3000a218:	e50b3014 	str	r3, [fp, #-20]
3000a21c:	ea00011f 	b	3000a6a0 <DM9000_Init+0x4c8>
3000a220:	ebfffef4 	bl	30009df8 <dm9000_gpio_init>
3000a224:	ebfffd3c 	bl	3000971c <DM9000_reset>
3000a228:	ebffff5c 	bl	30009fa0 <dm9000_probe>
3000a22c:	e1a03000 	mov	r3, r0
3000a230:	e3530000 	cmp	r3, #0	; 0x0
3000a234:	aa000002 	bge	3000a244 <DM9000_Init+0x6c>
3000a238:	e3e00000 	mvn	r0, #0	; 0x0
3000a23c:	e50b0014 	str	r0, [fp, #-20]
3000a240:	ea000116 	b	3000a6a0 <DM9000_Init+0x4c8>
3000a244:	e3a000fe 	mov	r0, #254	; 0xfe
3000a248:	ebfffa89 	bl	30008c74 <DM9000_ior>
3000a24c:	e1a03000 	mov	r3, r0
3000a250:	e1a03323 	lsr	r3, r3, #6
3000a254:	e54b300b 	strb	r3, [fp, #-11]
3000a258:	e55b100b 	ldrb	r1, [fp, #-11]
3000a25c:	e50b1010 	str	r1, [fp, #-16]
3000a260:	e51b2010 	ldr	r2, [fp, #-16]
3000a264:	e3520001 	cmp	r2, #1	; 0x1
3000a268:	0a00001a 	beq	3000a2d8 <DM9000_Init+0x100>
3000a26c:	e51b3010 	ldr	r3, [fp, #-16]
3000a270:	e3530002 	cmp	r3, #2	; 0x2
3000a274:	0a00002c 	beq	3000a32c <DM9000_Init+0x154>
3000a278:	e51b0010 	ldr	r0, [fp, #-16]
3000a27c:	e3500000 	cmp	r0, #0	; 0x0
3000a280:	1a00003e 	bne	3000a380 <DM9000_Init+0x1a8>
3000a284:	e59f3430 	ldr	r3, [pc, #1072]	; 3000a6bc <DM9000_Init+0x4e4>
3000a288:	e51b1018 	ldr	r1, [fp, #-24]
3000a28c:	e0813003 	add	r3, r1, r3
3000a290:	e1a00003 	mov	r0, r3
3000a294:	ebffdb03 	bl	30000ea8 <puts>
3000a298:	e51b2008 	ldr	r2, [fp, #-8]
3000a29c:	e59f341c 	ldr	r3, [pc, #1052]	; 3000a6c0 <DM9000_Init+0x4e8>
3000a2a0:	e51b0018 	ldr	r0, [fp, #-24]
3000a2a4:	e0803003 	add	r3, r0, r3
3000a2a8:	e582309c 	str	r3, [r2, #156]
3000a2ac:	e51b2008 	ldr	r2, [fp, #-8]
3000a2b0:	e59f340c 	ldr	r3, [pc, #1036]	; 3000a6c4 <DM9000_Init+0x4ec>
3000a2b4:	e51b1018 	ldr	r1, [fp, #-24]
3000a2b8:	e0813003 	add	r3, r1, r3
3000a2bc:	e58230a0 	str	r3, [r2, #160]
3000a2c0:	e51b2008 	ldr	r2, [fp, #-8]
3000a2c4:	e59f33fc 	ldr	r3, [pc, #1020]	; 3000a6c8 <DM9000_Init+0x4f0>
3000a2c8:	e51b0018 	ldr	r0, [fp, #-24]
3000a2cc:	e0803003 	add	r3, r0, r3
3000a2d0:	e58230a4 	str	r3, [r2, #164]
3000a2d4:	ea00003f 	b	3000a3d8 <DM9000_Init+0x200>
3000a2d8:	e59f33ec 	ldr	r3, [pc, #1004]	; 3000a6cc <DM9000_Init+0x4f4>
3000a2dc:	e51b1018 	ldr	r1, [fp, #-24]
3000a2e0:	e0813003 	add	r3, r1, r3
3000a2e4:	e1a00003 	mov	r0, r3
3000a2e8:	ebffdaee 	bl	30000ea8 <puts>
3000a2ec:	e51b2008 	ldr	r2, [fp, #-8]
3000a2f0:	e59f33d8 	ldr	r3, [pc, #984]	; 3000a6d0 <DM9000_Init+0x4f8>
3000a2f4:	e51b0018 	ldr	r0, [fp, #-24]
3000a2f8:	e0803003 	add	r3, r0, r3
3000a2fc:	e582309c 	str	r3, [r2, #156]
3000a300:	e51b2008 	ldr	r2, [fp, #-8]
3000a304:	e59f33c8 	ldr	r3, [pc, #968]	; 3000a6d4 <DM9000_Init+0x4fc>
3000a308:	e51b1018 	ldr	r1, [fp, #-24]
3000a30c:	e0813003 	add	r3, r1, r3
3000a310:	e58230a0 	str	r3, [r2, #160]
3000a314:	e51b2008 	ldr	r2, [fp, #-8]
3000a318:	e59f33b8 	ldr	r3, [pc, #952]	; 3000a6d8 <DM9000_Init+0x500>
3000a31c:	e51b0018 	ldr	r0, [fp, #-24]
3000a320:	e0803003 	add	r3, r0, r3
3000a324:	e58230a4 	str	r3, [r2, #164]
3000a328:	ea00002a 	b	3000a3d8 <DM9000_Init+0x200>
3000a32c:	e59f33a8 	ldr	r3, [pc, #936]	; 3000a6dc <DM9000_Init+0x504>
3000a330:	e51b1018 	ldr	r1, [fp, #-24]
3000a334:	e0813003 	add	r3, r1, r3
3000a338:	e1a00003 	mov	r0, r3
3000a33c:	ebffdad9 	bl	30000ea8 <puts>
3000a340:	e51b2008 	ldr	r2, [fp, #-8]
3000a344:	e59f3394 	ldr	r3, [pc, #916]	; 3000a6e0 <DM9000_Init+0x508>
3000a348:	e51b0018 	ldr	r0, [fp, #-24]
3000a34c:	e0803003 	add	r3, r0, r3
3000a350:	e582309c 	str	r3, [r2, #156]
3000a354:	e51b2008 	ldr	r2, [fp, #-8]
3000a358:	e59f3384 	ldr	r3, [pc, #900]	; 3000a6e4 <DM9000_Init+0x50c>
3000a35c:	e51b1018 	ldr	r1, [fp, #-24]
3000a360:	e0813003 	add	r3, r1, r3
3000a364:	e58230a0 	str	r3, [r2, #160]
3000a368:	e51b2008 	ldr	r2, [fp, #-8]
3000a36c:	e59f3374 	ldr	r3, [pc, #884]	; 3000a6e8 <DM9000_Init+0x510>
3000a370:	e51b0018 	ldr	r0, [fp, #-24]
3000a374:	e0803003 	add	r3, r0, r3
3000a378:	e58230a4 	str	r3, [r2, #164]
3000a37c:	ea000015 	b	3000a3d8 <DM9000_Init+0x200>
3000a380:	e55b200b 	ldrb	r2, [fp, #-11]
3000a384:	e59f3360 	ldr	r3, [pc, #864]	; 3000a6ec <DM9000_Init+0x514>
3000a388:	e51b1018 	ldr	r1, [fp, #-24]
3000a38c:	e0813003 	add	r3, r1, r3
3000a390:	e1a00003 	mov	r0, r3
3000a394:	e1a01002 	mov	r1, r2
3000a398:	ebffda55 	bl	30000cf4 <printf>
3000a39c:	e51b2008 	ldr	r2, [fp, #-8]
3000a3a0:	e59f3338 	ldr	r3, [pc, #824]	; 3000a6e0 <DM9000_Init+0x508>
3000a3a4:	e51b0018 	ldr	r0, [fp, #-24]
3000a3a8:	e0803003 	add	r3, r0, r3
3000a3ac:	e582309c 	str	r3, [r2, #156]
3000a3b0:	e51b2008 	ldr	r2, [fp, #-8]
3000a3b4:	e59f3328 	ldr	r3, [pc, #808]	; 3000a6e4 <DM9000_Init+0x50c>
3000a3b8:	e51b1018 	ldr	r1, [fp, #-24]
3000a3bc:	e0813003 	add	r3, r1, r3
3000a3c0:	e58230a0 	str	r3, [r2, #160]
3000a3c4:	e51b2008 	ldr	r2, [fp, #-8]
3000a3c8:	e59f3318 	ldr	r3, [pc, #792]	; 3000a6e8 <DM9000_Init+0x510>
3000a3cc:	e51b0018 	ldr	r0, [fp, #-24]
3000a3d0:	e0803003 	add	r3, r0, r3
3000a3d4:	e58230a4 	str	r3, [r2, #164]
3000a3d8:	e3a00000 	mov	r0, #0	; 0x0
3000a3dc:	e3a01000 	mov	r1, #0	; 0x0
3000a3e0:	ebfffa08 	bl	30008c08 <DM9000_iow>
3000a3e4:	e3a00002 	mov	r0, #2	; 0x2
3000a3e8:	e3a01000 	mov	r1, #0	; 0x0
3000a3ec:	ebfffa05 	bl	30008c08 <DM9000_iow>
3000a3f0:	e3a00008 	mov	r0, #8	; 0x8
3000a3f4:	e3a0103f 	mov	r1, #63	; 0x3f
3000a3f8:	ebfffa02 	bl	30008c08 <DM9000_iow>
3000a3fc:	e3a00009 	mov	r0, #9	; 0x9
3000a400:	e3a01038 	mov	r1, #56	; 0x38
3000a404:	ebfff9ff 	bl	30008c08 <DM9000_iow>
3000a408:	e3a0000a 	mov	r0, #10	; 0xa
3000a40c:	e3a01000 	mov	r1, #0	; 0x0
3000a410:	ebfff9fc 	bl	30008c08 <DM9000_iow>
3000a414:	e3a0002f 	mov	r0, #47	; 0x2f
3000a418:	e3a01000 	mov	r1, #0	; 0x0
3000a41c:	ebfff9f9 	bl	30008c08 <DM9000_iow>
3000a420:	e3a00001 	mov	r0, #1	; 0x1
3000a424:	e3a0102c 	mov	r1, #44	; 0x2c
3000a428:	ebfff9f6 	bl	30008c08 <DM9000_iow>
3000a42c:	e3a000fe 	mov	r0, #254	; 0xfe
3000a430:	e3a0100f 	mov	r1, #15	; 0xf
3000a434:	ebfff9f3 	bl	30008c08 <DM9000_iow>
3000a438:	e3a03000 	mov	r3, #0	; 0x0
3000a43c:	e54b300c 	strb	r3, [fp, #-12]
3000a440:	e3a03010 	mov	r3, #16	; 0x10
3000a444:	e54b300a 	strb	r3, [fp, #-10]
3000a448:	ea00000e 	b	3000a488 <DM9000_Init+0x2b0>
3000a44c:	e55b100a 	ldrb	r1, [fp, #-10]
3000a450:	e55b200c 	ldrb	r2, [fp, #-12]
3000a454:	e59f3294 	ldr	r3, [pc, #660]	; 3000a6f0 <DM9000_Init+0x518>
3000a458:	e51b0018 	ldr	r0, [fp, #-24]
3000a45c:	e0803003 	add	r3, r0, r3
3000a460:	e7d33002 	ldrb	r3, [r3, r2]
3000a464:	e1a00001 	mov	r0, r1
3000a468:	e1a01003 	mov	r1, r3
3000a46c:	ebfff9e5 	bl	30008c08 <DM9000_iow>
3000a470:	e55b300c 	ldrb	r3, [fp, #-12]
3000a474:	e2833001 	add	r3, r3, #1	; 0x1
3000a478:	e54b300c 	strb	r3, [fp, #-12]
3000a47c:	e55b300a 	ldrb	r3, [fp, #-10]
3000a480:	e2833001 	add	r3, r3, #1	; 0x1
3000a484:	e54b300a 	strb	r3, [fp, #-10]
3000a488:	e55b300c 	ldrb	r3, [fp, #-12]
3000a48c:	e3530005 	cmp	r3, #5	; 0x5
3000a490:	9affffed 	bls	3000a44c <DM9000_Init+0x274>
3000a494:	e3a03000 	mov	r3, #0	; 0x0
3000a498:	e54b300c 	strb	r3, [fp, #-12]
3000a49c:	e3a03016 	mov	r3, #22	; 0x16
3000a4a0:	e54b300a 	strb	r3, [fp, #-10]
3000a4a4:	ea000009 	b	3000a4d0 <DM9000_Init+0x2f8>
3000a4a8:	e55b300a 	ldrb	r3, [fp, #-10]
3000a4ac:	e1a00003 	mov	r0, r3
3000a4b0:	e3a010ff 	mov	r1, #255	; 0xff
3000a4b4:	ebfff9d3 	bl	30008c08 <DM9000_iow>
3000a4b8:	e55b300c 	ldrb	r3, [fp, #-12]
3000a4bc:	e2833001 	add	r3, r3, #1	; 0x1
3000a4c0:	e54b300c 	strb	r3, [fp, #-12]
3000a4c4:	e55b300a 	ldrb	r3, [fp, #-10]
3000a4c8:	e2833001 	add	r3, r3, #1	; 0x1
3000a4cc:	e54b300a 	strb	r3, [fp, #-10]
3000a4d0:	e55b300c 	ldrb	r3, [fp, #-12]
3000a4d4:	e3530007 	cmp	r3, #7	; 0x7
3000a4d8:	9afffff2 	bls	3000a4a8 <DM9000_Init+0x2d0>
3000a4dc:	e3a03000 	mov	r3, #0	; 0x0
3000a4e0:	e54b300c 	strb	r3, [fp, #-12]
3000a4e4:	e3a03010 	mov	r3, #16	; 0x10
3000a4e8:	e54b300a 	strb	r3, [fp, #-10]
3000a4ec:	ea000010 	b	3000a534 <DM9000_Init+0x35c>
3000a4f0:	e55b300a 	ldrb	r3, [fp, #-10]
3000a4f4:	e1a00003 	mov	r0, r3
3000a4f8:	ebfff9dd 	bl	30008c74 <DM9000_ior>
3000a4fc:	e1a03000 	mov	r3, r0
3000a500:	e1a02003 	mov	r2, r3
3000a504:	e59f31e8 	ldr	r3, [pc, #488]	; 3000a6f4 <DM9000_Init+0x51c>
3000a508:	e51b1018 	ldr	r1, [fp, #-24]
3000a50c:	e0813003 	add	r3, r1, r3
3000a510:	e1a00003 	mov	r0, r3
3000a514:	e1a01002 	mov	r1, r2
3000a518:	ebffd9f5 	bl	30000cf4 <printf>
3000a51c:	e55b300c 	ldrb	r3, [fp, #-12]
3000a520:	e2833001 	add	r3, r3, #1	; 0x1
3000a524:	e54b300c 	strb	r3, [fp, #-12]
3000a528:	e55b300a 	ldrb	r3, [fp, #-10]
3000a52c:	e2833001 	add	r3, r3, #1	; 0x1
3000a530:	e54b300a 	strb	r3, [fp, #-10]
3000a534:	e55b300c 	ldrb	r3, [fp, #-12]
3000a538:	e3530005 	cmp	r3, #5	; 0x5
3000a53c:	9affffeb 	bls	3000a4f0 <DM9000_Init+0x318>
3000a540:	e59f31b0 	ldr	r3, [pc, #432]	; 3000a6f8 <DM9000_Init+0x520>
3000a544:	e51b2018 	ldr	r2, [fp, #-24]
3000a548:	e0823003 	add	r3, r2, r3
3000a54c:	e1a00003 	mov	r0, r3
3000a550:	ebffd9e7 	bl	30000cf4 <printf>
3000a554:	e3a00005 	mov	r0, #5	; 0x5
3000a558:	e3a01031 	mov	r1, #49	; 0x31
3000a55c:	ebfff9a9 	bl	30008c08 <DM9000_iow>
3000a560:	e3a000ff 	mov	r0, #255	; 0xff
3000a564:	e3a01080 	mov	r1, #128	; 0x80
3000a568:	ebfff9a6 	bl	30008c08 <DM9000_iow>
3000a56c:	e3a03000 	mov	r3, #0	; 0x0
3000a570:	e54b300c 	strb	r3, [fp, #-12]
3000a574:	ea000004 	b	3000a58c <DM9000_Init+0x3b4>
3000a578:	e3a0000a 	mov	r0, #10	; 0xa
3000a57c:	ebfff7f4 	bl	30008554 <udelay_ms>
3000a580:	e55b300c 	ldrb	r3, [fp, #-12]
3000a584:	e2833001 	add	r3, r3, #1	; 0x1
3000a588:	e54b300c 	strb	r3, [fp, #-12]
3000a58c:	e3a00001 	mov	r0, #1	; 0x1
3000a590:	ebfffe51 	bl	30009edc <dm9000_phy_read>
3000a594:	e1a03000 	mov	r3, r0
3000a598:	e2033020 	and	r3, r3, #32	; 0x20
3000a59c:	e3530000 	cmp	r3, #0	; 0x0
3000a5a0:	0afffff4 	beq	3000a578 <DM9000_Init+0x3a0>
3000a5a4:	e3a00011 	mov	r0, #17	; 0x11
3000a5a8:	ebfffe4b 	bl	30009edc <dm9000_phy_read>
3000a5ac:	e1a03000 	mov	r3, r0
3000a5b0:	e1a03623 	lsr	r3, r3, #12
3000a5b4:	e1a03803 	lsl	r3, r3, #16
3000a5b8:	e1a03823 	lsr	r3, r3, #16
3000a5bc:	e54b3009 	strb	r3, [fp, #-9]
3000a5c0:	e59f3134 	ldr	r3, [pc, #308]	; 3000a6fc <DM9000_Init+0x524>
3000a5c4:	e51b0018 	ldr	r0, [fp, #-24]
3000a5c8:	e0803003 	add	r3, r0, r3
3000a5cc:	e1a00003 	mov	r0, r3
3000a5d0:	ebffd9c7 	bl	30000cf4 <printf>
3000a5d4:	e55b3009 	ldrb	r3, [fp, #-9]
3000a5d8:	e2433001 	sub	r3, r3, #1	; 0x1
3000a5dc:	e3530007 	cmp	r3, #7	; 0x7
3000a5e0:	908ff103 	addls	pc, pc, r3, lsl #2
3000a5e4:	ea00001f 	b	3000a668 <DM9000_Init+0x490>
3000a5e8:	ea000006 	b	3000a608 <DM9000_Init+0x430>
3000a5ec:	ea00000b 	b	3000a620 <DM9000_Init+0x448>
3000a5f0:	ea00001c 	b	3000a668 <DM9000_Init+0x490>
3000a5f4:	ea00000f 	b	3000a638 <DM9000_Init+0x460>
3000a5f8:	ea00001a 	b	3000a668 <DM9000_Init+0x490>
3000a5fc:	ea000019 	b	3000a668 <DM9000_Init+0x490>
3000a600:	ea000018 	b	3000a668 <DM9000_Init+0x490>
3000a604:	ea000011 	b	3000a650 <DM9000_Init+0x478>
3000a608:	e59f30f0 	ldr	r3, [pc, #240]	; 3000a700 <DM9000_Init+0x528>
3000a60c:	e51b1018 	ldr	r1, [fp, #-24]
3000a610:	e0813003 	add	r3, r1, r3
3000a614:	e1a00003 	mov	r0, r3
3000a618:	ebffd9b5 	bl	30000cf4 <printf>
3000a61c:	ea000018 	b	3000a684 <DM9000_Init+0x4ac>
3000a620:	e59f30dc 	ldr	r3, [pc, #220]	; 3000a704 <DM9000_Init+0x52c>
3000a624:	e51b2018 	ldr	r2, [fp, #-24]
3000a628:	e0823003 	add	r3, r2, r3
3000a62c:	e1a00003 	mov	r0, r3
3000a630:	ebffd9af 	bl	30000cf4 <printf>
3000a634:	ea000012 	b	3000a684 <DM9000_Init+0x4ac>
3000a638:	e59f30c8 	ldr	r3, [pc, #200]	; 3000a708 <DM9000_Init+0x530>
3000a63c:	e51b0018 	ldr	r0, [fp, #-24]
3000a640:	e0803003 	add	r3, r0, r3
3000a644:	e1a00003 	mov	r0, r3
3000a648:	ebffd9a9 	bl	30000cf4 <printf>
3000a64c:	ea00000c 	b	3000a684 <DM9000_Init+0x4ac>
3000a650:	e59f30b4 	ldr	r3, [pc, #180]	; 3000a70c <DM9000_Init+0x534>
3000a654:	e51b1018 	ldr	r1, [fp, #-24]
3000a658:	e0813003 	add	r3, r1, r3
3000a65c:	e1a00003 	mov	r0, r3
3000a660:	ebffd9a3 	bl	30000cf4 <printf>
3000a664:	ea000006 	b	3000a684 <DM9000_Init+0x4ac>
3000a668:	e55b3009 	ldrb	r3, [fp, #-9]
3000a66c:	e59f209c 	ldr	r2, [pc, #156]	; 3000a710 <DM9000_Init+0x538>
3000a670:	e51b0018 	ldr	r0, [fp, #-24]
3000a674:	e0802002 	add	r2, r0, r2
3000a678:	e1a00002 	mov	r0, r2
3000a67c:	e1a01003 	mov	r1, r3
3000a680:	ebffd99b 	bl	30000cf4 <printf>
3000a684:	e59f3088 	ldr	r3, [pc, #136]	; 3000a714 <DM9000_Init+0x53c>
3000a688:	e51b1018 	ldr	r1, [fp, #-24]
3000a68c:	e0813003 	add	r3, r1, r3
3000a690:	e1a00003 	mov	r0, r3
3000a694:	ebffd996 	bl	30000cf4 <printf>
3000a698:	e3a02000 	mov	r2, #0	; 0x0
3000a69c:	e50b2014 	str	r2, [fp, #-20]
3000a6a0:	e51b3014 	ldr	r3, [fp, #-20]
3000a6a4:	e1a00003 	mov	r0, r3
3000a6a8:	e24bd004 	sub	sp, fp, #4	; 0x4
3000a6ac:	e8bd4800 	pop	{fp, lr}
3000a6b0:	e12fff1e 	bx	lr
3000a6b4:	cfff5e08 	.word	0xcfff5e08
3000a6b8:	3000d9c8 	.word	0x3000d9c8
3000a6bc:	3000c9f4 	.word	0x3000c9f4
3000a6c0:	30008658 	.word	0x30008658
3000a6c4:	30008838 	.word	0x30008838
3000a6c8:	30008a70 	.word	0x30008a70
3000a6cc:	3000ca14 	.word	0x3000ca14
3000a6d0:	30008700 	.word	0x30008700
3000a6d4:	300088e4 	.word	0x300088e4
3000a6d8:	30008afc 	.word	0x30008afc
3000a6dc:	3000ca34 	.word	0x3000ca34
3000a6e0:	300085cc 	.word	0x300085cc
3000a6e4:	300087ac 	.word	0x300087ac
3000a6e8:	3000898c 	.word	0x3000898c
3000a6ec:	3000ca54 	.word	0x3000ca54
3000a6f0:	3000cfd0 	.word	0x3000cfd0
3000a6f4:	3000ca74 	.word	0x3000ca74
3000a6f8:	3000ca7c 	.word	0x3000ca7c
3000a6fc:	3000ca80 	.word	0x3000ca80
3000a700:	3000ca90 	.word	0x3000ca90
3000a704:	3000caa4 	.word	0x3000caa4
3000a708:	3000cab8 	.word	0x3000cab8
3000a70c:	3000cacc 	.word	0x3000cacc
3000a710:	3000cae0 	.word	0x3000cae0
3000a714:	3000caf0 	.word	0x3000caf0

3000a718 <test_dm9000>:
3000a718:	e92d4800 	push	{fp, lr}
3000a71c:	e28db004 	add	fp, sp, #4	; 0x4
3000a720:	e24dd010 	sub	sp, sp, #16	; 0x10
3000a724:	e59f0144 	ldr	r0, [pc, #324]	; 3000a870 <test_dm9000+0x158>
3000a728:	e50b0010 	str	r0, [fp, #-16]
3000a72c:	e51b1010 	ldr	r1, [fp, #-16]
3000a730:	e08f1001 	add	r1, pc, r1
3000a734:	e50b1010 	str	r1, [fp, #-16]
3000a738:	ebfffaa7 	bl	300091dc <test_dm9000_ID>
3000a73c:	ebfffb1c 	bl	300093b4 <dm9000_regs>
3000a740:	e3a03000 	mov	r3, #0	; 0x0
3000a744:	e50b300c 	str	r3, [fp, #-12]
3000a748:	e3a03010 	mov	r3, #16	; 0x10
3000a74c:	e50b3008 	str	r3, [fp, #-8]
3000a750:	ea000010 	b	3000a798 <test_dm9000+0x80>
3000a754:	e51b300c 	ldr	r3, [fp, #-12]
3000a758:	e2833010 	add	r3, r3, #16	; 0x10
3000a75c:	e1a01003 	mov	r1, r3
3000a760:	e51b200c 	ldr	r2, [fp, #-12]
3000a764:	e59f3108 	ldr	r3, [pc, #264]	; 3000a874 <test_dm9000+0x15c>
3000a768:	e51b0010 	ldr	r0, [fp, #-16]
3000a76c:	e0803003 	add	r3, r0, r3
3000a770:	e7d33002 	ldrb	r3, [r3, r2]
3000a774:	e1a00001 	mov	r0, r1
3000a778:	e1a01003 	mov	r1, r3
3000a77c:	ebfff921 	bl	30008c08 <DM9000_iow>
3000a780:	e51b300c 	ldr	r3, [fp, #-12]
3000a784:	e2833001 	add	r3, r3, #1	; 0x1
3000a788:	e50b300c 	str	r3, [fp, #-12]
3000a78c:	e51b3008 	ldr	r3, [fp, #-8]
3000a790:	e2833001 	add	r3, r3, #1	; 0x1
3000a794:	e50b3008 	str	r3, [fp, #-8]
3000a798:	e51b300c 	ldr	r3, [fp, #-12]
3000a79c:	e3530005 	cmp	r3, #5	; 0x5
3000a7a0:	daffffeb 	ble	3000a754 <test_dm9000+0x3c>
3000a7a4:	e3a03000 	mov	r3, #0	; 0x0
3000a7a8:	e50b300c 	str	r3, [fp, #-12]
3000a7ac:	e3a03016 	mov	r3, #22	; 0x16
3000a7b0:	e50b3008 	str	r3, [fp, #-8]
3000a7b4:	ea000009 	b	3000a7e0 <test_dm9000+0xc8>
3000a7b8:	e51b3008 	ldr	r3, [fp, #-8]
3000a7bc:	e1a00003 	mov	r0, r3
3000a7c0:	e3a010ff 	mov	r1, #255	; 0xff
3000a7c4:	ebfff90f 	bl	30008c08 <DM9000_iow>
3000a7c8:	e51b300c 	ldr	r3, [fp, #-12]
3000a7cc:	e2833001 	add	r3, r3, #1	; 0x1
3000a7d0:	e50b300c 	str	r3, [fp, #-12]
3000a7d4:	e51b3008 	ldr	r3, [fp, #-8]
3000a7d8:	e2833001 	add	r3, r3, #1	; 0x1
3000a7dc:	e50b3008 	str	r3, [fp, #-8]
3000a7e0:	e51b300c 	ldr	r3, [fp, #-12]
3000a7e4:	e3530007 	cmp	r3, #7	; 0x7
3000a7e8:	dafffff2 	ble	3000a7b8 <test_dm9000+0xa0>
3000a7ec:	e3a03000 	mov	r3, #0	; 0x0
3000a7f0:	e50b300c 	str	r3, [fp, #-12]
3000a7f4:	e3a03010 	mov	r3, #16	; 0x10
3000a7f8:	e50b3008 	str	r3, [fp, #-8]
3000a7fc:	ea000010 	b	3000a844 <test_dm9000+0x12c>
3000a800:	e51b3008 	ldr	r3, [fp, #-8]
3000a804:	e1a00003 	mov	r0, r3
3000a808:	ebfff919 	bl	30008c74 <DM9000_ior>
3000a80c:	e1a03000 	mov	r3, r0
3000a810:	e1a02003 	mov	r2, r3
3000a814:	e59f305c 	ldr	r3, [pc, #92]	; 3000a878 <test_dm9000+0x160>
3000a818:	e51b1010 	ldr	r1, [fp, #-16]
3000a81c:	e0813003 	add	r3, r1, r3
3000a820:	e1a00003 	mov	r0, r3
3000a824:	e1a01002 	mov	r1, r2
3000a828:	ebffd931 	bl	30000cf4 <printf>
3000a82c:	e51b300c 	ldr	r3, [fp, #-12]
3000a830:	e2833001 	add	r3, r3, #1	; 0x1
3000a834:	e50b300c 	str	r3, [fp, #-12]
3000a838:	e51b3008 	ldr	r3, [fp, #-8]
3000a83c:	e2833001 	add	r3, r3, #1	; 0x1
3000a840:	e50b3008 	str	r3, [fp, #-8]
3000a844:	e51b300c 	ldr	r3, [fp, #-12]
3000a848:	e3530005 	cmp	r3, #5	; 0x5
3000a84c:	daffffeb 	ble	3000a800 <test_dm9000+0xe8>
3000a850:	e59f3024 	ldr	r3, [pc, #36]	; 3000a87c <test_dm9000+0x164>
3000a854:	e51b2010 	ldr	r2, [fp, #-16]
3000a858:	e0823003 	add	r3, r2, r3
3000a85c:	e1a00003 	mov	r0, r3
3000a860:	ebffd923 	bl	30000cf4 <printf>
3000a864:	e24bd004 	sub	sp, fp, #4	; 0x4
3000a868:	e8bd4800 	pop	{fp, lr}
3000a86c:	e12fff1e 	bx	lr
3000a870:	cfff58c8 	.word	0xcfff58c8
3000a874:	3000cfd0 	.word	0x3000cfd0
3000a878:	3000ca74 	.word	0x3000ca74
3000a87c:	3000ca7c 	.word	0x3000ca7c

3000a880 <dm9000_initialize>:
3000a880:	e92d4800 	push	{fp, lr}
3000a884:	e28db004 	add	fp, sp, #4	; 0x4
3000a888:	e24dd010 	sub	sp, sp, #16	; 0x10
3000a88c:	e59f1114 	ldr	r1, [pc, #276]	; 3000a9a8 <dm9000_initialize+0x128>
3000a890:	e50b1014 	str	r1, [fp, #-20]
3000a894:	e51b2014 	ldr	r2, [fp, #-20]
3000a898:	e08f2002 	add	r2, pc, r2
3000a89c:	e50b2014 	str	r2, [fp, #-20]
3000a8a0:	e50b0010 	str	r0, [fp, #-16]
3000a8a4:	e3a03000 	mov	r3, #0	; 0x0
3000a8a8:	e50b300c 	str	r3, [fp, #-12]
3000a8ac:	ebfff92c 	bl	30008d64 <get_dm9000_resoures>
3000a8b0:	e1a03000 	mov	r3, r0
3000a8b4:	e50b300c 	str	r3, [fp, #-12]
3000a8b8:	e51b300c 	ldr	r3, [fp, #-12]
3000a8bc:	e3530000 	cmp	r3, #0	; 0x0
3000a8c0:	aa000005 	bge	3000a8dc <dm9000_initialize+0x5c>
3000a8c4:	e59f30e0 	ldr	r3, [pc, #224]	; 3000a9ac <dm9000_initialize+0x12c>
3000a8c8:	e51b1014 	ldr	r1, [fp, #-20]
3000a8cc:	e0813003 	add	r3, r1, r3
3000a8d0:	e1a00003 	mov	r0, r3
3000a8d4:	ebffd973 	bl	30000ea8 <puts>
3000a8d8:	ea00002d 	b	3000a994 <dm9000_initialize+0x114>
3000a8dc:	e59f30cc 	ldr	r3, [pc, #204]	; 3000a9b0 <dm9000_initialize+0x130>
3000a8e0:	e51b2014 	ldr	r2, [fp, #-20]
3000a8e4:	e0823003 	add	r3, r2, r3
3000a8e8:	e28330a8 	add	r3, r3, #168	; 0xa8
3000a8ec:	e50b3008 	str	r3, [fp, #-8]
3000a8f0:	e59f30bc 	ldr	r3, [pc, #188]	; 3000a9b4 <dm9000_initialize+0x134>
3000a8f4:	e51b1014 	ldr	r1, [fp, #-20]
3000a8f8:	e0813003 	add	r3, r1, r3
3000a8fc:	e1a00003 	mov	r0, r3
3000a900:	e59f30b0 	ldr	r3, [pc, #176]	; 3000a9b8 <dm9000_initialize+0x138>
3000a904:	e51b2014 	ldr	r2, [fp, #-20]
3000a908:	e0823003 	add	r3, r2, r3
3000a90c:	e1a01003 	mov	r1, r3
3000a910:	e59f30a4 	ldr	r3, [pc, #164]	; 3000a9bc <dm9000_initialize+0x13c>
3000a914:	e51b2014 	ldr	r2, [fp, #-20]
3000a918:	e0823003 	add	r3, r2, r3
3000a91c:	e1a02003 	mov	r2, r3
3000a920:	e3a03e49 	mov	r3, #1168	; 0x490
3000a924:	e2833001 	add	r3, r3, #1	; 0x1
3000a928:	ebffd8f1 	bl	30000cf4 <printf>
3000a92c:	e51b0008 	ldr	r0, [fp, #-8]
3000a930:	ebfffa11 	bl	3000917c <dm9000_get_enetaddr>
3000a934:	e51b2008 	ldr	r2, [fp, #-8]
3000a938:	e59f3080 	ldr	r3, [pc, #128]	; 3000a9c0 <dm9000_initialize+0x140>
3000a93c:	e51b1014 	ldr	r1, [fp, #-20]
3000a940:	e7913003 	ldr	r3, [r1, r3]
3000a944:	e5823028 	str	r3, [r2, #40]
3000a948:	e51b2008 	ldr	r2, [fp, #-8]
3000a94c:	e59f3070 	ldr	r3, [pc, #112]	; 3000a9c4 <dm9000_initialize+0x144>
3000a950:	e51b1014 	ldr	r1, [fp, #-20]
3000a954:	e0813003 	add	r3, r1, r3
3000a958:	e5823034 	str	r3, [r2, #52]
3000a95c:	e51b2008 	ldr	r2, [fp, #-8]
3000a960:	e59f3060 	ldr	r3, [pc, #96]	; 3000a9c8 <dm9000_initialize+0x148>
3000a964:	e51b1014 	ldr	r1, [fp, #-20]
3000a968:	e7913003 	ldr	r3, [r1, r3]
3000a96c:	e582302c 	str	r3, [r2, #44]
3000a970:	e51b2008 	ldr	r2, [fp, #-8]
3000a974:	e59f3050 	ldr	r3, [pc, #80]	; 3000a9cc <dm9000_initialize+0x14c>
3000a978:	e51b1014 	ldr	r1, [fp, #-20]
3000a97c:	e0813003 	add	r3, r1, r3
3000a980:	e5823030 	str	r3, [r2, #48]
3000a984:	e51b0008 	ldr	r0, [fp, #-8]
3000a988:	eb000107 	bl	3000adac <eth_register>
3000a98c:	e1a03000 	mov	r3, r0
3000a990:	e50b300c 	str	r3, [fp, #-12]
3000a994:	e51b300c 	ldr	r3, [fp, #-12]
3000a998:	e1a00003 	mov	r0, r3
3000a99c:	e24bd004 	sub	sp, fp, #4	; 0x4
3000a9a0:	e8bd4800 	pop	{fp, lr}
3000a9a4:	e12fff1e 	bx	lr
3000a9a8:	cfff5760 	.word	0xcfff5760
3000a9ac:	3000cb0c 	.word	0x3000cb0c
3000a9b0:	3000d9c8 	.word	0x3000d9c8
3000a9b4:	3000c610 	.word	0x3000c610
3000a9b8:	3000c61c 	.word	0x3000c61c
3000a9bc:	3000caf8 	.word	0x3000caf8
3000a9c0:	0000059c 	.word	0x0000059c
3000a9c4:	3000a194 	.word	0x3000a194
3000a9c8:	00000590 	.word	0x00000590
3000a9cc:	30009ae8 	.word	0x30009ae8

3000a9d0 <arp_test>:
3000a9d0:	e92d4830 	push	{r4, r5, fp, lr}
3000a9d4:	e28db00c 	add	fp, sp, #12	; 0xc
3000a9d8:	e59f4030 	ldr	r4, [pc, #48]	; 3000aa10 <arp_test+0x40>
3000a9dc:	e08f4004 	add	r4, pc, r4
3000a9e0:	e59f302c 	ldr	r3, [pc, #44]	; 3000aa14 <arp_test+0x44>
3000a9e4:	e0843003 	add	r3, r4, r3
3000a9e8:	e1a00003 	mov	r0, r3
3000a9ec:	e3a0102a 	mov	r1, #42	; 0x2a
3000a9f0:	ebfffb98 	bl	30009858 <DM9000_sendPacket>
3000a9f4:	e59f301c 	ldr	r3, [pc, #28]	; 3000aa18 <arp_test+0x48>
3000a9f8:	e0843003 	add	r3, r4, r3
3000a9fc:	e1a00003 	mov	r0, r3
3000aa00:	ebffd8bb 	bl	30000cf4 <printf>
3000aa04:	e24bd00c 	sub	sp, fp, #12	; 0xc
3000aa08:	e8bd4830 	pop	{r4, r5, fp, lr}
3000aa0c:	e12fff1e 	bx	lr
3000aa10:	cfff561c 	.word	0xcfff561c
3000aa14:	3000cfe0 	.word	0x3000cfe0
3000aa18:	3000cb24 	.word	0x3000cb24

3000aa1c <arp_process>:
3000aa1c:	e92d4800 	push	{fp, lr}
3000aa20:	e28db004 	add	fp, sp, #4	; 0x4
3000aa24:	e24dd028 	sub	sp, sp, #40	; 0x28
3000aa28:	e59f2160 	ldr	r2, [pc, #352]	; 3000ab90 <arp_process+0x174>
3000aa2c:	e50b2028 	str	r2, [fp, #-40]
3000aa30:	e51b3028 	ldr	r3, [fp, #-40]
3000aa34:	e08f3003 	add	r3, pc, r3
3000aa38:	e50b3028 	str	r3, [fp, #-40]
3000aa3c:	e50b0018 	str	r0, [fp, #-24]
3000aa40:	e50b101c 	str	r1, [fp, #-28]
3000aa44:	e51b3018 	ldr	r3, [fp, #-24]
3000aa48:	e50b3010 	str	r3, [fp, #-16]
3000aa4c:	e51b301c 	ldr	r3, [fp, #-28]
3000aa50:	e353001b 	cmp	r3, #27	; 0x1b
3000aa54:	8a000002 	bhi	3000aa64 <arp_process+0x48>
3000aa58:	e3e01000 	mvn	r1, #0	; 0x0
3000aa5c:	e50b1024 	str	r1, [fp, #-36]
3000aa60:	ea000045 	b	3000ab7c <arp_process+0x160>
3000aa64:	e51b3010 	ldr	r3, [fp, #-16]
3000aa68:	e1d331b0 	ldrh	r3, [r3, #16]
3000aa6c:	e1a03403 	lsl	r3, r3, #8
3000aa70:	e1a03803 	lsl	r3, r3, #16
3000aa74:	e1a02823 	lsr	r2, r3, #16
3000aa78:	e51b3010 	ldr	r3, [fp, #-16]
3000aa7c:	e1d331b0 	ldrh	r3, [r3, #16]
3000aa80:	e1a03423 	lsr	r3, r3, #8
3000aa84:	e1a03803 	lsl	r3, r3, #16
3000aa88:	e1a03823 	lsr	r3, r3, #16
3000aa8c:	e1823003 	orr	r3, r2, r3
3000aa90:	e1a03803 	lsl	r3, r3, #16
3000aa94:	e1a03823 	lsr	r3, r3, #16
3000aa98:	e1a03803 	lsl	r3, r3, #16
3000aa9c:	e1a03823 	lsr	r3, r3, #16
3000aaa0:	e50b3020 	str	r3, [fp, #-32]
3000aaa4:	e51b2020 	ldr	r2, [fp, #-32]
3000aaa8:	e3520000 	cmp	r2, #0	; 0x0
3000aaac:	0a000003 	beq	3000aac0 <arp_process+0xa4>
3000aab0:	e51b3020 	ldr	r3, [fp, #-32]
3000aab4:	e3530001 	cmp	r3, #1	; 0x1
3000aab8:	0a000008 	beq	3000aae0 <arp_process+0xc4>
3000aabc:	ea00002a 	b	3000ab6c <arp_process+0x150>
3000aac0:	e59f30cc 	ldr	r3, [pc, #204]	; 3000ab94 <arp_process+0x178>
3000aac4:	e51b1028 	ldr	r1, [fp, #-40]
3000aac8:	e0813003 	add	r3, r1, r3
3000aacc:	e1a00003 	mov	r0, r3
3000aad0:	ebffd887 	bl	30000cf4 <printf>
3000aad4:	e3a03000 	mov	r3, #0	; 0x0
3000aad8:	e50b3008 	str	r3, [fp, #-8]
3000aadc:	ea000024 	b	3000ab74 <arp_process+0x158>
3000aae0:	e59f30b0 	ldr	r3, [pc, #176]	; 3000ab98 <arp_process+0x17c>
3000aae4:	e51b2028 	ldr	r2, [fp, #-40]
3000aae8:	e0823003 	add	r3, r2, r3
3000aaec:	e1a00003 	mov	r0, r3
3000aaf0:	ebffd87f 	bl	30000cf4 <printf>
3000aaf4:	e3a03000 	mov	r3, #0	; 0x0
3000aaf8:	e50b300c 	str	r3, [fp, #-12]
3000aafc:	ea00000f 	b	3000ab40 <arp_process+0x124>
3000ab00:	e51b100c 	ldr	r1, [fp, #-12]
3000ab04:	e51b3010 	ldr	r3, [fp, #-16]
3000ab08:	e3a02010 	mov	r2, #16	; 0x10
3000ab0c:	e0833001 	add	r3, r3, r1
3000ab10:	e0833002 	add	r3, r3, r2
3000ab14:	e5d33006 	ldrb	r3, [r3, #6]
3000ab18:	e1a02003 	mov	r2, r3
3000ab1c:	e59f3078 	ldr	r3, [pc, #120]	; 3000ab9c <arp_process+0x180>
3000ab20:	e51b1028 	ldr	r1, [fp, #-40]
3000ab24:	e0813003 	add	r3, r1, r3
3000ab28:	e1a00003 	mov	r0, r3
3000ab2c:	e1a01002 	mov	r1, r2
3000ab30:	ebffd86f 	bl	30000cf4 <printf>
3000ab34:	e51b300c 	ldr	r3, [fp, #-12]
3000ab38:	e2833001 	add	r3, r3, #1	; 0x1
3000ab3c:	e50b300c 	str	r3, [fp, #-12]
3000ab40:	e51b300c 	ldr	r3, [fp, #-12]
3000ab44:	e3530005 	cmp	r3, #5	; 0x5
3000ab48:	daffffec 	ble	3000ab00 <arp_process+0xe4>
3000ab4c:	e59f304c 	ldr	r3, [pc, #76]	; 3000aba0 <arp_process+0x184>
3000ab50:	e51b2028 	ldr	r2, [fp, #-40]
3000ab54:	e0823003 	add	r3, r2, r3
3000ab58:	e1a00003 	mov	r0, r3
3000ab5c:	ebffd864 	bl	30000cf4 <printf>
3000ab60:	e3a03000 	mov	r3, #0	; 0x0
3000ab64:	e50b3008 	str	r3, [fp, #-8]
3000ab68:	ea000001 	b	3000ab74 <arp_process+0x158>
3000ab6c:	e3e03000 	mvn	r3, #0	; 0x0
3000ab70:	e50b3008 	str	r3, [fp, #-8]
3000ab74:	e51b3008 	ldr	r3, [fp, #-8]
3000ab78:	e50b3024 	str	r3, [fp, #-36]
3000ab7c:	e51b3024 	ldr	r3, [fp, #-36]
3000ab80:	e1a00003 	mov	r0, r3
3000ab84:	e24bd004 	sub	sp, fp, #4	; 0x4
3000ab88:	e8bd4800 	pop	{fp, lr}
3000ab8c:	e12fff1e 	bx	lr
3000ab90:	cfff55c4 	.word	0xcfff55c4
3000ab94:	3000cb44 	.word	0x3000cb44
3000ab98:	3000cb54 	.word	0x3000cb54
3000ab9c:	3000cb70 	.word	0x3000cb70
3000aba0:	3000cb74 	.word	0x3000cb74

3000aba4 <cal_chksum>:
3000aba4:	e52db004 	push	{fp}		; (str fp, [sp, #-4]!)
3000aba8:	e28db000 	add	fp, sp, #0	; 0x0
3000abac:	e24dd01c 	sub	sp, sp, #28	; 0x1c
3000abb0:	e50b0018 	str	r0, [fp, #-24]
3000abb4:	e50b101c 	str	r1, [fp, #-28]
3000abb8:	e51b301c 	ldr	r3, [fp, #-28]
3000abbc:	e50b3014 	str	r3, [fp, #-20]
3000abc0:	e3a03000 	mov	r3, #0	; 0x0
3000abc4:	e50b3010 	str	r3, [fp, #-16]
3000abc8:	e51b3018 	ldr	r3, [fp, #-24]
3000abcc:	e50b300c 	str	r3, [fp, #-12]
3000abd0:	e3a03000 	mov	r3, #0	; 0x0
3000abd4:	e14b30b6 	strh	r3, [fp, #-6]
3000abd8:	ea00000b 	b	3000ac0c <cal_chksum+0x68>
3000abdc:	e51b300c 	ldr	r3, [fp, #-12]
3000abe0:	e1d330b0 	ldrh	r3, [r3]
3000abe4:	e1a02003 	mov	r2, r3
3000abe8:	e51b3010 	ldr	r3, [fp, #-16]
3000abec:	e0833002 	add	r3, r3, r2
3000abf0:	e50b3010 	str	r3, [fp, #-16]
3000abf4:	e51b300c 	ldr	r3, [fp, #-12]
3000abf8:	e2833002 	add	r3, r3, #2	; 0x2
3000abfc:	e50b300c 	str	r3, [fp, #-12]
3000ac00:	e51b3014 	ldr	r3, [fp, #-20]
3000ac04:	e2433002 	sub	r3, r3, #2	; 0x2
3000ac08:	e50b3014 	str	r3, [fp, #-20]
3000ac0c:	e51b3014 	ldr	r3, [fp, #-20]
3000ac10:	e3530001 	cmp	r3, #1	; 0x1
3000ac14:	cafffff0 	bgt	3000abdc <cal_chksum+0x38>
3000ac18:	e51b3014 	ldr	r3, [fp, #-20]
3000ac1c:	e3530001 	cmp	r3, #1	; 0x1
3000ac20:	1a000005 	bne	3000ac3c <cal_chksum+0x98>
3000ac24:	e51b300c 	ldr	r3, [fp, #-12]
3000ac28:	e5d33000 	ldrb	r3, [r3]
3000ac2c:	e1a02003 	mov	r2, r3
3000ac30:	e51b3010 	ldr	r3, [fp, #-16]
3000ac34:	e0833002 	add	r3, r3, r2
3000ac38:	e50b3010 	str	r3, [fp, #-16]
3000ac3c:	e51b3010 	ldr	r3, [fp, #-16]
3000ac40:	e1a02843 	asr	r2, r3, #16
3000ac44:	e51b3010 	ldr	r3, [fp, #-16]
3000ac48:	e1a03803 	lsl	r3, r3, #16
3000ac4c:	e1a03823 	lsr	r3, r3, #16
3000ac50:	e0823003 	add	r3, r2, r3
3000ac54:	e50b3010 	str	r3, [fp, #-16]
3000ac58:	e51b3010 	ldr	r3, [fp, #-16]
3000ac5c:	e1a02843 	asr	r2, r3, #16
3000ac60:	e51b3010 	ldr	r3, [fp, #-16]
3000ac64:	e0833002 	add	r3, r3, r2
3000ac68:	e50b3010 	str	r3, [fp, #-16]
3000ac6c:	e51b3010 	ldr	r3, [fp, #-16]
3000ac70:	e1a03803 	lsl	r3, r3, #16
3000ac74:	e1a03823 	lsr	r3, r3, #16
3000ac78:	e1e03003 	mvn	r3, r3
3000ac7c:	e14b30b6 	strh	r3, [fp, #-6]
3000ac80:	e15b30b6 	ldrh	r3, [fp, #-6]
3000ac84:	e1a00003 	mov	r0, r3
3000ac88:	e28bd000 	add	sp, fp, #0	; 0x0
3000ac8c:	e8bd0800 	pop	{fp}
3000ac90:	e12fff1e 	bx	lr

3000ac94 <NetCksum>:
3000ac94:	e52db004 	push	{fp}		; (str fp, [sp, #-4]!)
3000ac98:	e28db000 	add	fp, sp, #0	; 0x0
3000ac9c:	e24dd014 	sub	sp, sp, #20	; 0x14
3000aca0:	e50b0010 	str	r0, [fp, #-16]
3000aca4:	e50b1014 	str	r1, [fp, #-20]
3000aca8:	e51b3010 	ldr	r3, [fp, #-16]
3000acac:	e50b3008 	str	r3, [fp, #-8]
3000acb0:	e3a03000 	mov	r3, #0	; 0x0
3000acb4:	e50b300c 	str	r3, [fp, #-12]
3000acb8:	ea000008 	b	3000ace0 <NetCksum+0x4c>
3000acbc:	e51b3008 	ldr	r3, [fp, #-8]
3000acc0:	e1d330b0 	ldrh	r3, [r3]
3000acc4:	e1a02003 	mov	r2, r3
3000acc8:	e51b300c 	ldr	r3, [fp, #-12]
3000accc:	e0833002 	add	r3, r3, r2
3000acd0:	e50b300c 	str	r3, [fp, #-12]
3000acd4:	e51b3008 	ldr	r3, [fp, #-8]
3000acd8:	e2833002 	add	r3, r3, #2	; 0x2
3000acdc:	e50b3008 	str	r3, [fp, #-8]
3000ace0:	e51b3014 	ldr	r3, [fp, #-20]
3000ace4:	e3530000 	cmp	r3, #0	; 0x0
3000ace8:	d3a03000 	movle	r3, #0	; 0x0
3000acec:	c3a03001 	movgt	r3, #1	; 0x1
3000acf0:	e20320ff 	and	r2, r3, #255	; 0xff
3000acf4:	e51b3014 	ldr	r3, [fp, #-20]
3000acf8:	e2433001 	sub	r3, r3, #1	; 0x1
3000acfc:	e50b3014 	str	r3, [fp, #-20]
3000ad00:	e3520000 	cmp	r2, #0	; 0x0
3000ad04:	1affffec 	bne	3000acbc <NetCksum+0x28>
3000ad08:	e51b300c 	ldr	r3, [fp, #-12]
3000ad0c:	e1a03803 	lsl	r3, r3, #16
3000ad10:	e1a03823 	lsr	r3, r3, #16
3000ad14:	e51b200c 	ldr	r2, [fp, #-12]
3000ad18:	e1a02822 	lsr	r2, r2, #16
3000ad1c:	e0833002 	add	r3, r3, r2
3000ad20:	e50b300c 	str	r3, [fp, #-12]
3000ad24:	e51b300c 	ldr	r3, [fp, #-12]
3000ad28:	e1a03803 	lsl	r3, r3, #16
3000ad2c:	e1a03823 	lsr	r3, r3, #16
3000ad30:	e51b200c 	ldr	r2, [fp, #-12]
3000ad34:	e1a02822 	lsr	r2, r2, #16
3000ad38:	e0833002 	add	r3, r3, r2
3000ad3c:	e50b300c 	str	r3, [fp, #-12]
3000ad40:	e51b300c 	ldr	r3, [fp, #-12]
3000ad44:	e1a03803 	lsl	r3, r3, #16
3000ad48:	e1a03823 	lsr	r3, r3, #16
3000ad4c:	e1a00003 	mov	r0, r3
3000ad50:	e28bd000 	add	sp, fp, #0	; 0x0
3000ad54:	e8bd0800 	pop	{fp}
3000ad58:	e12fff1e 	bx	lr

3000ad5c <NetCksumOk>:
3000ad5c:	e92d4800 	push	{fp, lr}
3000ad60:	e28db004 	add	fp, sp, #4	; 0x4
3000ad64:	e24dd008 	sub	sp, sp, #8	; 0x8
3000ad68:	e50b0008 	str	r0, [fp, #-8]
3000ad6c:	e50b100c 	str	r1, [fp, #-12]
3000ad70:	e51b0008 	ldr	r0, [fp, #-8]
3000ad74:	e51b100c 	ldr	r1, [fp, #-12]
3000ad78:	ebffffc5 	bl	3000ac94 <NetCksum>
3000ad7c:	e1a03000 	mov	r3, r0
3000ad80:	e2833001 	add	r3, r3, #1	; 0x1
3000ad84:	e3c33001 	bic	r3, r3, #1	; 0x1
3000ad88:	e1a03803 	lsl	r3, r3, #16
3000ad8c:	e1a03823 	lsr	r3, r3, #16
3000ad90:	e3530000 	cmp	r3, #0	; 0x0
3000ad94:	13a03000 	movne	r3, #0	; 0x0
3000ad98:	03a03001 	moveq	r3, #1	; 0x1
3000ad9c:	e1a00003 	mov	r0, r3
3000ada0:	e24bd004 	sub	sp, fp, #4	; 0x4
3000ada4:	e8bd4800 	pop	{fp, lr}
3000ada8:	e12fff1e 	bx	lr

3000adac <eth_register>:
3000adac:	e92d4800 	push	{fp, lr}
3000adb0:	e28db004 	add	fp, sp, #4	; 0x4
3000adb4:	e24dd018 	sub	sp, sp, #24	; 0x18
3000adb8:	e59f1128 	ldr	r1, [pc, #296]	; 3000aee8 <eth_register+0x13c>
3000adbc:	e50b1018 	str	r1, [fp, #-24]
3000adc0:	e51b2018 	ldr	r2, [fp, #-24]
3000adc4:	e08f2002 	add	r2, pc, r2
3000adc8:	e50b2018 	str	r2, [fp, #-24]
3000adcc:	e50b0010 	str	r0, [fp, #-16]
3000add0:	e51b3010 	ldr	r3, [fp, #-16]
3000add4:	e3530000 	cmp	r3, #0	; 0x0
3000add8:	1a000007 	bne	3000adfc <eth_register+0x50>
3000addc:	e59f3108 	ldr	r3, [pc, #264]	; 3000aeec <eth_register+0x140>
3000ade0:	e51b1018 	ldr	r1, [fp, #-24]
3000ade4:	e0813003 	add	r3, r1, r3
3000ade8:	e1a00003 	mov	r0, r3
3000adec:	ebffd7c0 	bl	30000cf4 <printf>
3000adf0:	e3e02000 	mvn	r2, #0	; 0x0
3000adf4:	e50b2014 	str	r2, [fp, #-20]
3000adf8:	ea000035 	b	3000aed4 <eth_register+0x128>
3000adfc:	e59f30ec 	ldr	r3, [pc, #236]	; 3000aef0 <eth_register+0x144>
3000ae00:	e51b1018 	ldr	r1, [fp, #-24]
3000ae04:	e0813003 	add	r3, r1, r3
3000ae08:	e5933000 	ldr	r3, [r3]
3000ae0c:	e3530000 	cmp	r3, #0	; 0x0
3000ae10:	1a000005 	bne	3000ae2c <eth_register+0x80>
3000ae14:	e59f30d4 	ldr	r3, [pc, #212]	; 3000aef0 <eth_register+0x144>
3000ae18:	e51b1018 	ldr	r1, [fp, #-24]
3000ae1c:	e0812003 	add	r2, r1, r3
3000ae20:	e51b3010 	ldr	r3, [fp, #-16]
3000ae24:	e5823000 	str	r3, [r2]
3000ae28:	ea000013 	b	3000ae7c <eth_register+0xd0>
3000ae2c:	e59f30bc 	ldr	r3, [pc, #188]	; 3000aef0 <eth_register+0x144>
3000ae30:	e51b2018 	ldr	r2, [fp, #-24]
3000ae34:	e0823003 	add	r3, r2, r3
3000ae38:	e5933000 	ldr	r3, [r3]
3000ae3c:	e50b3008 	str	r3, [fp, #-8]
3000ae40:	ea000002 	b	3000ae50 <eth_register+0xa4>
3000ae44:	e51b3008 	ldr	r3, [fp, #-8]
3000ae48:	e593303c 	ldr	r3, [r3, #60]
3000ae4c:	e50b3008 	str	r3, [fp, #-8]
3000ae50:	e51b3008 	ldr	r3, [fp, #-8]
3000ae54:	e593203c 	ldr	r2, [r3, #60]
3000ae58:	e59f3090 	ldr	r3, [pc, #144]	; 3000aef0 <eth_register+0x144>
3000ae5c:	e51b1018 	ldr	r1, [fp, #-24]
3000ae60:	e0813003 	add	r3, r1, r3
3000ae64:	e5933000 	ldr	r3, [r3]
3000ae68:	e1520003 	cmp	r2, r3
3000ae6c:	1afffff4 	bne	3000ae44 <eth_register+0x98>
3000ae70:	e51b2008 	ldr	r2, [fp, #-8]
3000ae74:	e51b3010 	ldr	r3, [fp, #-16]
3000ae78:	e582303c 	str	r3, [r2, #60]
3000ae7c:	e51b2010 	ldr	r2, [fp, #-16]
3000ae80:	e3a03000 	mov	r3, #0	; 0x0
3000ae84:	e5823024 	str	r3, [r2, #36]
3000ae88:	e59f3060 	ldr	r3, [pc, #96]	; 3000aef0 <eth_register+0x144>
3000ae8c:	e51b2018 	ldr	r2, [fp, #-24]
3000ae90:	e0823003 	add	r3, r2, r3
3000ae94:	e5932000 	ldr	r2, [r3]
3000ae98:	e51b3010 	ldr	r3, [fp, #-16]
3000ae9c:	e583203c 	str	r2, [r3, #60]
3000aea0:	e59f304c 	ldr	r3, [pc, #76]	; 3000aef4 <eth_register+0x148>
3000aea4:	e51b1018 	ldr	r1, [fp, #-24]
3000aea8:	e0813003 	add	r3, r1, r3
3000aeac:	e5932000 	ldr	r2, [r3]
3000aeb0:	e51b3010 	ldr	r3, [fp, #-16]
3000aeb4:	e5832040 	str	r2, [r3, #64]
3000aeb8:	e2822001 	add	r2, r2, #1	; 0x1
3000aebc:	e59f3030 	ldr	r3, [pc, #48]	; 3000aef4 <eth_register+0x148>
3000aec0:	e51b1018 	ldr	r1, [fp, #-24]
3000aec4:	e0813003 	add	r3, r1, r3
3000aec8:	e5832000 	str	r2, [r3]
3000aecc:	e3a02000 	mov	r2, #0	; 0x0
3000aed0:	e50b2014 	str	r2, [fp, #-20]
3000aed4:	e51b3014 	ldr	r3, [fp, #-20]
3000aed8:	e1a00003 	mov	r0, r3
3000aedc:	e24bd004 	sub	sp, fp, #4	; 0x4
3000aee0:	e8bd4800 	pop	{fp, lr}
3000aee4:	e12fff1e 	bx	lr
3000aee8:	cfff5234 	.word	0xcfff5234
3000aeec:	3000cb78 	.word	0x3000cb78
3000aef0:	3000dabc 	.word	0x3000dabc
3000aef4:	3000dab8 	.word	0x3000dab8

3000aef8 <eth_unregister>:
3000aef8:	e52db004 	push	{fp}		; (str fp, [sp, #-4]!)
3000aefc:	e28db000 	add	fp, sp, #0	; 0x0
3000af00:	e24dd01c 	sub	sp, sp, #28	; 0x1c
3000af04:	e59f1140 	ldr	r1, [pc, #320]	; 3000b04c <eth_unregister+0x154>
3000af08:	e50b101c 	str	r1, [fp, #-28]
3000af0c:	e51b201c 	ldr	r2, [fp, #-28]
3000af10:	e08f2002 	add	r2, pc, r2
3000af14:	e50b201c 	str	r2, [fp, #-28]
3000af18:	e50b0010 	str	r0, [fp, #-16]
3000af1c:	e59f312c 	ldr	r3, [pc, #300]	; 3000b050 <eth_unregister+0x158>
3000af20:	e51b101c 	ldr	r1, [fp, #-28]
3000af24:	e0813003 	add	r3, r1, r3
3000af28:	e5933000 	ldr	r3, [r3]
3000af2c:	e3530000 	cmp	r3, #0	; 0x0
3000af30:	1a000002 	bne	3000af40 <eth_unregister+0x48>
3000af34:	e3e02000 	mvn	r2, #0	; 0x0
3000af38:	e50b2018 	str	r2, [fp, #-24]
3000af3c:	ea00003d 	b	3000b038 <eth_unregister+0x140>
3000af40:	e59f3108 	ldr	r3, [pc, #264]	; 3000b050 <eth_unregister+0x158>
3000af44:	e51b101c 	ldr	r1, [fp, #-28]
3000af48:	e0813003 	add	r3, r1, r3
3000af4c:	e5933000 	ldr	r3, [r3]
3000af50:	e50b3008 	str	r3, [fp, #-8]
3000af54:	ea000002 	b	3000af64 <eth_unregister+0x6c>
3000af58:	e51b3008 	ldr	r3, [fp, #-8]
3000af5c:	e593303c 	ldr	r3, [r3, #60]
3000af60:	e50b3008 	str	r3, [fp, #-8]
3000af64:	e51b3008 	ldr	r3, [fp, #-8]
3000af68:	e593203c 	ldr	r2, [r3, #60]
3000af6c:	e59f30dc 	ldr	r3, [pc, #220]	; 3000b050 <eth_unregister+0x158>
3000af70:	e51b101c 	ldr	r1, [fp, #-28]
3000af74:	e0813003 	add	r3, r1, r3
3000af78:	e5933000 	ldr	r3, [r3]
3000af7c:	e1520003 	cmp	r2, r3
3000af80:	0a000004 	beq	3000af98 <eth_unregister+0xa0>
3000af84:	e51b3008 	ldr	r3, [fp, #-8]
3000af88:	e593203c 	ldr	r2, [r3, #60]
3000af8c:	e51b3010 	ldr	r3, [fp, #-16]
3000af90:	e1520003 	cmp	r2, r3
3000af94:	1affffef 	bne	3000af58 <eth_unregister+0x60>
3000af98:	e51b3008 	ldr	r3, [fp, #-8]
3000af9c:	e593203c 	ldr	r2, [r3, #60]
3000afa0:	e51b3010 	ldr	r3, [fp, #-16]
3000afa4:	e1520003 	cmp	r2, r3
3000afa8:	0a000002 	beq	3000afb8 <eth_unregister+0xc0>
3000afac:	e3e02000 	mvn	r2, #0	; 0x0
3000afb0:	e50b2018 	str	r2, [fp, #-24]
3000afb4:	ea00001f 	b	3000b038 <eth_unregister+0x140>
3000afb8:	e51b3010 	ldr	r3, [fp, #-16]
3000afbc:	e593203c 	ldr	r2, [r3, #60]
3000afc0:	e51b3008 	ldr	r3, [fp, #-8]
3000afc4:	e583203c 	str	r2, [r3, #60]
3000afc8:	e59f3080 	ldr	r3, [pc, #128]	; 3000b050 <eth_unregister+0x158>
3000afcc:	e51b101c 	ldr	r1, [fp, #-28]
3000afd0:	e0813003 	add	r3, r1, r3
3000afd4:	e5932000 	ldr	r2, [r3]
3000afd8:	e51b3010 	ldr	r3, [fp, #-16]
3000afdc:	e1520003 	cmp	r2, r3
3000afe0:	1a000012 	bne	3000b030 <eth_unregister+0x138>
3000afe4:	e51b3010 	ldr	r3, [fp, #-16]
3000afe8:	e593203c 	ldr	r2, [r3, #60]
3000afec:	e59f305c 	ldr	r3, [pc, #92]	; 3000b050 <eth_unregister+0x158>
3000aff0:	e51b101c 	ldr	r1, [fp, #-28]
3000aff4:	e0813003 	add	r3, r1, r3
3000aff8:	e5933000 	ldr	r3, [r3]
3000affc:	e1520003 	cmp	r2, r3
3000b000:	0a000003 	beq	3000b014 <eth_unregister+0x11c>
3000b004:	e51b3010 	ldr	r3, [fp, #-16]
3000b008:	e593303c 	ldr	r3, [r3, #60]
3000b00c:	e50b3014 	str	r3, [fp, #-20]
3000b010:	ea000001 	b	3000b01c <eth_unregister+0x124>
3000b014:	e3a02000 	mov	r2, #0	; 0x0
3000b018:	e50b2014 	str	r2, [fp, #-20]
3000b01c:	e59f302c 	ldr	r3, [pc, #44]	; 3000b050 <eth_unregister+0x158>
3000b020:	e51b101c 	ldr	r1, [fp, #-28]
3000b024:	e0813003 	add	r3, r1, r3
3000b028:	e51b2014 	ldr	r2, [fp, #-20]
3000b02c:	e5832000 	str	r2, [r3]
3000b030:	e3a03000 	mov	r3, #0	; 0x0
3000b034:	e50b3018 	str	r3, [fp, #-24]
3000b038:	e51b3018 	ldr	r3, [fp, #-24]
3000b03c:	e1a00003 	mov	r0, r3
3000b040:	e28bd000 	add	sp, fp, #0	; 0x0
3000b044:	e8bd0800 	pop	{fp}
3000b048:	e12fff1e 	bx	lr
3000b04c:	cfff50e8 	.word	0xcfff50e8
3000b050:	3000dabc 	.word	0x3000dabc

3000b054 <eth_init>:
3000b054:	e92d4800 	push	{fp, lr}
3000b058:	e28db004 	add	fp, sp, #4	; 0x4
3000b05c:	e24dd008 	sub	sp, sp, #8	; 0x8
3000b060:	e59f1088 	ldr	r1, [pc, #136]	; 3000b0f0 <eth_init+0x9c>
3000b064:	e50b100c 	str	r1, [fp, #-12]
3000b068:	e51b200c 	ldr	r2, [fp, #-12]
3000b06c:	e08f2002 	add	r2, pc, r2
3000b070:	e50b200c 	str	r2, [fp, #-12]
3000b074:	e59f3078 	ldr	r3, [pc, #120]	; 3000b0f4 <eth_init+0xa0>
3000b078:	e51b100c 	ldr	r1, [fp, #-12]
3000b07c:	e0813003 	add	r3, r1, r3
3000b080:	e5933000 	ldr	r3, [r3]
3000b084:	e3530000 	cmp	r3, #0	; 0x0
3000b088:	1a000002 	bne	3000b098 <eth_init+0x44>
3000b08c:	e3e02000 	mvn	r2, #0	; 0x0
3000b090:	e50b2008 	str	r2, [fp, #-8]
3000b094:	ea000010 	b	3000b0dc <eth_init+0x88>
3000b098:	e59f3054 	ldr	r3, [pc, #84]	; 3000b0f4 <eth_init+0xa0>
3000b09c:	e51b100c 	ldr	r1, [fp, #-12]
3000b0a0:	e0813003 	add	r3, r1, r3
3000b0a4:	e5932000 	ldr	r2, [r3]
3000b0a8:	e59f3048 	ldr	r3, [pc, #72]	; 3000b0f8 <eth_init+0xa4>
3000b0ac:	e51b100c 	ldr	r1, [fp, #-12]
3000b0b0:	e0813003 	add	r3, r1, r3
3000b0b4:	e5832000 	str	r2, [r3]
3000b0b8:	e59f3038 	ldr	r3, [pc, #56]	; 3000b0f8 <eth_init+0xa4>
3000b0bc:	e51b200c 	ldr	r2, [fp, #-12]
3000b0c0:	e0823003 	add	r3, r2, r3
3000b0c4:	e5933000 	ldr	r3, [r3]
3000b0c8:	e5933028 	ldr	r3, [r3, #40]
3000b0cc:	e1a0e00f 	mov	lr, pc
3000b0d0:	e12fff13 	bx	r3
3000b0d4:	e3a03000 	mov	r3, #0	; 0x0
3000b0d8:	e50b3008 	str	r3, [fp, #-8]
3000b0dc:	e51b3008 	ldr	r3, [fp, #-8]
3000b0e0:	e1a00003 	mov	r0, r3
3000b0e4:	e24bd004 	sub	sp, fp, #4	; 0x4
3000b0e8:	e8bd4800 	pop	{fp, lr}
3000b0ec:	e12fff1e 	bx	lr
3000b0f0:	cfff4f8c 	.word	0xcfff4f8c
3000b0f4:	3000dabc 	.word	0x3000dabc
3000b0f8:	3000dac0 	.word	0x3000dac0

3000b0fc <eth_send>:
3000b0fc:	e92d4800 	push	{fp, lr}
3000b100:	e28db004 	add	fp, sp, #4	; 0x4
3000b104:	e24dd010 	sub	sp, sp, #16	; 0x10
3000b108:	e59f2078 	ldr	r2, [pc, #120]	; 3000b188 <eth_send+0x8c>
3000b10c:	e50b2014 	str	r2, [fp, #-20]
3000b110:	e51b3014 	ldr	r3, [fp, #-20]
3000b114:	e08f3003 	add	r3, pc, r3
3000b118:	e50b3014 	str	r3, [fp, #-20]
3000b11c:	e50b0008 	str	r0, [fp, #-8]
3000b120:	e50b100c 	str	r1, [fp, #-12]
3000b124:	e59f3060 	ldr	r3, [pc, #96]	; 3000b18c <eth_send+0x90>
3000b128:	e51b2014 	ldr	r2, [fp, #-20]
3000b12c:	e0823003 	add	r3, r2, r3
3000b130:	e5933000 	ldr	r3, [r3]
3000b134:	e3530000 	cmp	r3, #0	; 0x0
3000b138:	1a000002 	bne	3000b148 <eth_send+0x4c>
3000b13c:	e3e03000 	mvn	r3, #0	; 0x0
3000b140:	e50b3010 	str	r3, [fp, #-16]
3000b144:	ea00000a 	b	3000b174 <eth_send+0x78>
3000b148:	e59f303c 	ldr	r3, [pc, #60]	; 3000b18c <eth_send+0x90>
3000b14c:	e51b2014 	ldr	r2, [fp, #-20]
3000b150:	e0823003 	add	r3, r2, r3
3000b154:	e5933000 	ldr	r3, [r3]
3000b158:	e593302c 	ldr	r3, [r3, #44]
3000b15c:	e51b0008 	ldr	r0, [fp, #-8]
3000b160:	e51b100c 	ldr	r1, [fp, #-12]
3000b164:	e1a0e00f 	mov	lr, pc
3000b168:	e12fff13 	bx	r3
3000b16c:	e1a03000 	mov	r3, r0
3000b170:	e50b3010 	str	r3, [fp, #-16]
3000b174:	e51b3010 	ldr	r3, [fp, #-16]
3000b178:	e1a00003 	mov	r0, r3
3000b17c:	e24bd004 	sub	sp, fp, #4	; 0x4
3000b180:	e8bd4800 	pop	{fp, lr}
3000b184:	e12fff1e 	bx	lr
3000b188:	cfff4ee4 	.word	0xcfff4ee4
3000b18c:	3000dac0 	.word	0x3000dac0

3000b190 <eth_recv>:
3000b190:	e52db004 	push	{fp}		; (str fp, [sp, #-4]!)
3000b194:	e28db000 	add	fp, sp, #0	; 0x0
3000b198:	e24dd00c 	sub	sp, sp, #12	; 0xc
3000b19c:	e50b0008 	str	r0, [fp, #-8]
3000b1a0:	e3a03000 	mov	r3, #0	; 0x0
3000b1a4:	e1a00003 	mov	r0, r3
3000b1a8:	e28bd000 	add	sp, fp, #0	; 0x0
3000b1ac:	e8bd0800 	pop	{fp}
3000b1b0:	e12fff1e 	bx	lr

3000b1b4 <eth_halt>:
3000b1b4:	e52db004 	push	{fp}		; (str fp, [sp, #-4]!)
3000b1b8:	e28db000 	add	fp, sp, #0	; 0x0
3000b1bc:	e28bd000 	add	sp, fp, #0	; 0x0
3000b1c0:	e8bd0800 	pop	{fp}
3000b1c4:	e12fff1e 	bx	lr

3000b1c8 <NetReceive>:
3000b1c8:	e92d4800 	push	{fp, lr}
3000b1cc:	e28db004 	add	fp, sp, #4	; 0x4
3000b1d0:	e24dd030 	sub	sp, sp, #48	; 0x30
3000b1d4:	e59f24f0 	ldr	r2, [pc, #1264]	; 3000b6cc <NetReceive+0x504>
3000b1d8:	e50b2030 	str	r2, [fp, #-48]
3000b1dc:	e51b3030 	ldr	r3, [fp, #-48]
3000b1e0:	e08f3003 	add	r3, pc, r3
3000b1e4:	e50b3030 	str	r3, [fp, #-48]
3000b1e8:	e50b0028 	str	r0, [fp, #-40]
3000b1ec:	e50b102c 	str	r1, [fp, #-44]
3000b1f0:	e3a03000 	mov	r3, #0	; 0x0
3000b1f4:	e14b31b4 	strh	r3, [fp, #-20]
3000b1f8:	e3e03a0f 	mvn	r3, #61440	; 0xf000
3000b1fc:	e14b31b2 	strh	r3, [fp, #-18]
3000b200:	e51b3028 	ldr	r3, [fp, #-40]
3000b204:	e50b3020 	str	r3, [fp, #-32]
3000b208:	e51b302c 	ldr	r3, [fp, #-44]
3000b20c:	e353000d 	cmp	r3, #13	; 0xd
3000b210:	9a00012a 	bls	3000b6c0 <NetReceive+0x4f8>
3000b214:	e59f34b4 	ldr	r3, [pc, #1204]	; 3000b6d0 <NetReceive+0x508>
3000b218:	e51b1030 	ldr	r1, [fp, #-48]
3000b21c:	e7913003 	ldr	r3, [r1, r3]
3000b220:	e1d330b0 	ldrh	r3, [r3]
3000b224:	e1a03403 	lsl	r3, r3, #8
3000b228:	e1a03803 	lsl	r3, r3, #16
3000b22c:	e1a02823 	lsr	r2, r3, #16
3000b230:	e59f3498 	ldr	r3, [pc, #1176]	; 3000b6d0 <NetReceive+0x508>
3000b234:	e51b1030 	ldr	r1, [fp, #-48]
3000b238:	e7913003 	ldr	r3, [r1, r3]
3000b23c:	e1d330b0 	ldrh	r3, [r3]
3000b240:	e1a03423 	lsr	r3, r3, #8
3000b244:	e1a03803 	lsl	r3, r3, #16
3000b248:	e1a03823 	lsr	r3, r3, #16
3000b24c:	e1823003 	orr	r3, r2, r3
3000b250:	e1a03803 	lsl	r3, r3, #16
3000b254:	e1a03823 	lsr	r3, r3, #16
3000b258:	e14b31b0 	strh	r3, [fp, #-16]
3000b25c:	e15b21b0 	ldrh	r2, [fp, #-16]
3000b260:	e3a03801 	mov	r3, #65536	; 0x10000
3000b264:	e2433001 	sub	r3, r3, #1	; 0x1
3000b268:	e1520003 	cmp	r2, r3
3000b26c:	1a000001 	bne	3000b278 <NetReceive+0xb0>
3000b270:	e3e03a0f 	mvn	r3, #61440	; 0xf000
3000b274:	e14b31b0 	strh	r3, [fp, #-16]
3000b278:	e59f3454 	ldr	r3, [pc, #1108]	; 3000b6d4 <NetReceive+0x50c>
3000b27c:	e51b2030 	ldr	r2, [fp, #-48]
3000b280:	e7923003 	ldr	r3, [r2, r3]
3000b284:	e1d330b0 	ldrh	r3, [r3]
3000b288:	e1a03403 	lsl	r3, r3, #8
3000b28c:	e1a03803 	lsl	r3, r3, #16
3000b290:	e1a02823 	lsr	r2, r3, #16
3000b294:	e59f3438 	ldr	r3, [pc, #1080]	; 3000b6d4 <NetReceive+0x50c>
3000b298:	e51b1030 	ldr	r1, [fp, #-48]
3000b29c:	e7913003 	ldr	r3, [r1, r3]
3000b2a0:	e1d330b0 	ldrh	r3, [r3]
3000b2a4:	e1a03423 	lsr	r3, r3, #8
3000b2a8:	e1a03803 	lsl	r3, r3, #16
3000b2ac:	e1a03823 	lsr	r3, r3, #16
3000b2b0:	e1823003 	orr	r3, r2, r3
3000b2b4:	e1a03803 	lsl	r3, r3, #16
3000b2b8:	e1a03823 	lsr	r3, r3, #16
3000b2bc:	e14b30be 	strh	r3, [fp, #-14]
3000b2c0:	e15b20be 	ldrh	r2, [fp, #-14]
3000b2c4:	e3a03801 	mov	r3, #65536	; 0x10000
3000b2c8:	e2433001 	sub	r3, r3, #1	; 0x1
3000b2cc:	e1520003 	cmp	r2, r3
3000b2d0:	1a000001 	bne	3000b2dc <NetReceive+0x114>
3000b2d4:	e3e03a0f 	mvn	r3, #61440	; 0xf000
3000b2d8:	e14b30be 	strh	r3, [fp, #-14]
3000b2dc:	e51b3020 	ldr	r3, [fp, #-32]
3000b2e0:	e1d330bc 	ldrh	r3, [r3, #12]
3000b2e4:	e1a03403 	lsl	r3, r3, #8
3000b2e8:	e1a03803 	lsl	r3, r3, #16
3000b2ec:	e1a02823 	lsr	r2, r3, #16
3000b2f0:	e51b3020 	ldr	r3, [fp, #-32]
3000b2f4:	e1d330bc 	ldrh	r3, [r3, #12]
3000b2f8:	e1a03423 	lsr	r3, r3, #8
3000b2fc:	e1a03803 	lsl	r3, r3, #16
3000b300:	e1a03823 	lsr	r3, r3, #16
3000b304:	e1823003 	orr	r3, r2, r3
3000b308:	e1a03803 	lsl	r3, r3, #16
3000b30c:	e1a03823 	lsr	r3, r3, #16
3000b310:	e1a03803 	lsl	r3, r3, #16
3000b314:	e1a03823 	lsr	r3, r3, #16
3000b318:	e50b3018 	str	r3, [fp, #-24]
3000b31c:	e51b2018 	ldr	r2, [fp, #-24]
3000b320:	e3a03e5e 	mov	r3, #1504	; 0x5e0
3000b324:	e2833009 	add	r3, r3, #9	; 0x9
3000b328:	e1520003 	cmp	r2, r3
3000b32c:	ca000018 	bgt	3000b394 <NetReceive+0x1cc>
3000b330:	e51b3020 	ldr	r3, [fp, #-32]
3000b334:	e50b300c 	str	r3, [fp, #-12]
3000b338:	e51b300c 	ldr	r3, [fp, #-12]
3000b33c:	e1d331b4 	ldrh	r3, [r3, #20]
3000b340:	e1a03403 	lsl	r3, r3, #8
3000b344:	e1a03803 	lsl	r3, r3, #16
3000b348:	e1a02823 	lsr	r2, r3, #16
3000b34c:	e51b300c 	ldr	r3, [fp, #-12]
3000b350:	e1d331b4 	ldrh	r3, [r3, #20]
3000b354:	e1a03423 	lsr	r3, r3, #8
3000b358:	e1a03803 	lsl	r3, r3, #16
3000b35c:	e1a03823 	lsr	r3, r3, #16
3000b360:	e1823003 	orr	r3, r2, r3
3000b364:	e1a03803 	lsl	r3, r3, #16
3000b368:	e1a03823 	lsr	r3, r3, #16
3000b36c:	e1a03803 	lsl	r3, r3, #16
3000b370:	e1a03823 	lsr	r3, r3, #16
3000b374:	e50b3018 	str	r3, [fp, #-24]
3000b378:	e51b3028 	ldr	r3, [fp, #-40]
3000b37c:	e2833016 	add	r3, r3, #22	; 0x16
3000b380:	e50b301c 	str	r3, [fp, #-28]
3000b384:	e51b302c 	ldr	r3, [fp, #-44]
3000b388:	e2433016 	sub	r3, r3, #22	; 0x16
3000b38c:	e50b302c 	str	r3, [fp, #-44]
3000b390:	ea00004f 	b	3000b4d4 <NetReceive+0x30c>
3000b394:	e51b3018 	ldr	r3, [fp, #-24]
3000b398:	e3530c81 	cmp	r3, #33024	; 0x8100
3000b39c:	0a000006 	beq	3000b3bc <NetReceive+0x1f4>
3000b3a0:	e51b3028 	ldr	r3, [fp, #-40]
3000b3a4:	e283300e 	add	r3, r3, #14	; 0xe
3000b3a8:	e50b301c 	str	r3, [fp, #-28]
3000b3ac:	e51b302c 	ldr	r3, [fp, #-44]
3000b3b0:	e243300e 	sub	r3, r3, #14	; 0xe
3000b3b4:	e50b302c 	str	r3, [fp, #-44]
3000b3b8:	ea000045 	b	3000b4d4 <NetReceive+0x30c>
3000b3bc:	e51b3020 	ldr	r3, [fp, #-32]
3000b3c0:	e50b3008 	str	r3, [fp, #-8]
3000b3c4:	e51b302c 	ldr	r3, [fp, #-44]
3000b3c8:	e3530011 	cmp	r3, #17	; 0x11
3000b3cc:	9a0000bb 	bls	3000b6c0 <NetReceive+0x4f8>
3000b3d0:	e59f32f8 	ldr	r3, [pc, #760]	; 3000b6d0 <NetReceive+0x508>
3000b3d4:	e51b2030 	ldr	r2, [fp, #-48]
3000b3d8:	e7923003 	ldr	r3, [r2, r3]
3000b3dc:	e1d330b0 	ldrh	r3, [r3]
3000b3e0:	e1a03403 	lsl	r3, r3, #8
3000b3e4:	e1a03803 	lsl	r3, r3, #16
3000b3e8:	e1a02823 	lsr	r2, r3, #16
3000b3ec:	e59f32dc 	ldr	r3, [pc, #732]	; 3000b6d0 <NetReceive+0x508>
3000b3f0:	e51b1030 	ldr	r1, [fp, #-48]
3000b3f4:	e7913003 	ldr	r3, [r1, r3]
3000b3f8:	e1d330b0 	ldrh	r3, [r3]
3000b3fc:	e1a03423 	lsr	r3, r3, #8
3000b400:	e1a03803 	lsl	r3, r3, #16
3000b404:	e1a03823 	lsr	r3, r3, #16
3000b408:	e1823003 	orr	r3, r2, r3
3000b40c:	e1a03803 	lsl	r3, r3, #16
3000b410:	e1a03823 	lsr	r3, r3, #16
3000b414:	e1a03803 	lsl	r3, r3, #16
3000b418:	e1a03823 	lsr	r3, r3, #16
3000b41c:	e1a02a03 	lsl	r2, r3, #20
3000b420:	e1a02a22 	lsr	r2, r2, #20
3000b424:	e3a03eff 	mov	r3, #4080	; 0xff0
3000b428:	e283300f 	add	r3, r3, #15	; 0xf
3000b42c:	e1520003 	cmp	r2, r3
3000b430:	0a0000a2 	beq	3000b6c0 <NetReceive+0x4f8>
3000b434:	e51b3008 	ldr	r3, [fp, #-8]
3000b438:	e1d330be 	ldrh	r3, [r3, #14]
3000b43c:	e1a03403 	lsl	r3, r3, #8
3000b440:	e1a03803 	lsl	r3, r3, #16
3000b444:	e1a02823 	lsr	r2, r3, #16
3000b448:	e51b3008 	ldr	r3, [fp, #-8]
3000b44c:	e1d330be 	ldrh	r3, [r3, #14]
3000b450:	e1a03423 	lsr	r3, r3, #8
3000b454:	e1a03803 	lsl	r3, r3, #16
3000b458:	e1a03823 	lsr	r3, r3, #16
3000b45c:	e1823003 	orr	r3, r2, r3
3000b460:	e1a03803 	lsl	r3, r3, #16
3000b464:	e1a03823 	lsr	r3, r3, #16
3000b468:	e14b31b4 	strh	r3, [fp, #-20]
3000b46c:	e15b31b4 	ldrh	r3, [fp, #-20]
3000b470:	e1a03a03 	lsl	r3, r3, #20
3000b474:	e1a03a23 	lsr	r3, r3, #20
3000b478:	e14b31b2 	strh	r3, [fp, #-18]
3000b47c:	e51b3008 	ldr	r3, [fp, #-8]
3000b480:	e1d331b0 	ldrh	r3, [r3, #16]
3000b484:	e1a03403 	lsl	r3, r3, #8
3000b488:	e1a03803 	lsl	r3, r3, #16
3000b48c:	e1a02823 	lsr	r2, r3, #16
3000b490:	e51b3008 	ldr	r3, [fp, #-8]
3000b494:	e1d331b0 	ldrh	r3, [r3, #16]
3000b498:	e1a03423 	lsr	r3, r3, #8
3000b49c:	e1a03803 	lsl	r3, r3, #16
3000b4a0:	e1a03823 	lsr	r3, r3, #16
3000b4a4:	e1823003 	orr	r3, r2, r3
3000b4a8:	e1a03803 	lsl	r3, r3, #16
3000b4ac:	e1a03823 	lsr	r3, r3, #16
3000b4b0:	e1a03803 	lsl	r3, r3, #16
3000b4b4:	e1a03823 	lsr	r3, r3, #16
3000b4b8:	e50b3018 	str	r3, [fp, #-24]
3000b4bc:	e51b3028 	ldr	r3, [fp, #-40]
3000b4c0:	e2833012 	add	r3, r3, #18	; 0x12
3000b4c4:	e50b301c 	str	r3, [fp, #-28]
3000b4c8:	e51b302c 	ldr	r3, [fp, #-44]
3000b4cc:	e2433012 	sub	r3, r3, #18	; 0x12
3000b4d0:	e50b302c 	str	r3, [fp, #-44]
3000b4d4:	e15b31b0 	ldrh	r3, [fp, #-16]
3000b4d8:	e1a02a03 	lsl	r2, r3, #20
3000b4dc:	e1a02a22 	lsr	r2, r2, #20
3000b4e0:	e3a03eff 	mov	r3, #4080	; 0xff0
3000b4e4:	e283300f 	add	r3, r3, #15	; 0xf
3000b4e8:	e1520003 	cmp	r2, r3
3000b4ec:	0a00000e 	beq	3000b52c <NetReceive+0x364>
3000b4f0:	e15b21b2 	ldrh	r2, [fp, #-18]
3000b4f4:	e3a03eff 	mov	r3, #4080	; 0xff0
3000b4f8:	e283300f 	add	r3, r3, #15	; 0xf
3000b4fc:	e1520003 	cmp	r2, r3
3000b500:	1a000003 	bne	3000b514 <NetReceive+0x34c>
3000b504:	e15b30be 	ldrh	r3, [fp, #-14]
3000b508:	e1a03a03 	lsl	r3, r3, #20
3000b50c:	e1a03a23 	lsr	r3, r3, #20
3000b510:	e14b31b2 	strh	r3, [fp, #-18]
3000b514:	e15b21b2 	ldrh	r2, [fp, #-18]
3000b518:	e15b31b0 	ldrh	r3, [fp, #-16]
3000b51c:	e1a03a03 	lsl	r3, r3, #20
3000b520:	e1a03a23 	lsr	r3, r3, #20
3000b524:	e1520003 	cmp	r2, r3
3000b528:	1a000064 	bne	3000b6c0 <NetReceive+0x4f8>
3000b52c:	e51b2018 	ldr	r2, [fp, #-24]
3000b530:	e50b2034 	str	r2, [fp, #-52]
3000b534:	e51b3034 	ldr	r3, [fp, #-52]
3000b538:	e3530b02 	cmp	r3, #2048	; 0x800
3000b53c:	0a000004 	beq	3000b554 <NetReceive+0x38c>
3000b540:	e3a03b02 	mov	r3, #2048	; 0x800
3000b544:	e2833006 	add	r3, r3, #6	; 0x6
3000b548:	e51b1034 	ldr	r1, [fp, #-52]
3000b54c:	e1510003 	cmp	r1, r3
3000b550:	ea00005a 	b	3000b6c0 <NetReceive+0x4f8>
3000b554:	e51b302c 	ldr	r3, [fp, #-44]
3000b558:	e353001b 	cmp	r3, #27	; 0x1b
3000b55c:	8a000007 	bhi	3000b580 <NetReceive+0x3b8>
3000b560:	e59f3170 	ldr	r3, [pc, #368]	; 3000b6d8 <NetReceive+0x510>
3000b564:	e51b2030 	ldr	r2, [fp, #-48]
3000b568:	e0823003 	add	r3, r2, r3
3000b56c:	e1a00003 	mov	r0, r3
3000b570:	e51b102c 	ldr	r1, [fp, #-44]
3000b574:	e3a0201c 	mov	r2, #28	; 0x1c
3000b578:	ebffd5dd 	bl	30000cf4 <printf>
3000b57c:	ea00004f 	b	3000b6c0 <NetReceive+0x4f8>
3000b580:	e51b301c 	ldr	r3, [fp, #-28]
3000b584:	e1d330b2 	ldrh	r3, [r3, #2]
3000b588:	e1a03403 	lsl	r3, r3, #8
3000b58c:	e1a03803 	lsl	r3, r3, #16
3000b590:	e1a02823 	lsr	r2, r3, #16
3000b594:	e51b301c 	ldr	r3, [fp, #-28]
3000b598:	e1d330b2 	ldrh	r3, [r3, #2]
3000b59c:	e1a03423 	lsr	r3, r3, #8
3000b5a0:	e1a03803 	lsl	r3, r3, #16
3000b5a4:	e1a03823 	lsr	r3, r3, #16
3000b5a8:	e1823003 	orr	r3, r2, r3
3000b5ac:	e1a03803 	lsl	r3, r3, #16
3000b5b0:	e1a03823 	lsr	r3, r3, #16
3000b5b4:	e1a03803 	lsl	r3, r3, #16
3000b5b8:	e1a03823 	lsr	r3, r3, #16
3000b5bc:	e1a02003 	mov	r2, r3
3000b5c0:	e51b302c 	ldr	r3, [fp, #-44]
3000b5c4:	e1520003 	cmp	r2, r3
3000b5c8:	da000016 	ble	3000b628 <NetReceive+0x460>
3000b5cc:	e51b301c 	ldr	r3, [fp, #-28]
3000b5d0:	e1d330b2 	ldrh	r3, [r3, #2]
3000b5d4:	e1a03403 	lsl	r3, r3, #8
3000b5d8:	e1a03803 	lsl	r3, r3, #16
3000b5dc:	e1a02823 	lsr	r2, r3, #16
3000b5e0:	e51b301c 	ldr	r3, [fp, #-28]
3000b5e4:	e1d330b2 	ldrh	r3, [r3, #2]
3000b5e8:	e1a03423 	lsr	r3, r3, #8
3000b5ec:	e1a03803 	lsl	r3, r3, #16
3000b5f0:	e1a03823 	lsr	r3, r3, #16
3000b5f4:	e1823003 	orr	r3, r2, r3
3000b5f8:	e1a03803 	lsl	r3, r3, #16
3000b5fc:	e1a03823 	lsr	r3, r3, #16
3000b600:	e1a03803 	lsl	r3, r3, #16
3000b604:	e1a03823 	lsr	r3, r3, #16
3000b608:	e1a02003 	mov	r2, r3
3000b60c:	e59f30c8 	ldr	r3, [pc, #200]	; 3000b6dc <NetReceive+0x514>
3000b610:	e51b1030 	ldr	r1, [fp, #-48]
3000b614:	e0813003 	add	r3, r1, r3
3000b618:	e1a00003 	mov	r0, r3
3000b61c:	e51b102c 	ldr	r1, [fp, #-44]
3000b620:	ebffd5b3 	bl	30000cf4 <printf>
3000b624:	ea000025 	b	3000b6c0 <NetReceive+0x4f8>
3000b628:	e51b301c 	ldr	r3, [fp, #-28]
3000b62c:	e1d330b2 	ldrh	r3, [r3, #2]
3000b630:	e1a03403 	lsl	r3, r3, #8
3000b634:	e1a03803 	lsl	r3, r3, #16
3000b638:	e1a02823 	lsr	r2, r3, #16
3000b63c:	e51b301c 	ldr	r3, [fp, #-28]
3000b640:	e1d330b2 	ldrh	r3, [r3, #2]
3000b644:	e1a03423 	lsr	r3, r3, #8
3000b648:	e1a03803 	lsl	r3, r3, #16
3000b64c:	e1a03823 	lsr	r3, r3, #16
3000b650:	e1823003 	orr	r3, r2, r3
3000b654:	e1a03803 	lsl	r3, r3, #16
3000b658:	e1a03823 	lsr	r3, r3, #16
3000b65c:	e1a03803 	lsl	r3, r3, #16
3000b660:	e1a03823 	lsr	r3, r3, #16
3000b664:	e50b302c 	str	r3, [fp, #-44]
3000b668:	e51b301c 	ldr	r3, [fp, #-28]
3000b66c:	e5d33000 	ldrb	r3, [r3]
3000b670:	e20330f0 	and	r3, r3, #240	; 0xf0
3000b674:	e3530040 	cmp	r3, #64	; 0x40
3000b678:	1a000010 	bne	3000b6c0 <NetReceive+0x4f8>
3000b67c:	e51b301c 	ldr	r3, [fp, #-28]
3000b680:	e5d33000 	ldrb	r3, [r3]
3000b684:	e203300f 	and	r3, r3, #15	; 0xf
3000b688:	e3530005 	cmp	r3, #5	; 0x5
3000b68c:	ca00000b 	bgt	3000b6c0 <NetReceive+0x4f8>
3000b690:	e51b301c 	ldr	r3, [fp, #-28]
3000b694:	e1a00003 	mov	r0, r3
3000b698:	e3a0100c 	mov	r1, #12	; 0xc
3000b69c:	ebfffdae 	bl	3000ad5c <NetCksumOk>
3000b6a0:	e1a03000 	mov	r3, r0
3000b6a4:	e3530000 	cmp	r3, #0	; 0x0
3000b6a8:	1a000004 	bne	3000b6c0 <NetReceive+0x4f8>
3000b6ac:	e59f302c 	ldr	r3, [pc, #44]	; 3000b6e0 <NetReceive+0x518>
3000b6b0:	e51b2030 	ldr	r2, [fp, #-48]
3000b6b4:	e0823003 	add	r3, r2, r3
3000b6b8:	e1a00003 	mov	r0, r3
3000b6bc:	ebffd5f9 	bl	30000ea8 <puts>
3000b6c0:	e24bd004 	sub	sp, fp, #4	; 0x4
3000b6c4:	e8bd4800 	pop	{fp, lr}
3000b6c8:	e12fff1e 	bx	lr
3000b6cc:	cfff4e18 	.word	0xcfff4e18
3000b6d0:	00000598 	.word	0x00000598
3000b6d4:	00000580 	.word	0x00000580
3000b6d8:	3000cb90 	.word	0x3000cb90
3000b6dc:	3000cba4 	.word	0x3000cba4
3000b6e0:	3000cbb8 	.word	0x3000cbb8

3000b6e4 <init_led>:
3000b6e4:	e52db004 	push	{fp}		; (str fp, [sp, #-4]!)
3000b6e8:	e28db000 	add	fp, sp, #0	; 0x0
3000b6ec:	e3a03456 	mov	r3, #1442840576	; 0x56000000
3000b6f0:	e2833010 	add	r3, r3, #16	; 0x10
3000b6f4:	e3a02b55 	mov	r2, #87040	; 0x15400
3000b6f8:	e5832000 	str	r2, [r3]
3000b6fc:	e3a03456 	mov	r3, #1442840576	; 0x56000000
3000b700:	e2833014 	add	r3, r3, #20	; 0x14
3000b704:	e3e02000 	mvn	r2, #0	; 0x0
3000b708:	e5832000 	str	r2, [r3]
3000b70c:	e28bd000 	add	sp, fp, #0	; 0x0
3000b710:	e8bd0800 	pop	{fp}
3000b714:	e12fff1e 	bx	lr

3000b718 <key_init>:
3000b718:	e52db004 	push	{fp}		; (str fp, [sp, #-4]!)
3000b71c:	e28db000 	add	fp, sp, #0	; 0x0
3000b720:	e24dd00c 	sub	sp, sp, #12	; 0xc
3000b724:	e1a03000 	mov	r3, r0
3000b728:	e1a02001 	mov	r2, r1
3000b72c:	e54b3005 	strb	r3, [fp, #-5]
3000b730:	e1a03002 	mov	r3, r2
3000b734:	e54b3006 	strb	r3, [fp, #-6]
3000b738:	e55b3005 	ldrb	r3, [fp, #-5]
3000b73c:	e203301f 	and	r3, r3, #31	; 0x1f
3000b740:	e54b3005 	strb	r3, [fp, #-5]
3000b744:	e55b1006 	ldrb	r1, [fp, #-6]
3000b748:	e59f3080 	ldr	r3, [pc, #128]	; 3000b7d0 <key_init+0xb8>
3000b74c:	e0832391 	umull	r2, r3, r1, r3
3000b750:	e1a020a3 	lsr	r2, r3, #1
3000b754:	e1a03002 	mov	r3, r2
3000b758:	e1a03083 	lsl	r3, r3, #1
3000b75c:	e0833002 	add	r3, r3, r2
3000b760:	e0633001 	rsb	r3, r3, r1
3000b764:	e54b3006 	strb	r3, [fp, #-6]
3000b768:	e3a01456 	mov	r1, #1442840576	; 0x56000000
3000b76c:	e2811050 	add	r1, r1, #80	; 0x50
3000b770:	e3a03456 	mov	r3, #1442840576	; 0x56000000
3000b774:	e2833050 	add	r3, r3, #80	; 0x50
3000b778:	e5930000 	ldr	r0, [r3]
3000b77c:	e55b3005 	ldrb	r3, [fp, #-5]
3000b780:	e1a02083 	lsl	r2, r3, #1
3000b784:	e3a03003 	mov	r3, #3	; 0x3
3000b788:	e1a03213 	lsl	r3, r3, r2
3000b78c:	e1e03003 	mvn	r3, r3
3000b790:	e0003003 	and	r3, r0, r3
3000b794:	e5813000 	str	r3, [r1]
3000b798:	e3a02456 	mov	r2, #1442840576	; 0x56000000
3000b79c:	e2822050 	add	r2, r2, #80	; 0x50
3000b7a0:	e3a03456 	mov	r3, #1442840576	; 0x56000000
3000b7a4:	e2833050 	add	r3, r3, #80	; 0x50
3000b7a8:	e5930000 	ldr	r0, [r3]
3000b7ac:	e55b1006 	ldrb	r1, [fp, #-6]
3000b7b0:	e55b3005 	ldrb	r3, [fp, #-5]
3000b7b4:	e1a03083 	lsl	r3, r3, #1
3000b7b8:	e1a03311 	lsl	r3, r1, r3
3000b7bc:	e1803003 	orr	r3, r0, r3
3000b7c0:	e5823000 	str	r3, [r2]
3000b7c4:	e28bd000 	add	sp, fp, #0	; 0x0
3000b7c8:	e8bd0800 	pop	{fp}
3000b7cc:	e12fff1e 	bx	lr
3000b7d0:	aaaaaaab 	.word	0xaaaaaaab

3000b7d4 <KeyINT2_Handle>:
3000b7d4:	e92d4800 	push	{fp, lr}
3000b7d8:	e28db004 	add	fp, sp, #4	; 0x4
3000b7dc:	e24dd008 	sub	sp, sp, #8	; 0x8
3000b7e0:	e59f103c 	ldr	r1, [pc, #60]	; 3000b824 <KeyINT2_Handle+0x50>
3000b7e4:	e08f1001 	add	r1, pc, r1
3000b7e8:	e50b0008 	str	r0, [fp, #-8]
3000b7ec:	e3a02456 	mov	r2, #1442840576	; 0x56000000
3000b7f0:	e2822014 	add	r2, r2, #20	; 0x14
3000b7f4:	e3a03456 	mov	r3, #1442840576	; 0x56000000
3000b7f8:	e2833014 	add	r3, r3, #20	; 0x14
3000b7fc:	e5933000 	ldr	r3, [r3]
3000b800:	e1e03003 	mvn	r3, r3
3000b804:	e5823000 	str	r3, [r2]
3000b808:	e59f3018 	ldr	r3, [pc, #24]	; 3000b828 <KeyINT2_Handle+0x54>
3000b80c:	e0813003 	add	r3, r1, r3
3000b810:	e1a00003 	mov	r0, r3
3000b814:	ebffd536 	bl	30000cf4 <printf>
3000b818:	e24bd004 	sub	sp, fp, #4	; 0x4
3000b81c:	e8bd4800 	pop	{fp, lr}
3000b820:	e12fff1e 	bx	lr
3000b824:	cfff4814 	.word	0xcfff4814
3000b828:	3000cbc8 	.word	0x3000cbc8

3000b82c <KeyINT3_Handle>:
3000b82c:	e92d4800 	push	{fp, lr}
3000b830:	e28db004 	add	fp, sp, #4	; 0x4
3000b834:	e24dd008 	sub	sp, sp, #8	; 0x8
3000b838:	e59f3020 	ldr	r3, [pc, #32]	; 3000b860 <KeyINT3_Handle+0x34>
3000b83c:	e08f3003 	add	r3, pc, r3
3000b840:	e50b0008 	str	r0, [fp, #-8]
3000b844:	e59f2018 	ldr	r2, [pc, #24]	; 3000b864 <KeyINT3_Handle+0x38>
3000b848:	e0833002 	add	r3, r3, r2
3000b84c:	e1a00003 	mov	r0, r3
3000b850:	ebffd527 	bl	30000cf4 <printf>
3000b854:	e24bd004 	sub	sp, fp, #4	; 0x4
3000b858:	e8bd4800 	pop	{fp, lr}
3000b85c:	e12fff1e 	bx	lr
3000b860:	cfff47bc 	.word	0xcfff47bc
3000b864:	3000cbdc 	.word	0x3000cbdc

3000b868 <KeyINT4_Handle>:
3000b868:	e92d4800 	push	{fp, lr}
3000b86c:	e28db004 	add	fp, sp, #4	; 0x4
3000b870:	e24dd008 	sub	sp, sp, #8	; 0x8
3000b874:	e59f3020 	ldr	r3, [pc, #32]	; 3000b89c <KeyINT4_Handle+0x34>
3000b878:	e08f3003 	add	r3, pc, r3
3000b87c:	e50b0008 	str	r0, [fp, #-8]
3000b880:	e59f2018 	ldr	r2, [pc, #24]	; 3000b8a0 <KeyINT4_Handle+0x38>
3000b884:	e0833002 	add	r3, r3, r2
3000b888:	e1a00003 	mov	r0, r3
3000b88c:	ebffd518 	bl	30000cf4 <printf>
3000b890:	e24bd004 	sub	sp, fp, #4	; 0x4
3000b894:	e8bd4800 	pop	{fp, lr}
3000b898:	e12fff1e 	bx	lr
3000b89c:	cfff4780 	.word	0xcfff4780
3000b8a0:	3000cbf0 	.word	0x3000cbf0

3000b8a4 <smdk2440_machine_init>:
3000b8a4:	e92d4800 	push	{fp, lr}
3000b8a8:	e28db004 	add	fp, sp, #4	; 0x4
3000b8ac:	e24dd010 	sub	sp, sp, #16	; 0x10
3000b8b0:	e59f00e4 	ldr	r0, [pc, #228]	; 3000b99c <smdk2440_machine_init+0xf8>
3000b8b4:	e50b0010 	str	r0, [fp, #-16]
3000b8b8:	e51b1010 	ldr	r1, [fp, #-16]
3000b8bc:	e08f1001 	add	r1, pc, r1
3000b8c0:	e50b1010 	str	r1, [fp, #-16]
3000b8c4:	e59f30d4 	ldr	r3, [pc, #212]	; 3000b9a0 <smdk2440_machine_init+0xfc>
3000b8c8:	e51b2010 	ldr	r2, [fp, #-16]
3000b8cc:	e0823003 	add	r3, r2, r3
3000b8d0:	e50b3008 	str	r3, [fp, #-8]
3000b8d4:	e51b3008 	ldr	r3, [fp, #-8]
3000b8d8:	e5931000 	ldr	r1, [r3]
3000b8dc:	e59f30bc 	ldr	r3, [pc, #188]	; 3000b9a0 <smdk2440_machine_init+0xfc>
3000b8e0:	e51bc010 	ldr	ip, [fp, #-16]
3000b8e4:	e08c3003 	add	r3, ip, r3
3000b8e8:	e5932000 	ldr	r2, [r3]
3000b8ec:	e59f30b0 	ldr	r3, [pc, #176]	; 3000b9a4 <smdk2440_machine_init+0x100>
3000b8f0:	e51b0010 	ldr	r0, [fp, #-16]
3000b8f4:	e0803003 	add	r3, r0, r3
3000b8f8:	e1a00003 	mov	r0, r3
3000b8fc:	e59f30a4 	ldr	r3, [pc, #164]	; 3000b9a8 <smdk2440_machine_init+0x104>
3000b900:	e51bc010 	ldr	ip, [fp, #-16]
3000b904:	e08c3003 	add	r3, ip, r3
3000b908:	ebffd4f9 	bl	30000cf4 <printf>
3000b90c:	e3a03000 	mov	r3, #0	; 0x0
3000b910:	e50b300c 	str	r3, [fp, #-12]
3000b914:	ea00000d 	b	3000b950 <smdk2440_machine_init+0xac>
3000b918:	e51b200c 	ldr	r2, [fp, #-12]
3000b91c:	e59f307c 	ldr	r3, [pc, #124]	; 3000b9a0 <smdk2440_machine_init+0xfc>
3000b920:	e51b0010 	ldr	r0, [fp, #-16]
3000b924:	e0803003 	add	r3, r0, r3
3000b928:	e7932102 	ldr	r2, [r3, r2, lsl #2]
3000b92c:	e59f3078 	ldr	r3, [pc, #120]	; 3000b9ac <smdk2440_machine_init+0x108>
3000b930:	e51b1010 	ldr	r1, [fp, #-16]
3000b934:	e0813003 	add	r3, r1, r3
3000b938:	e1a00003 	mov	r0, r3
3000b93c:	e51b100c 	ldr	r1, [fp, #-12]
3000b940:	ebffd4eb 	bl	30000cf4 <printf>
3000b944:	e51b300c 	ldr	r3, [fp, #-12]
3000b948:	e2833001 	add	r3, r3, #1	; 0x1
3000b94c:	e50b300c 	str	r3, [fp, #-12]
3000b950:	e51b300c 	ldr	r3, [fp, #-12]
3000b954:	e3530000 	cmp	r3, #0	; 0x0
3000b958:	0affffee 	beq	3000b918 <smdk2440_machine_init+0x74>
3000b95c:	e59f303c 	ldr	r3, [pc, #60]	; 3000b9a0 <smdk2440_machine_init+0xfc>
3000b960:	e51b2010 	ldr	r2, [fp, #-16]
3000b964:	e0823003 	add	r3, r2, r3
3000b968:	e1a00003 	mov	r0, r3
3000b96c:	e3a01001 	mov	r1, #1	; 0x1
3000b970:	eb00000f 	bl	3000b9b4 <platform_add_devices>
3000b974:	e1a03000 	mov	r3, r0
3000b978:	e50b300c 	str	r3, [fp, #-12]
3000b97c:	e59f302c 	ldr	r3, [pc, #44]	; 3000b9b0 <smdk2440_machine_init+0x10c>
3000b980:	e51bc010 	ldr	ip, [fp, #-16]
3000b984:	e08c3003 	add	r3, ip, r3
3000b988:	e1a00003 	mov	r0, r3
3000b98c:	ebffd4d8 	bl	30000cf4 <printf>
3000b990:	e24bd004 	sub	sp, fp, #4	; 0x4
3000b994:	e8bd4800 	pop	{fp, lr}
3000b998:	e12fff1e 	bx	lr
3000b99c:	cfff473c 	.word	0xcfff473c
3000b9a0:	3000d0c8 	.word	0x3000d0c8
3000b9a4:	3000cc0c 	.word	0x3000cc0c
3000b9a8:	3000d0b0 	.word	0x3000d0b0
3000b9ac:	3000cc4c 	.word	0x3000cc4c
3000b9b0:	3000cc68 	.word	0x3000cc68

3000b9b4 <platform_add_devices>:
3000b9b4:	e92d4800 	push	{fp, lr}
3000b9b8:	e28db004 	add	fp, sp, #4	; 0x4
3000b9bc:	e24dd020 	sub	sp, sp, #32	; 0x20
3000b9c0:	e59f20e8 	ldr	r2, [pc, #232]	; 3000bab0 <platform_add_devices+0xfc>
3000b9c4:	e50b2020 	str	r2, [fp, #-32]
3000b9c8:	e51b3020 	ldr	r3, [fp, #-32]
3000b9cc:	e08f3003 	add	r3, pc, r3
3000b9d0:	e50b3020 	str	r3, [fp, #-32]
3000b9d4:	e50b0018 	str	r0, [fp, #-24]
3000b9d8:	e50b101c 	str	r1, [fp, #-28]
3000b9dc:	e3a03000 	mov	r3, #0	; 0x0
3000b9e0:	e50b3008 	str	r3, [fp, #-8]
3000b9e4:	e59f30c8 	ldr	r3, [pc, #200]	; 3000bab4 <platform_add_devices+0x100>
3000b9e8:	e51b0020 	ldr	r0, [fp, #-32]
3000b9ec:	e7903003 	ldr	r3, [r0, r3]
3000b9f0:	e5933000 	ldr	r3, [r3]
3000b9f4:	e50b3010 	str	r3, [fp, #-16]
3000b9f8:	ea000002 	b	3000ba08 <platform_add_devices+0x54>
3000b9fc:	e51b3010 	ldr	r3, [fp, #-16]
3000ba00:	e5933010 	ldr	r3, [r3, #16]
3000ba04:	e50b3010 	str	r3, [fp, #-16]
3000ba08:	e51b3010 	ldr	r3, [fp, #-16]
3000ba0c:	e3530000 	cmp	r3, #0	; 0x0
3000ba10:	1afffff9 	bne	3000b9fc <platform_add_devices+0x48>
3000ba14:	e3a03000 	mov	r3, #0	; 0x0
3000ba18:	e50b300c 	str	r3, [fp, #-12]
3000ba1c:	ea00000b 	b	3000ba50 <platform_add_devices+0x9c>
3000ba20:	e51b300c 	ldr	r3, [fp, #-12]
3000ba24:	e1a02103 	lsl	r2, r3, #2
3000ba28:	e51b3018 	ldr	r3, [fp, #-24]
3000ba2c:	e0833002 	add	r3, r3, r2
3000ba30:	e5933000 	ldr	r3, [r3]
3000ba34:	e50b3010 	str	r3, [fp, #-16]
3000ba38:	e51b3010 	ldr	r3, [fp, #-16]
3000ba3c:	e5933010 	ldr	r3, [r3, #16]
3000ba40:	e50b3010 	str	r3, [fp, #-16]
3000ba44:	e51b300c 	ldr	r3, [fp, #-12]
3000ba48:	e2833001 	add	r3, r3, #1	; 0x1
3000ba4c:	e50b300c 	str	r3, [fp, #-12]
3000ba50:	e51b200c 	ldr	r2, [fp, #-12]
3000ba54:	e51b301c 	ldr	r3, [fp, #-28]
3000ba58:	e1520003 	cmp	r2, r3
3000ba5c:	baffffef 	blt	3000ba20 <platform_add_devices+0x6c>
3000ba60:	e59f304c 	ldr	r3, [pc, #76]	; 3000bab4 <platform_add_devices+0x100>
3000ba64:	e51b2020 	ldr	r2, [fp, #-32]
3000ba68:	e7923003 	ldr	r3, [r2, r3]
3000ba6c:	e5931000 	ldr	r1, [r3]
3000ba70:	e51b3018 	ldr	r3, [fp, #-24]
3000ba74:	e5932000 	ldr	r2, [r3]
3000ba78:	e59f3038 	ldr	r3, [pc, #56]	; 3000bab8 <platform_add_devices+0x104>
3000ba7c:	e51b0020 	ldr	r0, [fp, #-32]
3000ba80:	e0803003 	add	r3, r0, r3
3000ba84:	e1a00003 	mov	r0, r3
3000ba88:	e51b301c 	ldr	r3, [fp, #-28]
3000ba8c:	ebffd498 	bl	30000cf4 <printf>
3000ba90:	e51b2010 	ldr	r2, [fp, #-16]
3000ba94:	e3a03000 	mov	r3, #0	; 0x0
3000ba98:	e5823010 	str	r3, [r2, #16]
3000ba9c:	e51b3008 	ldr	r3, [fp, #-8]
3000baa0:	e1a00003 	mov	r0, r3
3000baa4:	e24bd004 	sub	sp, fp, #4	; 0x4
3000baa8:	e8bd4800 	pop	{fp, lr}
3000baac:	e12fff1e 	bx	lr
3000bab0:	cfff462c 	.word	0xcfff462c
3000bab4:	00000594 	.word	0x00000594
3000bab8:	3000cc8c 	.word	0x3000cc8c

3000babc <myled_test>:
3000babc:	e92d4800 	push	{fp, lr}
3000bac0:	e28db004 	add	fp, sp, #4	; 0x4
3000bac4:	e24dd008 	sub	sp, sp, #8	; 0x8
3000bac8:	e3a03000 	mov	r3, #0	; 0x0
3000bacc:	e50b3008 	str	r3, [fp, #-8]
3000bad0:	e3a00c75 	mov	r0, #29952	; 0x7500
3000bad4:	e2800030 	add	r0, r0, #48	; 0x30
3000bad8:	eb00000e 	bl	3000bb18 <wait>
3000badc:	e3a02456 	mov	r2, #1442840576	; 0x56000000
3000bae0:	e2822014 	add	r2, r2, #20	; 0x14
3000bae4:	e51b3008 	ldr	r3, [fp, #-8]
3000bae8:	e1a03283 	lsl	r3, r3, #5
3000baec:	e1e03003 	mvn	r3, r3
3000baf0:	e5823000 	str	r3, [r2]
3000baf4:	e51b3008 	ldr	r3, [fp, #-8]
3000baf8:	e2833001 	add	r3, r3, #1	; 0x1
3000bafc:	e50b3008 	str	r3, [fp, #-8]
3000bb00:	e51b3008 	ldr	r3, [fp, #-8]
3000bb04:	e3530010 	cmp	r3, #16	; 0x10
3000bb08:	1afffff0 	bne	3000bad0 <myled_test+0x14>
3000bb0c:	e3a03000 	mov	r3, #0	; 0x0
3000bb10:	e50b3008 	str	r3, [fp, #-8]
3000bb14:	eaffffed 	b	3000bad0 <myled_test+0x14>

3000bb18 <wait>:
3000bb18:	e52db004 	push	{fp}		; (str fp, [sp, #-4]!)
3000bb1c:	e28db000 	add	fp, sp, #0	; 0x0
3000bb20:	e24dd00c 	sub	sp, sp, #12	; 0xc
3000bb24:	e50b0008 	str	r0, [fp, #-8]
3000bb28:	ea000002 	b	3000bb38 <wait+0x20>
3000bb2c:	e51b3008 	ldr	r3, [fp, #-8]
3000bb30:	e2433001 	sub	r3, r3, #1	; 0x1
3000bb34:	e50b3008 	str	r3, [fp, #-8]
3000bb38:	e51b3008 	ldr	r3, [fp, #-8]
3000bb3c:	e3530000 	cmp	r3, #0	; 0x0
3000bb40:	1afffff9 	bne	3000bb2c <wait+0x14>
3000bb44:	e28bd000 	add	sp, fp, #0	; 0x0
3000bb48:	e8bd0800 	pop	{fp}
3000bb4c:	e12fff1e 	bx	lr

3000bb50 <swi_test>:
3000bb50:	e92d4800 	push	{fp, lr}
3000bb54:	e28db004 	add	fp, sp, #4	; 0x4
3000bb58:	e24dd008 	sub	sp, sp, #8	; 0x8
3000bb5c:	ebffd283 	bl	30000570 <uart0_init>
3000bb60:	e3a00009 	mov	r0, #9	; 0x9
3000bb64:	ebffd217 	bl	300003c8 <led_on>
3000bb68:	ebffd2e7 	bl	3000070c <getc>
3000bb6c:	e1a03000 	mov	r3, r0
3000bb70:	e54b3005 	strb	r3, [fp, #-5]
3000bb74:	e55b3005 	ldrb	r3, [fp, #-5]
3000bb78:	e1a00003 	mov	r0, r3
3000bb7c:	ebffd2f2 	bl	3000074c <isDigit>
3000bb80:	e1a03000 	mov	r3, r0
3000bb84:	e3530000 	cmp	r3, #0	; 0x0
3000bb88:	1a000005 	bne	3000bba4 <swi_test+0x54>
3000bb8c:	e55b3005 	ldrb	r3, [fp, #-5]
3000bb90:	e1a00003 	mov	r0, r3
3000bb94:	ebffd301 	bl	300007a0 <isLetter>
3000bb98:	e1a03000 	mov	r3, r0
3000bb9c:	e3530000 	cmp	r3, #0	; 0x0
3000bba0:	0afffff0 	beq	3000bb68 <swi_test+0x18>
3000bba4:	e55b3005 	ldrb	r3, [fp, #-5]
3000bba8:	e2833001 	add	r3, r3, #1	; 0x1
3000bbac:	e20330ff 	and	r3, r3, #255	; 0xff
3000bbb0:	e1a00003 	mov	r0, r3
3000bbb4:	ebffd2c2 	bl	300006c4 <put_c>
3000bbb8:	eaffffea 	b	3000bb68 <swi_test+0x18>

3000bbbc <clean_bss>:
3000bbbc:	e52db004 	push	{fp}		; (str fp, [sp, #-4]!)
3000bbc0:	e28db000 	add	fp, sp, #0	; 0x0
3000bbc4:	e24dd014 	sub	sp, sp, #20	; 0x14
3000bbc8:	e59f105c 	ldr	r1, [pc, #92]	; 3000bc2c <clean_bss+0x70>
3000bbcc:	e50b1010 	str	r1, [fp, #-16]
3000bbd0:	e51b2010 	ldr	r2, [fp, #-16]
3000bbd4:	e08f2002 	add	r2, pc, r2
3000bbd8:	e50b2010 	str	r2, [fp, #-16]
3000bbdc:	e59f304c 	ldr	r3, [pc, #76]	; 3000bc30 <clean_bss+0x74>
3000bbe0:	e51b1010 	ldr	r1, [fp, #-16]
3000bbe4:	e7913003 	ldr	r3, [r1, r3]
3000bbe8:	e50b3008 	str	r3, [fp, #-8]
3000bbec:	ea000005 	b	3000bc08 <clean_bss+0x4c>
3000bbf0:	e51b2008 	ldr	r2, [fp, #-8]
3000bbf4:	e3a03000 	mov	r3, #0	; 0x0
3000bbf8:	e5823000 	str	r3, [r2]
3000bbfc:	e51b3008 	ldr	r3, [fp, #-8]
3000bc00:	e2833004 	add	r3, r3, #4	; 0x4
3000bc04:	e50b3008 	str	r3, [fp, #-8]
3000bc08:	e51b2008 	ldr	r2, [fp, #-8]
3000bc0c:	e59f3020 	ldr	r3, [pc, #32]	; 3000bc34 <clean_bss+0x78>
3000bc10:	e51b1010 	ldr	r1, [fp, #-16]
3000bc14:	e7913003 	ldr	r3, [r1, r3]
3000bc18:	e1520003 	cmp	r2, r3
3000bc1c:	3afffff3 	bcc	3000bbf0 <clean_bss+0x34>
3000bc20:	e28bd000 	add	sp, fp, #0	; 0x0
3000bc24:	e8bd0800 	pop	{fp}
3000bc28:	e12fff1e 	bx	lr
3000bc2c:	cfff4424 	.word	0xcfff4424
3000bc30:	00000578 	.word	0x00000578
3000bc34:	00000588 	.word	0x00000588

3000bc38 <lcd_test>:
3000bc38:	e92d4800 	push	{fp, lr}
3000bc3c:	e28db004 	add	fp, sp, #4	; 0x4
3000bc40:	e24dd010 	sub	sp, sp, #16	; 0x10
3000bc44:	e59f1168 	ldr	r1, [pc, #360]	; 3000bdb4 <lcd_test+0x17c>
3000bc48:	e50b1010 	str	r1, [fp, #-16]
3000bc4c:	e51b2010 	ldr	r2, [fp, #-16]
3000bc50:	e08f2002 	add	r2, pc, r2
3000bc54:	e50b2010 	str	r2, [fp, #-16]
3000bc58:	e59f3158 	ldr	r3, [pc, #344]	; 3000bdb8 <lcd_test+0x180>
3000bc5c:	e51b1010 	ldr	r1, [fp, #-16]
3000bc60:	e0813003 	add	r3, r1, r3
3000bc64:	e1a00003 	mov	r0, r3
3000bc68:	ebffd48e 	bl	30000ea8 <puts>
3000bc6c:	e59f3148 	ldr	r3, [pc, #328]	; 3000bdbc <lcd_test+0x184>
3000bc70:	e51b2010 	ldr	r2, [fp, #-16]
3000bc74:	e0823003 	add	r3, r2, r3
3000bc78:	e1a00003 	mov	r0, r3
3000bc7c:	ebffd41c 	bl	30000cf4 <printf>
3000bc80:	e59f3138 	ldr	r3, [pc, #312]	; 3000bdc0 <lcd_test+0x188>
3000bc84:	e51b1010 	ldr	r1, [fp, #-16]
3000bc88:	e0813003 	add	r3, r1, r3
3000bc8c:	e1a00003 	mov	r0, r3
3000bc90:	ebffd417 	bl	30000cf4 <printf>
3000bc94:	e59f3128 	ldr	r3, [pc, #296]	; 3000bdc4 <lcd_test+0x18c>
3000bc98:	e51b2010 	ldr	r2, [fp, #-16]
3000bc9c:	e0823003 	add	r3, r2, r3
3000bca0:	e1a00003 	mov	r0, r3
3000bca4:	ebffd412 	bl	30000cf4 <printf>
3000bca8:	e59f3118 	ldr	r3, [pc, #280]	; 3000bdc8 <lcd_test+0x190>
3000bcac:	e51b1010 	ldr	r1, [fp, #-16]
3000bcb0:	e0813003 	add	r3, r1, r3
3000bcb4:	e1a00003 	mov	r0, r3
3000bcb8:	ebffd40d 	bl	30000cf4 <printf>
3000bcbc:	e59f3108 	ldr	r3, [pc, #264]	; 3000bdcc <lcd_test+0x194>
3000bcc0:	e51b2010 	ldr	r2, [fp, #-16]
3000bcc4:	e0823003 	add	r3, r2, r3
3000bcc8:	e1a00003 	mov	r0, r3
3000bccc:	ebffd408 	bl	30000cf4 <printf>
3000bcd0:	e59f30f8 	ldr	r3, [pc, #248]	; 3000bdd0 <lcd_test+0x198>
3000bcd4:	e51b1010 	ldr	r1, [fp, #-16]
3000bcd8:	e0813003 	add	r3, r1, r3
3000bcdc:	e1a00003 	mov	r0, r3
3000bce0:	ebffd470 	bl	30000ea8 <puts>
3000bce4:	ea000024 	b	3000bd7c <lcd_test+0x144>
3000bce8:	e55b2005 	ldrb	r2, [fp, #-5]
3000bcec:	e59f30e0 	ldr	r3, [pc, #224]	; 3000bdd4 <lcd_test+0x19c>
3000bcf0:	e51b1010 	ldr	r1, [fp, #-16]
3000bcf4:	e0813003 	add	r3, r1, r3
3000bcf8:	e1a00003 	mov	r0, r3
3000bcfc:	e1a01002 	mov	r1, r2
3000bd00:	ebffd3fb 	bl	30000cf4 <printf>
3000bd04:	e55b3005 	ldrb	r3, [fp, #-5]
3000bd08:	e2433031 	sub	r3, r3, #49	; 0x31
3000bd0c:	e3530004 	cmp	r3, #4	; 0x4
3000bd10:	908ff103 	addls	pc, pc, r3, lsl #2
3000bd14:	ea00000e 	b	3000bd54 <lcd_test+0x11c>
3000bd18:	ea000003 	b	3000bd2c <lcd_test+0xf4>
3000bd1c:	ea000004 	b	3000bd34 <lcd_test+0xfc>
3000bd20:	ea000005 	b	3000bd3c <lcd_test+0x104>
3000bd24:	ea000006 	b	3000bd44 <lcd_test+0x10c>
3000bd28:	ea000007 	b	3000bd4c <lcd_test+0x114>
3000bd2c:	ebffe8b2 	bl	30005ffc <Test_Lcd_Tft_16Bit_240320>
3000bd30:	ea00000c 	b	3000bd68 <lcd_test+0x130>
3000bd34:	ebffe828 	bl	30005ddc <Test_Lcd_Tft_8Bit_240320>
3000bd38:	ea00000a 	b	3000bd68 <lcd_test+0x130>
3000bd3c:	ebffe9c0 	bl	30006444 <Test_Lcd_Tft_16Bit_640480>
3000bd40:	ea000008 	b	3000bd68 <lcd_test+0x130>
3000bd44:	ebffe92f 	bl	30006208 <Test_Lcd_Tft_8Bit_640480>
3000bd48:	ea000006 	b	3000bd68 <lcd_test+0x130>
3000bd4c:	ebffea46 	bl	3000666c <Test_Lcd_Tft_24Bit_480272>
3000bd50:	ea000004 	b	3000bd68 <lcd_test+0x130>
3000bd54:	e59f307c 	ldr	r3, [pc, #124]	; 3000bdd8 <lcd_test+0x1a0>
3000bd58:	e51b2010 	ldr	r2, [fp, #-16]
3000bd5c:	e0823003 	add	r3, r2, r3
3000bd60:	e1a00003 	mov	r0, r3
3000bd64:	ebffd44f 	bl	30000ea8 <puts>
3000bd68:	e59f306c 	ldr	r3, [pc, #108]	; 3000bddc <lcd_test+0x1a4>
3000bd6c:	e51b1010 	ldr	r1, [fp, #-16]
3000bd70:	e0813003 	add	r3, r1, r3
3000bd74:	e1a00003 	mov	r0, r3
3000bd78:	ebffd44a 	bl	30000ea8 <puts>
3000bd7c:	ebffd262 	bl	3000070c <getc>
3000bd80:	e1a03000 	mov	r3, r0
3000bd84:	e54b3005 	strb	r3, [fp, #-5]
3000bd88:	e55b3005 	ldrb	r3, [fp, #-5]
3000bd8c:	e3530071 	cmp	r3, #113	; 0x71
3000bd90:	1affffd4 	bne	3000bce8 <lcd_test+0xb0>
3000bd94:	e59f3044 	ldr	r3, [pc, #68]	; 3000bde0 <lcd_test+0x1a8>
3000bd98:	e51b2010 	ldr	r2, [fp, #-16]
3000bd9c:	e0823003 	add	r3, r2, r3
3000bda0:	e1a00003 	mov	r0, r3
3000bda4:	ebffd43f 	bl	30000ea8 <puts>
3000bda8:	e24bd004 	sub	sp, fp, #4	; 0x4
3000bdac:	e8bd4800 	pop	{fp, lr}
3000bdb0:	e12fff1e 	bx	lr
3000bdb4:	cfff43a8 	.word	0xcfff43a8
3000bdb8:	3000ccbc 	.word	0x3000ccbc
3000bdbc:	3000ccec 	.word	0x3000ccec
3000bdc0:	3000cd0c 	.word	0x3000cd0c
3000bdc4:	3000cd2c 	.word	0x3000cd2c
3000bdc8:	3000cd4c 	.word	0x3000cd4c
3000bdcc:	3000cd6c 	.word	0x3000cd6c
3000bdd0:	3000cd8c 	.word	0x3000cd8c
3000bdd4:	3000cda0 	.word	0x3000cda0
3000bdd8:	3000cda8 	.word	0x3000cda8
3000bddc:	3000cdc4 	.word	0x3000cdc4
3000bde0:	3000cde0 	.word	0x3000cde0

3000bde4 <adc_test>:
3000bde4:	e92d4800 	push	{fp, lr}
3000bde8:	e28db004 	add	fp, sp, #4	; 0x4
3000bdec:	e24dd010 	sub	sp, sp, #16	; 0x10
3000bdf0:	e59f10cc 	ldr	r1, [pc, #204]	; 3000bec4 <adc_test+0xe0>
3000bdf4:	e50b1014 	str	r1, [fp, #-20]
3000bdf8:	e51b2014 	ldr	r2, [fp, #-20]
3000bdfc:	e08f2002 	add	r2, pc, r2
3000be00:	e50b2014 	str	r2, [fp, #-20]
3000be04:	e59f30bc 	ldr	r3, [pc, #188]	; 3000bec8 <adc_test+0xe4>
3000be08:	e51b1014 	ldr	r1, [fp, #-20]
3000be0c:	e0813003 	add	r3, r1, r3
3000be10:	e1a00003 	mov	r0, r3
3000be14:	ebffd423 	bl	30000ea8 <puts>
3000be18:	e3a00031 	mov	r0, #49	; 0x31
3000be1c:	e3a01002 	mov	r1, #2	; 0x2
3000be20:	ebffea9b 	bl	30006894 <adc_init>
3000be24:	e59f30a0 	ldr	r3, [pc, #160]	; 3000becc <adc_test+0xe8>
3000be28:	e51b2014 	ldr	r2, [fp, #-20]
3000be2c:	e0823003 	add	r3, r2, r3
3000be30:	e1a00003 	mov	r0, r3
3000be34:	ebffd3ae 	bl	30000cf4 <printf>
3000be38:	ea000013 	b	3000be8c <adc_test+0xa8>
3000be3c:	e55b3005 	ldrb	r3, [fp, #-5]
3000be40:	e50b3010 	str	r3, [fp, #-16]
3000be44:	e51b1010 	ldr	r1, [fp, #-16]
3000be48:	e3510061 	cmp	r1, #97	; 0x61
3000be4c:	0a000003 	beq	3000be60 <adc_test+0x7c>
3000be50:	e51b2010 	ldr	r2, [fp, #-16]
3000be54:	e3520074 	cmp	r2, #116	; 0x74
3000be58:	0a00000a 	beq	3000be88 <adc_test+0xa4>
3000be5c:	ea00000a 	b	3000be8c <adc_test+0xa8>
3000be60:	ebffeaae 	bl	30006920 <start_adc>
3000be64:	ebffeb72 	bl	30006c34 <adc_adta>
3000be68:	e1a03000 	mov	r3, r0
3000be6c:	e59f205c 	ldr	r2, [pc, #92]	; 3000bed0 <adc_test+0xec>
3000be70:	e51b1014 	ldr	r1, [fp, #-20]
3000be74:	e0812002 	add	r2, r1, r2
3000be78:	e1a00002 	mov	r0, r2
3000be7c:	e1a01003 	mov	r1, r3
3000be80:	ebffd39b 	bl	30000cf4 <printf>
3000be84:	ea000000 	b	3000be8c <adc_test+0xa8>
3000be88:	ebffeb4c 	bl	30006bc0 <test_ts>
3000be8c:	ebffd21e 	bl	3000070c <getc>
3000be90:	e1a03000 	mov	r3, r0
3000be94:	e54b3005 	strb	r3, [fp, #-5]
3000be98:	e55b3005 	ldrb	r3, [fp, #-5]
3000be9c:	e3530071 	cmp	r3, #113	; 0x71
3000bea0:	1affffe5 	bne	3000be3c <adc_test+0x58>
3000bea4:	e59f3028 	ldr	r3, [pc, #40]	; 3000bed4 <adc_test+0xf0>
3000bea8:	e51b2014 	ldr	r2, [fp, #-20]
3000beac:	e0823003 	add	r3, r2, r3
3000beb0:	e1a00003 	mov	r0, r3
3000beb4:	ebffd38e 	bl	30000cf4 <printf>
3000beb8:	e24bd004 	sub	sp, fp, #4	; 0x4
3000bebc:	e8bd4800 	pop	{fp, lr}
3000bec0:	e12fff1e 	bx	lr
3000bec4:	cfff41fc 	.word	0xcfff41fc
3000bec8:	3000cdf4 	.word	0x3000cdf4
3000becc:	3000ce10 	.word	0x3000ce10
3000bed0:	3000ce5c 	.word	0x3000ce5c
3000bed4:	3000ce88 	.word	0x3000ce88

3000bed8 <main>:
3000bed8:	e92d4800 	push	{fp, lr}
3000bedc:	e28db004 	add	fp, sp, #4	; 0x4
3000bee0:	e24dd018 	sub	sp, sp, #24	; 0x18
3000bee4:	e59f20fc 	ldr	r2, [pc, #252]	; 3000bfe8 <main+0x110>
3000bee8:	e50b2018 	str	r2, [fp, #-24]
3000beec:	e51b3018 	ldr	r3, [fp, #-24]
3000bef0:	e08f3003 	add	r3, pc, r3
3000bef4:	e50b3018 	str	r3, [fp, #-24]
3000bef8:	e50b0010 	str	r0, [fp, #-16]
3000befc:	e50b1014 	str	r1, [fp, #-20]
3000bf00:	e3a03000 	mov	r3, #0	; 0x0
3000bf04:	e50b3008 	str	r3, [fp, #-8]
3000bf08:	ebffff2b 	bl	3000bbbc <clean_bss>
3000bf0c:	ebffd197 	bl	30000570 <uart0_init>
3000bf10:	ebfffdf3 	bl	3000b6e4 <init_led>
3000bf14:	ebffed3e 	bl	30007414 <init_irq>
3000bf18:	e3a00004 	mov	r0, #4	; 0x4
3000bf1c:	e3a01002 	mov	r1, #2	; 0x2
3000bf20:	ebfffdfc 	bl	3000b718 <key_init>
3000bf24:	e3a00004 	mov	r0, #4	; 0x4
3000bf28:	e59f30bc 	ldr	r3, [pc, #188]	; 3000bfec <main+0x114>
3000bf2c:	e51b2018 	ldr	r2, [fp, #-24]
3000bf30:	e7923003 	ldr	r3, [r2, r3]
3000bf34:	e1a01003 	mov	r1, r3
3000bf38:	ebffee0f 	bl	3000777c <register_extern_int>
3000bf3c:	e3a0000a 	mov	r0, #10	; 0xa
3000bf40:	e59f30a8 	ldr	r3, [pc, #168]	; 3000bff0 <main+0x118>
3000bf44:	e51b2018 	ldr	r2, [fp, #-24]
3000bf48:	e7923003 	ldr	r3, [r2, r3]
3000bf4c:	e1a01003 	mov	r1, r3
3000bf50:	ebffedd7 	bl	300076b4 <register_interrupt>
3000bf54:	ebffeb5f 	bl	30006cd8 <timer_init>
3000bf58:	ebfffe51 	bl	3000b8a4 <smdk2440_machine_init>
3000bf5c:	e3a00000 	mov	r0, #0	; 0x0
3000bf60:	ebfffa46 	bl	3000a880 <dm9000_initialize>
3000bf64:	e1a03000 	mov	r3, r0
3000bf68:	e50b3008 	str	r3, [fp, #-8]
3000bf6c:	e51b3008 	ldr	r3, [fp, #-8]
3000bf70:	e3530000 	cmp	r3, #0	; 0x0
3000bf74:	0a000005 	beq	3000bf90 <main+0xb8>
3000bf78:	e59f3074 	ldr	r3, [pc, #116]	; 3000bff4 <main+0x11c>
3000bf7c:	e51b2018 	ldr	r2, [fp, #-24]
3000bf80:	e0823003 	add	r3, r2, r3
3000bf84:	e1a00003 	mov	r0, r3
3000bf88:	ebffd3c6 	bl	30000ea8 <puts>
3000bf8c:	ea000014 	b	3000bfe4 <main+0x10c>
3000bf90:	ebfffc2f 	bl	3000b054 <eth_init>
3000bf94:	e1a03000 	mov	r3, r0
3000bf98:	e50b3008 	str	r3, [fp, #-8]
3000bf9c:	e51b3008 	ldr	r3, [fp, #-8]
3000bfa0:	e3530000 	cmp	r3, #0	; 0x0
3000bfa4:	0a000005 	beq	3000bfc0 <main+0xe8>
3000bfa8:	e59f3048 	ldr	r3, [pc, #72]	; 3000bff8 <main+0x120>
3000bfac:	e51b2018 	ldr	r2, [fp, #-24]
3000bfb0:	e0823003 	add	r3, r2, r3
3000bfb4:	e1a00003 	mov	r0, r3
3000bfb8:	ebffd3ba 	bl	30000ea8 <puts>
3000bfbc:	ea000008 	b	3000bfe4 <main+0x10c>
3000bfc0:	e3a00cc3 	mov	r0, #49920	; 0xc300
3000bfc4:	e2800050 	add	r0, r0, #80	; 0x50
3000bfc8:	ebfffed2 	bl	3000bb18 <wait>
3000bfcc:	ebfff9d1 	bl	3000a718 <test_dm9000>
3000bfd0:	ebfffa7e 	bl	3000a9d0 <arp_test>
3000bfd4:	e3a00a7a 	mov	r0, #499712	; 0x7a000
3000bfd8:	e2800e12 	add	r0, r0, #288	; 0x120
3000bfdc:	ebfffecd 	bl	3000bb18 <wait>
3000bfe0:	ebfff9cc 	bl	3000a718 <test_dm9000>
3000bfe4:	eafffffe 	b	3000bfe4 <main+0x10c>
3000bfe8:	cfff4108 	.word	0xcfff4108
3000bfec:	00000574 	.word	0x00000574
3000bff0:	00000584 	.word	0x00000584
3000bff4:	3000cea0 	.word	0x3000cea0
3000bff8:	3000cebc 	.word	0x3000cebc

Disassembly of section .rodata:

3000bffc <.LC0>:
3000bffc:	696e6966 	.word	0x696e6966
3000c000:	74206873 	.word	0x74206873
3000c004:	74206568 	.word	0x74206568
3000c008:	736e6172 	.word	0x736e6172
3000c00c:	74726f70 	.word	0x74726f70
3000c010:	0000002e 	.word	0x0000002e

3000c014 <.LC1>:
3000c014:	69676572 	.word	0x69676572
3000c018:	72657473 	.word	0x72657473
3000c01c:	616d6420 	.word	0x616d6420
3000c020:	746e6920 	.word	0x746e6920
3000c024:	6e61685f 	.word	0x6e61685f
3000c028:	20656c64 	.word	0x20656c64
3000c02c:	6f727265 	.word	0x6f727265
3000c030:	00002e72 	.word	0x00002e72

3000c034 <.LC2>:
3000c034:	6c6c6548 	.word	0x6c6c6548
3000c038:	6f77206f 	.word	0x6f77206f
3000c03c:	21646c72 	.word	0x21646c72
3000c040:	73696854 	.word	0x73696854
3000c044:	20736920 	.word	0x20736920
3000c048:	6d642061 	.word	0x6d642061
3000c04c:	65732061 	.word	0x65732061
3000c050:	6220646e 	.word	0x6220646e
3000c054:	65666675 	.word	0x65666675
3000c058:	480a2e72 	.word	0x480a2e72
3000c05c:	6f6c6c65 	.word	0x6f6c6c65
3000c060:	726f7720 	.word	0x726f7720
3000c064:	5421646c 	.word	0x5421646c
3000c068:	20736968 	.word	0x20736968
3000c06c:	61207369 	.word	0x61207369
3000c070:	616d6420 	.word	0x616d6420
3000c074:	6e657320 	.word	0x6e657320
3000c078:	75622064 	.word	0x75622064
3000c07c:	72656666 	.word	0x72656666
3000c080:	00000a2e 	.word	0x00000a2e
	...

3000c134 <large_digits.1615>:
3000c134:	33323130 	.word	0x33323130
3000c138:	37363534 	.word	0x37363534
3000c13c:	42413938 	.word	0x42413938
3000c140:	46454443 	.word	0x46454443
3000c144:	4a494847 	.word	0x4a494847
3000c148:	4e4d4c4b 	.word	0x4e4d4c4b
3000c14c:	5251504f 	.word	0x5251504f
3000c150:	56555453 	.word	0x56555453
3000c154:	5a595857 	.word	0x5a595857
3000c158:	00000000 	.word	0x00000000

3000c15c <small_digits.1614>:
3000c15c:	33323130 	.word	0x33323130
3000c160:	37363534 	.word	0x37363534
3000c164:	62613938 	.word	0x62613938
3000c168:	66656463 	.word	0x66656463
3000c16c:	6a696867 	.word	0x6a696867
3000c170:	6e6d6c6b 	.word	0x6e6d6c6b
3000c174:	7271706f 	.word	0x7271706f
3000c178:	76757473 	.word	0x76757473
3000c17c:	7a797877 	.word	0x7a797877
3000c180:	00000000 	.word	0x00000000

3000c184 <.LC0>:
3000c184:	4c554e3c 	.word	0x4c554e3c
3000c188:	00003e4c 	.word	0x00003e4c

3000c18c <DEMO256pal>:
3000c18c:	ce9a0b5e 	.word	0xce9a0b5e
3000c190:	9d99ffd9 	.word	0x9d99ffd9
3000c194:	ae7cb63a 	.word	0xae7cb63a
3000c198:	6c57dd71 	.word	0x6c57dd71
3000c19c:	00aefd4d 	.word	0x00aefd4d
3000c1a0:	b5f89c4d 	.word	0xb5f89c4d
3000c1a4:	0131ad96 	.word	0x0131ad96
3000c1a8:	efff0176 	.word	0xefff0176
3000c1ac:	9556cedd 	.word	0x9556cedd
3000c1b0:	00b6e4bf 	.word	0x00b6e4bf
3000c1b4:	002b22b7 	.word	0x002b22b7
3000c1b8:	002c89de 	.word	0x002c89de
3000c1bc:	ab5f57df 	.word	0xab5f57df
3000c1c0:	14bf3031 	.word	0x14bf3031
3000c1c4:	5391797e 	.word	0x5391797e
3000c1c8:	723993ab 	.word	0x723993ab
3000c1cc:	afdf7453 	.word	0xafdf7453
3000c1d0:	8c9271b9 	.word	0x8c9271b9
3000c1d4:	302e014d 	.word	0x302e014d
3000c1d8:	00295175 	.word	0x00295175
3000c1dc:	004e0969 	.word	0x004e0969
3000c1e0:	00212a6d 	.word	0x00212a6d
3000c1e4:	4b6e3155 	.word	0x4b6e3155
3000c1e8:	f6b6d677 	.word	0xf6b6d677
3000c1ec:	4bb59b5f 	.word	0x4bb59b5f
3000c1f0:	0027ffd5 	.word	0x0027ffd5
3000c1f4:	74d8dfdf 	.word	0x74d8dfdf
3000c1f8:	6bcd1256 	.word	0x6bcd1256
3000c1fc:	2ab29b08 	.word	0x2ab29b08
3000c200:	84b5bd72 	.word	0x84b5bd72
3000c204:	d4adfe52 	.word	0xd4adfe52
3000c208:	fffc00ad 	.word	0xfffc00ad
3000c20c:	73b0422b 	.word	0x73b0422b
3000c210:	52460024 	.word	0x52460024
3000c214:	28b38e5e 	.word	0x28b38e5e
3000c218:	3b520050 	.word	0x3b520050
3000c21c:	3a742a4a 	.word	0x3a742a4a
3000c220:	33568559 	.word	0x33568559
3000c224:	9abf1251 	.word	0x9abf1251
3000c228:	40b14034 	.word	0x40b14034
3000c22c:	00b38cb9 	.word	0x00b38cb9
3000c230:	df3d5c55 	.word	0xdf3d5c55
3000c234:	1f5f61b7 	.word	0x1f5f61b7
3000c238:	4c5900d9 	.word	0x4c5900d9
3000c23c:	ac3f0926 	.word	0xac3f0926
3000c240:	85bc925f 	.word	0x85bc925f
3000c244:	c73f29d2 	.word	0xc73f29d2
3000c248:	cb9fef5c 	.word	0xcb9fef5c
3000c24c:	5279827b 	.word	0x5279827b
3000c250:	01b94af5 	.word	0x01b94af5
3000c254:	f7184290 	.word	0xf7184290
3000c258:	21a6126d 	.word	0x21a6126d
3000c25c:	efbd515e 	.word	0xefbd515e
3000c260:	42abd75e 	.word	0x42abd75e
3000c264:	10b300aa 	.word	0x10b300aa
3000c268:	63b57349 	.word	0x63b57349
3000c26c:	aadf61a3 	.word	0xaadf61a3
3000c270:	87dfcb27 	.word	0x87dfcb27
3000c274:	c7df6359 	.word	0xc7df6359
3000c278:	b5bc4876 	.word	0xb5bc4876
3000c27c:	fe2e4114 	.word	0xfe2e4114
3000c280:	65beef5e 	.word	0x65beef5e
3000c284:	e5df43b9 	.word	0xe5df43b9
3000c288:	7d1621c9 	.word	0x7d1621c9
3000c28c:	5c116abb 	.word	0x5c116abb
3000c290:	bc0b49f7 	.word	0xbc0b49f7
3000c294:	3b0f9e1a 	.word	0x3b0f9e1a
3000c298:	ff12202b 	.word	0xff12202b
3000c29c:	842f821b 	.word	0x842f821b
3000c2a0:	defbbccf 	.word	0xdefbbccf
3000c2a4:	68fa8a3e 	.word	0x68fa8a3e
3000c2a8:	38aea4f1 	.word	0x38aea4f1
3000c2ac:	21ad28b7 	.word	0x21ad28b7
3000c2b0:	007331d7 	.word	0x007331d7
3000c2b4:	1831182b 	.word	0x1831182b
3000c2b8:	bdf63415 	.word	0xbdf63415
3000c2bc:	0a5d2dbf 	.word	0x0a5d2dbf
3000c2c0:	182cc73d 	.word	0x182cc73d
3000c2c4:	7b3d293e 	.word	0x7b3d293e
3000c2c8:	3cbd643d 	.word	0x3cbd643d
3000c2cc:	09d492dd 	.word	0x09d492dd
3000c2d0:	7cdd1029 	.word	0x7cdd1029
3000c2d4:	182e6239 	.word	0x182e6239
3000c2d8:	11eb5aea 	.word	0x11eb5aea
3000c2dc:	7bfa8abc 	.word	0x7bfa8abc
3000c2e0:	215300a7 	.word	0x215300a7
3000c2e4:	13181853 	.word	0x13181853
3000c2e8:	54fa0109 	.word	0x54fa0109
3000c2ec:	89e372a7 	.word	0x89e372a7
3000c2f0:	3a0701cf 	.word	0x3a0701cf
3000c2f4:	1a147b17 	.word	0x1a147b17
3000c2f8:	23dc2150 	.word	0x23dc2150
3000c2fc:	1b334142 	.word	0x1b334142
3000c300:	f6df00a4 	.word	0xf6df00a4
3000c304:	18ae08fc 	.word	0x18ae08fc
3000c308:	18d13a7e 	.word	0x18d13a7e
3000c30c:	ff5aa51c 	.word	0xff5aa51c
3000c310:	28fa1a0f 	.word	0x28fa1a0f
3000c314:	82dedfbe 	.word	0x82dedfbe
3000c318:	102760d7 	.word	0x102760d7
3000c31c:	515048fa 	.word	0x515048fa
3000c320:	89d66213 	.word	0x89d66213
3000c324:	9bbb110d 	.word	0x9bbb110d
3000c328:	28e1bedd 	.word	0x28e1bedd
3000c32c:	f4491925 	.word	0xf4491925
3000c330:	d5f4aa79 	.word	0xd5f4aa79
3000c334:	110a693c 	.word	0x110a693c
3000c338:	08a22889 	.word	0x08a22889
3000c33c:	10a6923d 	.word	0x10a6923d
3000c340:	5b2ed9bc 	.word	0x5b2ed9bc
3000c344:	cf7f32ec 	.word	0xcf7f32ec
3000c348:	21481025 	.word	0x21481025
3000c34c:	6d5974b4 	.word	0x6d5974b4
3000c350:	01329d14 	.word	0x01329d14
3000c354:	56bf00f0 	.word	0x56bf00f0
3000c358:	ffff00f1 	.word	0xffff00f1
3000c35c:	01330173 	.word	0x01330173
3000c360:	00b100b0 	.word	0x00b100b0
3000c364:	08b1f7ff 	.word	0x08b1f7ff
3000c368:	08b0fffe 	.word	0x08b0fffe
3000c36c:	f7bf0171 	.word	0xf7bf0171
3000c370:	f7fe10f3 	.word	0xf7fe10f3
3000c374:	119208ef 	.word	0x119208ef
3000c378:	1131efbe 	.word	0x1131efbe
3000c37c:	ff9f2177 	.word	0xff9f2177
3000c380:	ffbc1116 	.word	0xffbc1116
3000c384:	22ef5914 	.word	0x22ef5914
3000c388:	a6dfb285 	.word	0xa6dfb285

3000c38c <.LC0>:
3000c38c:	74696e49 	.word	0x74696e49
3000c390:	696c6169 	.word	0x696c6169
3000c394:	676e697a 	.word	0x676e697a
3000c398:	49504720 	.word	0x49504720
3000c39c:	6f70204f 	.word	0x6f70204f
3000c3a0:	2e737472 	.word	0x2e737472
3000c3a4:	2e2e2e2e 	.word	0x2e2e2e2e
3000c3a8:	2e2e2e2e 	.word	0x2e2e2e2e
3000c3ac:	0000002e 	.word	0x0000002e

3000c3b0 <.LC0>:
3000c3b0:	5446545b 	.word	0x5446545b
3000c3b4:	4b343620 	.word	0x4b343620
3000c3b8:	4c4f4320 	.word	0x4c4f4320
3000c3bc:	3128524f 	.word	0x3128524f
3000c3c0:	70706236 	.word	0x70706236
3000c3c4:	434c2029 	.word	0x434c2029
3000c3c8:	45542044 	.word	0x45542044
3000c3cc:	005d5453 	.word	0x005d5453

3000c3d0 <.LC1>:
3000c3d0:	50202e31 	.word	0x50202e31
3000c3d4:	73736572 	.word	0x73736572
3000c3d8:	796e6120 	.word	0x796e6120
3000c3dc:	79656b20 	.word	0x79656b20
3000c3e0:	206f7420 	.word	0x206f7420
3000c3e4:	77617264 	.word	0x77617264
3000c3e8:	6e696c20 	.word	0x6e696c20
3000c3ec:	00000065 	.word	0x00000065

3000c3f0 <.LC2>:
3000c3f0:	50202e32 	.word	0x50202e32
3000c3f4:	73736572 	.word	0x73736572
3000c3f8:	796e6120 	.word	0x796e6120
3000c3fc:	79656b20 	.word	0x79656b20
3000c400:	206f7420 	.word	0x206f7420
3000c404:	77617264 	.word	0x77617264
3000c408:	72696320 	.word	0x72696320
3000c40c:	73656c63 	.word	0x73656c63
3000c410:	00000000 	.word	0x00000000

3000c414 <.LC3>:
3000c414:	50202e33 	.word	0x50202e33
3000c418:	73736572 	.word	0x73736572
3000c41c:	796e6120 	.word	0x796e6120
3000c420:	79656b20 	.word	0x79656b20
3000c424:	206f7420 	.word	0x206f7420
3000c428:	6c6c6966 	.word	0x6c6c6966
3000c42c:	65687420 	.word	0x65687420
3000c430:	72637320 	.word	0x72637320
3000c434:	206d6565 	.word	0x206d6565
3000c438:	68746977 	.word	0x68746977
3000c43c:	656e6f20 	.word	0x656e6f20
3000c440:	6c6f6320 	.word	0x6c6f6320
3000c444:	0000726f 	.word	0x0000726f

3000c448 <.LC4>:
3000c448:	50202e34 	.word	0x50202e34
3000c44c:	73736572 	.word	0x73736572
3000c450:	796e6120 	.word	0x796e6120
3000c454:	79656b20 	.word	0x79656b20
3000c458:	206f7420 	.word	0x206f7420
3000c45c:	6c6c6966 	.word	0x6c6c6966
3000c460:	65687420 	.word	0x65687420
3000c464:	72637320 	.word	0x72637320
3000c468:	206d6565 	.word	0x206d6565
3000c46c:	74207962 	.word	0x74207962
3000c470:	6f706d65 	.word	0x6f706d65
3000c474:	79726172 	.word	0x79726172
3000c478:	6c617020 	.word	0x6c617020
3000c47c:	65747465 	.word	0x65747465
3000c480:	00000000 	.word	0x00000000

3000c484 <.LC5>:
3000c484:	50202e35 	.word	0x50202e35
3000c488:	73736572 	.word	0x73736572
3000c48c:	796e6120 	.word	0x796e6120
3000c490:	79656b20 	.word	0x79656b20
3000c494:	206f7420 	.word	0x206f7420
3000c498:	6c6c6966 	.word	0x6c6c6966
3000c49c:	65687420 	.word	0x65687420
3000c4a0:	72637320 	.word	0x72637320
3000c4a4:	206d6565 	.word	0x206d6565
3000c4a8:	70207962 	.word	0x70207962
3000c4ac:	74656c61 	.word	0x74656c61
3000c4b0:	00006574 	.word	0x00006574

3000c4b4 <.LC6>:
3000c4b4:	50202e36 	.word	0x50202e36
3000c4b8:	73736572 	.word	0x73736572
3000c4bc:	796e6120 	.word	0x796e6120
3000c4c0:	79656b20 	.word	0x79656b20
3000c4c4:	6f747320 	.word	0x6f747320
3000c4c8:	68742070 	.word	0x68742070
3000c4cc:	65742065 	.word	0x65742065
3000c4d0:	6e697473 	.word	0x6e697473
3000c4d4:	00000067 	.word	0x00000067

3000c4d8 <.LC7>:
3000c4d8:	50202e35 	.word	0x50202e35
3000c4dc:	73736572 	.word	0x73736572
3000c4e0:	796e6120 	.word	0x796e6120
3000c4e4:	79656b20 	.word	0x79656b20
3000c4e8:	6f747320 	.word	0x6f747320
3000c4ec:	68742070 	.word	0x68742070
3000c4f0:	65742065 	.word	0x65742065
3000c4f4:	6e697473 	.word	0x6e697473
3000c4f8:	00000067 	.word	0x00000067

3000c4fc <.LC8>:
3000c4fc:	5446545b 	.word	0x5446545b
3000c500:	204d3420 	.word	0x204d3420
3000c504:	4f4c4f43 	.word	0x4f4c4f43
3000c508:	34322852 	.word	0x34322852
3000c50c:	29707062 	.word	0x29707062
3000c510:	44434c20 	.word	0x44434c20
3000c514:	53455420 	.word	0x53455420
3000c518:	00005d54 	.word	0x00005d54

3000c51c <.LC0>:
3000c51c:	206e6570 	.word	0x206e6570
3000c520:	6e776f64 	.word	0x6e776f64
3000c524:	000d0a2e 	.word	0x000d0a2e

3000c528 <.LC1>:
3000c528:	206e6570 	.word	0x206e6570
3000c52c:	0a2e7075 	.word	0x0a2e7075
3000c530:	0000000d 	.word	0x0000000d

3000c534 <.LC2>:
3000c534:	20656854 	.word	0x20656854
3000c538:	69736f70 	.word	0x69736f70
3000c53c:	6e6f6974 	.word	0x6e6f6974
3000c540:	78203a20 	.word	0x78203a20
3000c544:	25203d20 	.word	0x25203d20
3000c548:	20792c64 	.word	0x20792c64
3000c54c:	6425203d 	.word	0x6425203d
3000c550:	000d0a2e 	.word	0x000d0a2e

3000c554 <.LC0>:
3000c554:	6d6d7544 	.word	0x6d6d7544
3000c558:	73695f79 	.word	0x73695f79
3000c55c:	64253a72 	.word	0x64253a72
3000c560:	00000d0a 	.word	0x00000d0a

3000c564 <__FUNCTION__.1360>:
3000c564:	65747865 	.word	0x65747865
3000c568:	695f6e72 	.word	0x695f6e72
3000c56c:	00007273 	.word	0x00007273

3000c570 <.LC1>:
3000c570:	252d7325 	.word	0x252d7325
3000c574:	64252d73 	.word	0x64252d73
3000c578:	656e696c 	.word	0x656e696c
3000c57c:	3d20692c 	.word	0x3d20692c
3000c580:	0a642520 	.word	0x0a642520
3000c584:	00000009 	.word	0x00000009

3000c588 <.LC2>:
3000c588:	65746e69 	.word	0x65746e69
3000c58c:	70757272 	.word	0x70757272
3000c590:	00632e74 	.word	0x00632e74

3000c594 <.LC3>:
3000c594:	61766e49 	.word	0x61766e49
3000c598:	2064696c 	.word	0x2064696c
3000c59c:	65746e69 	.word	0x65746e69
3000c5a0:	70757265 	.word	0x70757265
3000c5a4:	65762074 	.word	0x65762074
3000c5a8:	726f7463 	.word	0x726f7463
3000c5ac:	6d756e20 	.word	0x6d756e20
3000c5b0:	0000002e 	.word	0x0000002e

3000c5b4 <C.1.1676>:
3000c5b4:	04030201 	.word	0x04030201
3000c5b8:	0605      	.short	0x0605

3000c5ba <C.0.1675>:
3000c5ba:	bbaa      	.short	0xbbaa
3000c5bc:	ffeeddcc 	.word	0xffeeddcc

3000c5c0 <C.5.1747>:
3000c5c0:	8001a8c0 	.word	0x8001a8c0

3000c5c4 <C.4.1746>:
3000c5c4:	0601a8c0 	.word	0x0601a8c0

3000c5c8 <C.11.1826>:
3000c5c8:	ddccbbaa 	.word	0xddccbbaa
3000c5cc:	ffee      	.short	0xffee

3000c5ce <C.10.1825>:
3000c5ce:	a8c0      	.short	0xa8c0
3000c5d0:	8001      	.short	0x8001

3000c5d2 <C.9.1824>:
3000c5d2:	a8c0      	.short	0xa8c0
3000c5d4:	00000601 	.word	0x00000601

3000c5d8 <__FUNCTION__.1922>:
3000c5d8:	5f746567 	.word	0x5f746567
3000c5dc:	30396d64 	.word	0x30396d64
3000c5e0:	725f3030 	.word	0x725f3030
3000c5e4:	756f7365 	.word	0x756f7365
3000c5e8:	00736572 	.word	0x00736572

3000c5ec <.LC0>:
3000c5ec:	705f7467 	.word	0x705f7467
3000c5f0:	6674616c 	.word	0x6674616c
3000c5f4:	5f6d726f 	.word	0x5f6d726f
3000c5f8:	69766564 	.word	0x69766564
3000c5fc:	3d206563 	.word	0x3d206563
3000c600:	0a702520 	.word	0x0a702520
3000c604:	00000000 	.word	0x00000000

3000c608 <.LC1>:
3000c608:	30396d64 	.word	0x30396d64
3000c60c:	00003030 	.word	0x00003030

3000c610 <.LC2>:
3000c610:	252d7325 	.word	0x252d7325
3000c614:	64252d73 	.word	0x64252d73
3000c618:	0000000a 	.word	0x0000000a

3000c61c <.LC3>:
3000c61c:	30396d64 	.word	0x30396d64
3000c620:	632e3030 	.word	0x632e3030
3000c624:	00000000 	.word	0x00000000

3000c628 <.LC4>:
3000c628:	76656470 	.word	0x76656470
3000c62c:	65723e2d 	.word	0x65723e2d
3000c630:	72756f73 	.word	0x72756f73
3000c634:	695b6563 	.word	0x695b6563
3000c638:	74732e5d 	.word	0x74732e5d
3000c63c:	20747261 	.word	0x20747261
3000c640:	7825203d 	.word	0x7825203d
3000c644:	0000000a 	.word	0x0000000a

3000c648 <.LC5>:
3000c648:	76656470 	.word	0x76656470
3000c64c:	65723e2d 	.word	0x65723e2d
3000c650:	72756f73 	.word	0x72756f73
3000c654:	695b6563 	.word	0x695b6563
3000c658:	6c662e5d 	.word	0x6c662e5d
3000c65c:	20736761 	.word	0x20736761
3000c660:	7825203d 	.word	0x7825203d
3000c664:	0000000a 	.word	0x0000000a

3000c668 <.LC6>:
3000c668:	20776f4e 	.word	0x20776f4e
3000c66c:	64616572 	.word	0x64616572
3000c670:	65687420 	.word	0x65687420
3000c674:	396d6420 	.word	0x396d6420
3000c678:	61303030 	.word	0x61303030
3000c67c:	20444920 	.word	0x20444920
3000c680:	6f666e69 	.word	0x6f666e69
3000c684:	6974616d 	.word	0x6974616d
3000c688:	0a2e6e6f 	.word	0x0a2e6e6f
3000c68c:	0000000d 	.word	0x0000000d

3000c690 <.LC7>:
3000c690:	20444956 	.word	0x20444956
3000c694:	7825203d 	.word	0x7825203d
3000c698:	4449502c 	.word	0x4449502c
3000c69c:	25203d20 	.word	0x25203d20
3000c6a0:	0d0a2e78 	.word	0x0d0a2e78
3000c6a4:	00000000 	.word	0x00000000

3000c6a8 <.LC8>:
3000c6a8:	2043414d 	.word	0x2043414d
3000c6ac:	7825203d 	.word	0x7825203d
3000c6b0:	00000000 	.word	0x00000000

3000c6b4 <.LC9>:
3000c6b4:	00782520 	.word	0x00782520

3000c6b8 <.LC10>:
3000c6b8:	0d782520 	.word	0x0d782520
3000c6bc:	0000000a 	.word	0x0000000a

3000c6c0 <.LC11>:
3000c6c0:	2052434e 	.word	0x2052434e
3000c6c4:	7825203d 	.word	0x7825203d
3000c6c8:	00000d0a 	.word	0x00000d0a

3000c6cc <.LC12>:
3000c6cc:	2052534e 	.word	0x2052534e
3000c6d0:	7825203d 	.word	0x7825203d
3000c6d4:	00000d0a 	.word	0x00000d0a

3000c6d8 <.LC13>:
3000c6d8:	20524354 	.word	0x20524354
3000c6dc:	7825203d 	.word	0x7825203d
3000c6e0:	00000d0a 	.word	0x00000d0a

3000c6e4 <.LC14>:
3000c6e4:	31525354 	.word	0x31525354
3000c6e8:	25203d20 	.word	0x25203d20
3000c6ec:	000d0a78 	.word	0x000d0a78

3000c6f0 <.LC15>:
3000c6f0:	32525354 	.word	0x32525354
3000c6f4:	25203d20 	.word	0x25203d20
3000c6f8:	000d0a78 	.word	0x000d0a78

3000c6fc <.LC16>:
3000c6fc:	20524352 	.word	0x20524352
3000c700:	7825203d 	.word	0x7825203d
3000c704:	00000d0a 	.word	0x00000d0a

3000c708 <.LC17>:
3000c708:	20525352 	.word	0x20525352
3000c70c:	7825203d 	.word	0x7825203d
3000c710:	00000d0a 	.word	0x00000d0a

3000c714 <.LC18>:
3000c714:	52434f52 	.word	0x52434f52
3000c718:	25203d20 	.word	0x25203d20
3000c71c:	000d0a78 	.word	0x000d0a78

3000c720 <.LC19>:
3000c720:	54525042 	.word	0x54525042
3000c724:	25203d20 	.word	0x25203d20
3000c728:	000d0a78 	.word	0x000d0a78

3000c72c <.LC20>:
3000c72c:	54524346 	.word	0x54524346
3000c730:	25203d20 	.word	0x25203d20
3000c734:	000d0a78 	.word	0x000d0a78

3000c738 <.LC21>:
3000c738:	43465452 	.word	0x43465452
3000c73c:	203d2052 	.word	0x203d2052
3000c740:	0d0a7825 	.word	0x0d0a7825
3000c744:	00000000 	.word	0x00000000

3000c748 <.LC22>:
3000c748:	52435045 	.word	0x52435045
3000c74c:	25203d20 	.word	0x25203d20
3000c750:	000d0a78 	.word	0x000d0a78

3000c754 <.LC23>:
3000c754:	52415045 	.word	0x52415045
3000c758:	25203d20 	.word	0x25203d20
3000c75c:	000d0a78 	.word	0x000d0a78

3000c760 <.LC24>:
3000c760:	52445045 	.word	0x52445045
3000c764:	203d204c 	.word	0x203d204c
3000c768:	0d0a7825 	.word	0x0d0a7825
3000c76c:	00000000 	.word	0x00000000

3000c770 <.LC25>:
3000c770:	52445045 	.word	0x52445045
3000c774:	203d2048 	.word	0x203d2048
3000c778:	0d0a7825 	.word	0x0d0a7825
3000c77c:	00000000 	.word	0x00000000

3000c780 <.LC26>:
3000c780:	20524357 	.word	0x20524357
3000c784:	7825203d 	.word	0x7825203d
3000c788:	00000d0a 	.word	0x00000d0a

3000c78c <.LC27>:
3000c78c:	52435047 	.word	0x52435047
3000c790:	25203d20 	.word	0x25203d20
3000c794:	000d0a78 	.word	0x000d0a78

3000c798 <.LC28>:
3000c798:	20525047 	.word	0x20525047
3000c79c:	7825203d 	.word	0x7825203d
3000c7a0:	00000d0a 	.word	0x00000d0a

3000c7a4 <.LC29>:
3000c7a4:	52434d53 	.word	0x52434d53
3000c7a8:	25203d20 	.word	0x25203d20
3000c7ac:	000d0a78 	.word	0x000d0a78

3000c7b0 <.LC30>:
3000c7b0:	20525349 	.word	0x20525349
3000c7b4:	7825203d 	.word	0x7825203d
3000c7b8:	00000d0a 	.word	0x00000d0a

3000c7bc <.LC31>:
3000c7bc:	20524d49 	.word	0x20524d49
3000c7c0:	7825203d 	.word	0x7825203d
3000c7c4:	00000d0a 	.word	0x00000d0a

3000c7c8 <.LC32>:
3000c7c8:	65736572 	.word	0x65736572
3000c7cc:	6e697474 	.word	0x6e697474
3000c7d0:	4d442067 	.word	0x4d442067
3000c7d4:	30303039 	.word	0x30303039
3000c7d8:	0000090a 	.word	0x0000090a

3000c7dc <.LC33>:
3000c7dc:	65736572 	.word	0x65736572
3000c7e0:	6e697474 	.word	0x6e697474
3000c7e4:	68742067 	.word	0x68742067
3000c7e8:	4d442065 	.word	0x4d442065
3000c7ec:	30303039 	.word	0x30303039
3000c7f0:	7331202c 	.word	0x7331202c
3000c7f4:	65722074 	.word	0x65722074
3000c7f8:	0a746573 	.word	0x0a746573
3000c7fc:	00000009 	.word	0x00000009

3000c800 <.LC34>:
3000c800:	65736572 	.word	0x65736572
3000c804:	6e697474 	.word	0x6e697474
3000c808:	68742067 	.word	0x68742067
3000c80c:	4d442065 	.word	0x4d442065
3000c810:	30303039 	.word	0x30303039
3000c814:	6e32202c 	.word	0x6e32202c
3000c818:	65722064 	.word	0x65722064
3000c81c:	0a746573 	.word	0x0a746573
3000c820:	00000009 	.word	0x00000009

3000c824 <.LC35>:
3000c824:	4f525245 	.word	0x4f525245
3000c828:	72203a52 	.word	0x72203a52
3000c82c:	74657365 	.word	0x74657365
3000c830:	676e6974 	.word	0x676e6974
3000c834:	394d4420 	.word	0x394d4420
3000c838:	20303030 	.word	0x20303030
3000c83c:	6e203e2d 	.word	0x6e203e2d
3000c840:	7220746f 	.word	0x7220746f
3000c844:	6f707365 	.word	0x6f707365
3000c848:	6e69646e 	.word	0x6e69646e
3000c84c:	00740a67 	.word	0x00740a67

3000c850 <.LC36>:
3000c850:	31525354 	.word	0x31525354
3000c854:	63757320 	.word	0x63757320
3000c858:	64656563 	.word	0x64656563
3000c85c:	00000000 	.word	0x00000000

3000c860 <.LC37>:
3000c860:	31525354 	.word	0x31525354
3000c864:	69616620 	.word	0x69616620
3000c868:	0064656c 	.word	0x0064656c

3000c86c <.LC38>:
3000c86c:	32525354 	.word	0x32525354
3000c870:	63757320 	.word	0x63757320
3000c874:	64656563 	.word	0x64656563
3000c878:	00000000 	.word	0x00000000

3000c87c <.LC39>:
3000c87c:	32525354 	.word	0x32525354
3000c880:	69616620 	.word	0x69616620
3000c884:	0064656c 	.word	0x0064656c

3000c888 <.LC40>:
3000c888:	30394d44 	.word	0x30394d44
3000c88c:	65203030 	.word	0x65203030
3000c890:	726f7272 	.word	0x726f7272
3000c894:	7473203a 	.word	0x7473203a
3000c898:	73757461 	.word	0x73757461
3000c89c:	65686320 	.word	0x65686320
3000c8a0:	66206b63 	.word	0x66206b63
3000c8a4:	3a6c6961 	.word	0x3a6c6961
3000c8a8:	25783020 	.word	0x25783020
3000c8ac:	00000a78 	.word	0x00000a78

3000c8b0 <.LC41>:
3000c8b0:	65636572 	.word	0x65636572
3000c8b4:	6e697669 	.word	0x6e697669
3000c8b8:	61702067 	.word	0x61702067
3000c8bc:	74656b63 	.word	0x74656b63
3000c8c0:	00000000 	.word	0x00000000

3000c8c4 <.LC42>:
3000c8c4:	73207872 	.word	0x73207872
3000c8c8:	75746174 	.word	0x75746174
3000c8cc:	30203a73 	.word	0x30203a73
3000c8d0:	34302578 	.word	0x34302578
3000c8d4:	78722078 	.word	0x78722078
3000c8d8:	6e656c20 	.word	0x6e656c20
3000c8dc:	6425203a 	.word	0x6425203a
3000c8e0:	0000000a 	.word	0x0000000a

3000c8e4 <.LC43>:
3000c8e4:	66207872 	.word	0x66207872
3000c8e8:	206f6669 	.word	0x206f6669
3000c8ec:	6f727265 	.word	0x6f727265
3000c8f0:	00000072 	.word	0x00000072

3000c8f4 <.LC44>:
3000c8f4:	63207872 	.word	0x63207872
3000c8f8:	65206372 	.word	0x65206372
3000c8fc:	726f7272 	.word	0x726f7272
3000c900:	00000000 	.word	0x00000000

3000c904 <.LC45>:
3000c904:	6c207872 	.word	0x6c207872
3000c908:	74676e65 	.word	0x74676e65
3000c90c:	72652068 	.word	0x72652068
3000c910:	00726f72 	.word	0x00726f72

3000c914 <.LC46>:
3000c914:	6c207872 	.word	0x6c207872
3000c918:	74676e65 	.word	0x74676e65
3000c91c:	6f742068 	.word	0x6f742068
3000c920:	6962206f 	.word	0x6962206f
3000c924:	00000067 	.word	0x00000067

3000c928 <__FUNCTION__.2215>:
3000c928:	30396d64 	.word	0x30396d64
3000c92c:	695f3030 	.word	0x695f3030
3000c930:	00007273 	.word	0x00007273

3000c934 <.LC47>:
3000c934:	252d7325 	.word	0x252d7325
3000c938:	64252d73 	.word	0x64252d73
3000c93c:	0000090a 	.word	0x0000090a

3000c940 <.LC48>:
3000c940:	30396d64 	.word	0x30396d64
3000c944:	695f3030 	.word	0x695f3030
3000c948:	2e6f666e 	.word	0x2e6f666e
3000c94c:	6474656e 	.word	0x6474656e
3000c950:	692e7665 	.word	0x692e7665
3000c954:	625f746e 	.word	0x625f746e
3000c958:	3d207361 	.word	0x3d207361
3000c95c:	0a642520 	.word	0x0a642520
3000c960:	00000000 	.word	0x00000000

3000c964 <.LC49>:
3000c964:	30396d64 	.word	0x30396d64
3000c968:	705f3030 	.word	0x705f3030
3000c96c:	725f7968 	.word	0x725f7968
3000c970:	28646165 	.word	0x28646165
3000c974:	78257830 	.word	0x78257830
3000c978:	30203a29 	.word	0x30203a29
3000c97c:	0a782578 	.word	0x0a782578
3000c980:	00000009 	.word	0x00000009

3000c984 <.LC50>:
3000c984:	30396d64 	.word	0x30396d64
3000c988:	69203030 	.word	0x69203030
3000c98c:	203a6f2f 	.word	0x203a6f2f
3000c990:	78257830 	.word	0x78257830
3000c994:	6469202c 	.word	0x6469202c
3000c998:	7830203a 	.word	0x7830203a
3000c99c:	0a207825 	.word	0x0a207825
3000c9a0:	00000009 	.word	0x00000009

3000c9a4 <.LC51>:
3000c9a4:	30396d64 	.word	0x30396d64
3000c9a8:	6e203030 	.word	0x6e203030
3000c9ac:	6620746f 	.word	0x6620746f
3000c9b0:	646e756f 	.word	0x646e756f
3000c9b4:	20746120 	.word	0x20746120
3000c9b8:	30257830 	.word	0x30257830
3000c9bc:	69207838 	.word	0x69207838
3000c9c0:	30203a64 	.word	0x30203a64
3000c9c4:	38302578 	.word	0x38302578
3000c9c8:	00090a78 	.word	0x00090a78

3000c9cc <.LC52>:
3000c9cc:	30396d64 	.word	0x30396d64
3000c9d0:	705f3030 	.word	0x705f3030
3000c9d4:	775f7968 	.word	0x775f7968
3000c9d8:	65746972 	.word	0x65746972
3000c9dc:	67657228 	.word	0x67657228
3000c9e0:	2578303a 	.word	0x2578303a
3000c9e4:	76202c78 	.word	0x76202c78
3000c9e8:	65756c61 	.word	0x65756c61
3000c9ec:	2578303a 	.word	0x2578303a
3000c9f0:	000a2978 	.word	0x000a2978

3000c9f4 <.LC53>:
3000c9f4:	30394d44 	.word	0x30394d44
3000c9f8:	203a3030 	.word	0x203a3030
3000c9fc:	6e6e7572 	.word	0x6e6e7572
3000ca00:	20676e69 	.word	0x20676e69
3000ca04:	31206e69 	.word	0x31206e69
3000ca08:	69622036 	.word	0x69622036
3000ca0c:	6f6d2074 	.word	0x6f6d2074
3000ca10:	00006564 	.word	0x00006564

3000ca14 <.LC54>:
3000ca14:	30394d44 	.word	0x30394d44
3000ca18:	203a3030 	.word	0x203a3030
3000ca1c:	6e6e7572 	.word	0x6e6e7572
3000ca20:	20676e69 	.word	0x20676e69
3000ca24:	33206e69 	.word	0x33206e69
3000ca28:	69622032 	.word	0x69622032
3000ca2c:	6f6d2074 	.word	0x6f6d2074
3000ca30:	00006564 	.word	0x00006564

3000ca34 <.LC55>:
3000ca34:	30394d44 	.word	0x30394d44
3000ca38:	203a3030 	.word	0x203a3030
3000ca3c:	6e6e7572 	.word	0x6e6e7572
3000ca40:	20676e69 	.word	0x20676e69
3000ca44:	38206e69 	.word	0x38206e69
3000ca48:	74696220 	.word	0x74696220
3000ca4c:	646f6d20 	.word	0x646f6d20
3000ca50:	00000065 	.word	0x00000065

3000ca54 <.LC56>:
3000ca54:	30394d44 	.word	0x30394d44
3000ca58:	203a3030 	.word	0x203a3030
3000ca5c:	65646e55 	.word	0x65646e55
3000ca60:	656e6966 	.word	0x656e6966
3000ca64:	4f492064 	.word	0x4f492064
3000ca68:	646f6d2d 	.word	0x646f6d2d
3000ca6c:	78303a65 	.word	0x78303a65
3000ca70:	000a7825 	.word	0x000a7825

3000ca74 <.LC57>:
3000ca74:	78323025 	.word	0x78323025
3000ca78:	0000003a 	.word	0x0000003a

3000ca7c <.LC58>:
3000ca7c:	0000090a 	.word	0x0000090a

3000ca80 <.LC59>:
3000ca80:	7265706f 	.word	0x7265706f
3000ca84:	6e697461 	.word	0x6e697461
3000ca88:	74612067 	.word	0x74612067
3000ca8c:	00000020 	.word	0x00000020

3000ca90 <.LC60>:
3000ca90:	204d3031 	.word	0x204d3031
3000ca94:	666c6168 	.word	0x666c6168
3000ca98:	70756420 	.word	0x70756420
3000ca9c:	2078656c 	.word	0x2078656c
3000caa0:	00000000 	.word	0x00000000

3000caa4 <.LC61>:
3000caa4:	204d3031 	.word	0x204d3031
3000caa8:	6c6c7566 	.word	0x6c6c7566
3000caac:	70756420 	.word	0x70756420
3000cab0:	2078656c 	.word	0x2078656c
3000cab4:	00000000 	.word	0x00000000

3000cab8 <.LC62>:
3000cab8:	4d303031 	.word	0x4d303031
3000cabc:	6c616820 	.word	0x6c616820
3000cac0:	75642066 	.word	0x75642066
3000cac4:	78656c70 	.word	0x78656c70
3000cac8:	00000020 	.word	0x00000020

3000cacc <.LC63>:
3000cacc:	4d303031 	.word	0x4d303031
3000cad0:	6c756620 	.word	0x6c756620
3000cad4:	7564206c 	.word	0x7564206c
3000cad8:	78656c70 	.word	0x78656c70
3000cadc:	00000020 	.word	0x00000020

3000cae0 <.LC64>:
3000cae0:	6e6b6e75 	.word	0x6e6b6e75
3000cae4:	3a6e776f 	.word	0x3a6e776f
3000cae8:	20642520 	.word	0x20642520
3000caec:	00000000 	.word	0x00000000

3000caf0 <.LC65>:
3000caf0:	65646f6d 	.word	0x65646f6d
3000caf4:	0000090a 	.word	0x0000090a

3000caf8 <__FUNCTION__.2380>:
3000caf8:	30396d64 	.word	0x30396d64
3000cafc:	695f3030 	.word	0x695f3030
3000cb00:	6974696e 	.word	0x6974696e
3000cb04:	7a696c61 	.word	0x7a696c61
3000cb08:	00000065 	.word	0x00000065

3000cb0c <.LC66>:
3000cb0c:	20746567 	.word	0x20746567
3000cb10:	6f736572 	.word	0x6f736572
3000cb14:	73657275 	.word	0x73657275
3000cb18:	69616620 	.word	0x69616620
3000cb1c:	2e64656c 	.word	0x2e64656c
3000cb20:	00000000 	.word	0x00000000

3000cb24 <.LC0>:
3000cb24:	5f707261 	.word	0x5f707261
3000cb28:	74736574 	.word	0x74736574
3000cb2c:	394d443a 	.word	0x394d443a
3000cb30:	5f303030 	.word	0x5f303030
3000cb34:	646e6573 	.word	0x646e6573
3000cb38:	6b636150 	.word	0x6b636150
3000cb3c:	34207465 	.word	0x34207465
3000cb40:	000d0a32 	.word	0x000d0a32

3000cb44 <.LC1>:
3000cb44:	20707261 	.word	0x20707261
3000cb48:	75716572 	.word	0x75716572
3000cb4c:	0a747365 	.word	0x0a747365
3000cb50:	0000000d 	.word	0x0000000d

3000cb54 <.LC2>:
3000cb54:	20707261 	.word	0x20707261
3000cb58:	6e6b6361 	.word	0x6e6b6361
3000cb5c:	656c776f 	.word	0x656c776f
3000cb60:	2c656764 	.word	0x2c656764
3000cb64:	74736564 	.word	0x74736564
3000cb68:	63616d20 	.word	0x63616d20
3000cb6c:	0000003a 	.word	0x0000003a

3000cb70 <.LC3>:
3000cb70:	00207825 	.word	0x00207825

3000cb74 <.LC4>:
3000cb74:	00000d0a 	.word	0x00000d0a

3000cb78 <.LC0>:
3000cb78:	5f687465 	.word	0x5f687465
3000cb7c:	69676572 	.word	0x69676572
3000cb80:	72657473 	.word	0x72657473
3000cb84:	72726520 	.word	0x72726520
3000cb88:	0a2e726f 	.word	0x0a2e726f
3000cb8c:	00000009 	.word	0x00000009

3000cb90 <.LC1>:
3000cb90:	206e656c 	.word	0x206e656c
3000cb94:	20646162 	.word	0x20646162
3000cb98:	3c206425 	.word	0x3c206425
3000cb9c:	756c2520 	.word	0x756c2520
3000cba0:	0000000a 	.word	0x0000000a

3000cba4 <.LC2>:
3000cba4:	206e656c 	.word	0x206e656c
3000cba8:	20646162 	.word	0x20646162
3000cbac:	3c206425 	.word	0x3c206425
3000cbb0:	0a642520 	.word	0x0a642520
3000cbb4:	00000000 	.word	0x00000000

3000cbb8 <.LC3>:
3000cbb8:	63656863 	.word	0x63656863
3000cbbc:	6d75736b 	.word	0x6d75736b
3000cbc0:	64616220 	.word	0x64616220
3000cbc4:	00000000 	.word	0x00000000

3000cbc8 <.LC0>:
3000cbc8:	4979654b 	.word	0x4979654b
3000cbcc:	5f32544e 	.word	0x5f32544e
3000cbd0:	646e6148 	.word	0x646e6148
3000cbd4:	090a656c 	.word	0x090a656c
3000cbd8:	00000000 	.word	0x00000000

3000cbdc <.LC1>:
3000cbdc:	4979654b 	.word	0x4979654b
3000cbe0:	5f33544e 	.word	0x5f33544e
3000cbe4:	646e6148 	.word	0x646e6148
3000cbe8:	090a656c 	.word	0x090a656c
3000cbec:	00000000 	.word	0x00000000

3000cbf0 <.LC2>:
3000cbf0:	4979654b 	.word	0x4979654b
3000cbf4:	5f34544e 	.word	0x5f34544e
3000cbf8:	646e6148 	.word	0x646e6148
3000cbfc:	090a656c 	.word	0x090a656c
3000cc00:	00000000 	.word	0x00000000
3000cc04:	30396d64 	.word	0x30396d64
3000cc08:	00003030 	.word	0x00003030

3000cc0c <.LC1>:
3000cc0c:	76656470 	.word	0x76656470
3000cc10:	25203d20 	.word	0x25203d20
3000cc14:	6d732c78 	.word	0x6d732c78
3000cc18:	34326b64 	.word	0x34326b64
3000cc1c:	645f3034 	.word	0x645f3034
3000cc20:	63697665 	.word	0x63697665
3000cc24:	305b7365 	.word	0x305b7365
3000cc28:	203d205d 	.word	0x203d205d
3000cc2c:	262c7025 	.word	0x262c7025
3000cc30:	32633373 	.word	0x32633373
3000cc34:	5f303434 	.word	0x5f303434
3000cc38:	69766564 	.word	0x69766564
3000cc3c:	655f6563 	.word	0x655f6563
3000cc40:	3d206874 	.word	0x3d206874
3000cc44:	0a702520 	.word	0x0a702520
3000cc48:	00000000 	.word	0x00000000

3000cc4c <.LC2>:
3000cc4c:	6b646d73 	.word	0x6b646d73
3000cc50:	30343432 	.word	0x30343432
3000cc54:	7665645f 	.word	0x7665645f
3000cc58:	73656369 	.word	0x73656369
3000cc5c:	5d64255b 	.word	0x5d64255b
3000cc60:	25203d20 	.word	0x25203d20
3000cc64:	00000a70 	.word	0x00000a70

3000cc68 <.LC3>:
3000cc68:	69676552 	.word	0x69676552
3000cc6c:	72657473 	.word	0x72657473
3000cc70:	6c612073 	.word	0x6c612073
3000cc74:	6874206c 	.word	0x6874206c
3000cc78:	6c702065 	.word	0x6c702065
3000cc7c:	6f667461 	.word	0x6f667461
3000cc80:	64206d72 	.word	0x64206d72
3000cc84:	63697665 	.word	0x63697665
3000cc88:	002e7365 	.word	0x002e7365

3000cc8c <.LC0>:
3000cc8c:	705f7467 	.word	0x705f7467
3000cc90:	6674616c 	.word	0x6674616c
3000cc94:	5f6d726f 	.word	0x5f6d726f
3000cc98:	69766564 	.word	0x69766564
3000cc9c:	3d206563 	.word	0x3d206563
3000cca0:	2c702520 	.word	0x2c702520
3000cca4:	73766564 	.word	0x73766564
3000cca8:	205d305b 	.word	0x205d305b
3000ccac:	7025203d 	.word	0x7025203d
3000ccb0:	6d756e2c 	.word	0x6d756e2c
3000ccb4:	25203d20 	.word	0x25203d20
3000ccb8:	00000a64 	.word	0x00000a64

3000ccbc <.LC0>:
3000ccbc:	61656c70 	.word	0x61656c70
3000ccc0:	69206573 	.word	0x69206573
3000ccc4:	7475706e 	.word	0x7475706e
3000ccc8:	63206120 	.word	0x63206120
3000cccc:	61726168 	.word	0x61726168
3000ccd0:	726f7463 	.word	0x726f7463
3000ccd4:	206f7420 	.word	0x206f7420
3000ccd8:	656c6573 	.word	0x656c6573
3000ccdc:	66207463 	.word	0x66207463
3000cce0:	74636e75 	.word	0x74636e75
3000cce4:	2e6e6f69 	.word	0x2e6e6f69
3000cce8:	00000000 	.word	0x00000000

3000ccec <.LC1>:
3000ccec:	65542d31 	.word	0x65542d31
3000ccf0:	4c5f7473 	.word	0x4c5f7473
3000ccf4:	545f6463 	.word	0x545f6463
3000ccf8:	315f7466 	.word	0x315f7466
3000ccfc:	74694236 	.word	0x74694236
3000cd00:	3034325f 	.word	0x3034325f
3000cd04:	2e303233 	.word	0x2e303233
3000cd08:	00000d0a 	.word	0x00000d0a

3000cd0c <.LC2>:
3000cd0c:	65542d32 	.word	0x65542d32
3000cd10:	4c5f7473 	.word	0x4c5f7473
3000cd14:	545f6463 	.word	0x545f6463
3000cd18:	385f7466 	.word	0x385f7466
3000cd1c:	5f746942 	.word	0x5f746942
3000cd20:	33303432 	.word	0x33303432
3000cd24:	0a2e3032 	.word	0x0a2e3032
3000cd28:	0000000d 	.word	0x0000000d

3000cd2c <.LC3>:
3000cd2c:	65542d33 	.word	0x65542d33
3000cd30:	4c5f7473 	.word	0x4c5f7473
3000cd34:	545f6463 	.word	0x545f6463
3000cd38:	315f7466 	.word	0x315f7466
3000cd3c:	74694236 	.word	0x74694236
3000cd40:	3034365f 	.word	0x3034365f
3000cd44:	2e303834 	.word	0x2e303834
3000cd48:	00000d0a 	.word	0x00000d0a

3000cd4c <.LC4>:
3000cd4c:	65542d34 	.word	0x65542d34
3000cd50:	4c5f7473 	.word	0x4c5f7473
3000cd54:	545f6463 	.word	0x545f6463
3000cd58:	385f7466 	.word	0x385f7466
3000cd5c:	5f746942 	.word	0x5f746942
3000cd60:	34303436 	.word	0x34303436
3000cd64:	0a2e3038 	.word	0x0a2e3038
3000cd68:	0000000d 	.word	0x0000000d

3000cd6c <.LC5>:
3000cd6c:	65542d35 	.word	0x65542d35
3000cd70:	4c5f7473 	.word	0x4c5f7473
3000cd74:	545f6463 	.word	0x545f6463
3000cd78:	325f7466 	.word	0x325f7466
3000cd7c:	74694234 	.word	0x74694234
3000cd80:	3038345f 	.word	0x3038345f
3000cd84:	2e323732 	.word	0x2e323732
3000cd88:	00000d0a 	.word	0x00000d0a

3000cd8c <.LC6>:
3000cd8c:	6f662d71 	.word	0x6f662d71
3000cd90:	75712072 	.word	0x75712072
3000cd94:	74207469 	.word	0x74207469
3000cd98:	2e747365 	.word	0x2e747365
3000cd9c:	00000000 	.word	0x00000000

3000cda0 <.LC7>:
3000cda0:	0d0a6325 	.word	0x0d0a6325
3000cda4:	00000000 	.word	0x00000000

3000cda8 <.LC8>:
3000cda8:	72756f59 	.word	0x72756f59
3000cdac:	706e6920 	.word	0x706e6920
3000cdb0:	65207475 	.word	0x65207475
3000cdb4:	726f7272 	.word	0x726f7272
3000cdb8:	7972742c 	.word	0x7972742c
3000cdbc:	61676120 	.word	0x61676120
3000cdc0:	002e6e69 	.word	0x002e6e69

3000cdc4 <.LC9>:
3000cdc4:	75706e49 	.word	0x75706e49
3000cdc8:	6f792074 	.word	0x6f792074
3000cdcc:	73207275 	.word	0x73207275
3000cdd0:	63656c65 	.word	0x63656c65
3000cdd4:	756e2074 	.word	0x756e2074
3000cdd8:	7265626d 	.word	0x7265626d
3000cddc:	0000002e 	.word	0x0000002e

3000cde0 <.LC10>:
3000cde0:	74697551 	.word	0x74697551
3000cde4:	726f6620 	.word	0x726f6620
3000cde8:	64636c20 	.word	0x64636c20
3000cdec:	73657420 	.word	0x73657420
3000cdf0:	00002e74 	.word	0x00002e74

3000cdf4 <.LC11>:
3000cdf4:	74696e49 	.word	0x74696e49
3000cdf8:	696c6169 	.word	0x696c6169
3000cdfc:	6974617a 	.word	0x6974617a
3000ce00:	61206e6f 	.word	0x61206e6f
3000ce04:	2e2e6364 	.word	0x2e2e6364
3000ce08:	2e2e2e2e 	.word	0x2e2e2e2e
3000ce0c:	00000000 	.word	0x00000000

3000ce10 <.LC12>:
3000ce10:	75706e69 	.word	0x75706e69
3000ce14:	61272074 	.word	0x61272074
3000ce18:	6f742027 	.word	0x6f742027
3000ce1c:	61747320 	.word	0x61747320
3000ce20:	6e207472 	.word	0x6e207472
3000ce24:	616d726f 	.word	0x616d726f
3000ce28:	6461206c 	.word	0x6461206c
3000ce2c:	610d0a63 	.word	0x610d0a63
3000ce30:	6920646e 	.word	0x6920646e
3000ce34:	7475706e 	.word	0x7475706e
3000ce38:	27742720 	.word	0x27742720
3000ce3c:	206f7420 	.word	0x206f7420
3000ce40:	72617473 	.word	0x72617473
3000ce44:	73742074 	.word	0x73742074
3000ce48:	71270d0a 	.word	0x71270d0a
3000ce4c:	6f662027 	.word	0x6f662027
3000ce50:	75712072 	.word	0x75712072
3000ce54:	0a2e7469 	.word	0x0a2e7469
3000ce58:	0000000d 	.word	0x0000000d

3000ce5c <.LC13>:
3000ce5c:	20776f4e 	.word	0x20776f4e
3000ce60:	64616572 	.word	0x64616572
3000ce64:	65687420 	.word	0x65687420
3000ce68:	72617620 	.word	0x72617620
3000ce6c:	6c626169 	.word	0x6c626169
3000ce70:	65722065 	.word	0x65722065
3000ce74:	74736973 	.word	0x74736973
3000ce78:	65636e61 	.word	0x65636e61
3000ce7c:	6c617620 	.word	0x6c617620
3000ce80:	253a6575 	.word	0x253a6575
3000ce84:	000d0a64 	.word	0x000d0a64

3000ce88 <.LC14>:
3000ce88:	74697551 	.word	0x74697551
3000ce8c:	726f6620 	.word	0x726f6620
3000ce90:	63646120 	.word	0x63646120
3000ce94:	73657420 	.word	0x73657420
3000ce98:	0d0a2e74 	.word	0x0d0a2e74
3000ce9c:	00000000 	.word	0x00000000

3000cea0 <.LC15>:
3000cea0:	30396d64 	.word	0x30396d64
3000cea4:	695f3030 	.word	0x695f3030
3000cea8:	6974696e 	.word	0x6974696e
3000ceac:	7a696c61 	.word	0x7a696c61
3000ceb0:	72652065 	.word	0x72652065
3000ceb4:	2e726f72 	.word	0x2e726f72
3000ceb8:	00000000 	.word	0x00000000

3000cebc <.LC16>:
3000cebc:	5f687465 	.word	0x5f687465
3000cec0:	74696e69 	.word	0x74696e69
3000cec4:	72726520 	.word	0x72726520
3000cec8:	002e726f 	.word	0x002e726f

Disassembly of section .data:

3000cecc <_ctype>:
3000cecc:	08080808 	.word	0x08080808
3000ced0:	08080808 	.word	0x08080808
3000ced4:	28282808 	.word	0x28282808
3000ced8:	08082828 	.word	0x08082828
3000cedc:	08080808 	.word	0x08080808
3000cee0:	08080808 	.word	0x08080808
3000cee4:	08080808 	.word	0x08080808
3000cee8:	08080808 	.word	0x08080808
3000ceec:	101010a0 	.word	0x101010a0
3000cef0:	10101010 	.word	0x10101010
3000cef4:	10101010 	.word	0x10101010
3000cef8:	10101010 	.word	0x10101010
3000cefc:	04040404 	.word	0x04040404
3000cf00:	04040404 	.word	0x04040404
3000cf04:	10100404 	.word	0x10100404
3000cf08:	10101010 	.word	0x10101010
3000cf0c:	41414110 	.word	0x41414110
3000cf10:	01414141 	.word	0x01414141
3000cf14:	01010101 	.word	0x01010101
3000cf18:	01010101 	.word	0x01010101
3000cf1c:	01010101 	.word	0x01010101
3000cf20:	01010101 	.word	0x01010101
3000cf24:	10010101 	.word	0x10010101
3000cf28:	10101010 	.word	0x10101010
3000cf2c:	42424210 	.word	0x42424210
3000cf30:	02424242 	.word	0x02424242
3000cf34:	02020202 	.word	0x02020202
3000cf38:	02020202 	.word	0x02020202
3000cf3c:	02020202 	.word	0x02020202
3000cf40:	02020202 	.word	0x02020202
3000cf44:	10020202 	.word	0x10020202
3000cf48:	08101010 	.word	0x08101010
	...
3000cf6c:	101010a0 	.word	0x101010a0
3000cf70:	10101010 	.word	0x10101010
3000cf74:	10101010 	.word	0x10101010
3000cf78:	10101010 	.word	0x10101010
3000cf7c:	10101010 	.word	0x10101010
3000cf80:	10101010 	.word	0x10101010
3000cf84:	10101010 	.word	0x10101010
3000cf88:	10101010 	.word	0x10101010
3000cf8c:	01010101 	.word	0x01010101
3000cf90:	01010101 	.word	0x01010101
3000cf94:	01010101 	.word	0x01010101
3000cf98:	01010101 	.word	0x01010101
3000cf9c:	01010101 	.word	0x01010101
3000cfa0:	10010101 	.word	0x10010101
3000cfa4:	01010101 	.word	0x01010101
3000cfa8:	02010101 	.word	0x02010101
3000cfac:	02020202 	.word	0x02020202
3000cfb0:	02020202 	.word	0x02020202
3000cfb4:	02020202 	.word	0x02020202
3000cfb8:	02020202 	.word	0x02020202
3000cfbc:	02020202 	.word	0x02020202
3000cfc0:	10020202 	.word	0x10020202
3000cfc4:	02020202 	.word	0x02020202
3000cfc8:	02020202 	.word	0x02020202

3000cfcc <warn.1754>:
3000cfcc:	00000001 	.word	0x00000001

3000cfd0 <mac_addr>:
3000cfd0:	4d3c2b1a 	.word	0x4d3c2b1a
3000cfd4:	00006f5e 	.word	0x00006f5e

3000cfd8 <dm9000_cmd_base>:
3000cfd8:	20000000 	.word	0x20000000

3000cfdc <dm9000_data_base>:
3000cfdc:	20000004 	.word	0x20000004

3000cfe0 <arpsendbuf>:
3000cfe0:	ffffffff 	.word	0xffffffff
3000cfe4:	2b1affff 	.word	0x2b1affff
3000cfe8:	6f5e4d3c 	.word	0x6f5e4d3c
3000cfec:	01000608 	.word	0x01000608
3000cff0:	04060008 	.word	0x04060008
3000cff4:	bbaa0100 	.word	0xbbaa0100
3000cff8:	ffeeddcc 	.word	0xffeeddcc
3000cffc:	0601a8c0 	.word	0x0601a8c0
3000d000:	00000000 	.word	0x00000000
3000d004:	a8c00000 	.word	0xa8c00000
3000d008:	8001      	.short	0x8001

3000d00a <NetOurVLAN>:
3000d00a:	ffff      	.short	0xffff

3000d00c <NetOurNativeVLAN>:
3000d00c:	ffff      	.short	0xffff

Disassembly of section .data.rel.local:

3000d010 <sys_call_tbl>:
3000d010:	300001bc 	.word	0x300001bc
3000d014:	30000210 	.word	0x30000210
3000d018:	3000025c 	.word	0x3000025c
3000d01c:	30000280 	.word	0x30000280
3000d020:	300002a4 	.word	0x300002a4
3000d024:	300002c0 	.word	0x300002c0
3000d028:	300002e4 	.word	0x300002e4
3000d02c:	30000308 	.word	0x30000308
3000d030:	30000324 	.word	0x30000324
3000d034:	30000348 	.word	0x30000348

Disassembly of section .data.rel:

3000d038 <Uart_Oper>:
3000d038:	00000000 	.word	0x00000000
3000d03c:	300006c4 	.word	0x300006c4
3000d040:	3000070c 	.word	0x3000070c

Disassembly of section .init_data:

3000d044 <s3c2440_dm9000_resource>:
3000d044:	20000000 	.word	0x20000000
3000d048:	20000003 	.word	0x20000003
3000d04c:	00000000 	.word	0x00000000
3000d050:	00000200 	.word	0x00000200
	...
3000d060:	20000004 	.word	0x20000004
3000d064:	20000007 	.word	0x20000007
3000d068:	00000000 	.word	0x00000000
3000d06c:	00000200 	.word	0x00000200
	...
3000d07c:	00000007 	.word	0x00000007
3000d080:	00000007 	.word	0x00000007
3000d084:	00000000 	.word	0x00000000
3000d088:	00000401 	.word	0x00000401
	...

3000d098 <s3c2440_dm9000_pdata>:
3000d098:	00000012 	.word	0x00000012
3000d09c:	3d2c1b0a 	.word	0x3d2c1b0a
3000d0a0:	00005f4e 	.word	0x00005f4e
	...

3000d0b0 <s3c2440_device_eth>:
3000d0b0:	3000cc04 	.word	0x3000cc04
3000d0b4:	ffffffff 	.word	0xffffffff
3000d0b8:	00000003 	.word	0x00000003
3000d0bc:	3000d044 	.word	0x3000d044
3000d0c0:	00000000 	.word	0x00000000
3000d0c4:	3000d098 	.word	0x3000d098

3000d0c8 <smdk2440_devices>:
3000d0c8:	3000d0b0 	.word	0x3000d0b0

Disassembly of section .bss:

3000d0cc <g_pcOutBuf>:
	...

3000d4cc <g_pcInBuf>:
	...

3000d8cc <g_fb_base_addr>:
3000d8cc:	00000000 	andeq	r0, r0, r0

3000d8d0 <g_bpp>:
3000d8d0:	00000000 	andeq	r0, r0, r0

3000d8d4 <g_xsize>:
3000d8d4:	00000000 	andeq	r0, r0, r0

3000d8d8 <g_ysize>:
3000d8d8:	00000000 	andeq	r0, r0, r0

3000d8dc <adc_reg>:
3000d8dc:	00000000 	.word	0x00000000

3000d8e0 <g_xpos>:
	...

3000d8e2 <g_ypos>:
	...

3000d8e4 <num.1261>:
3000d8e4:	00000000 	.word	0x00000000

3000d8e8 <isr_handle_array>:
	...

3000d968 <externINT_handle_array>:
	...

3000d9c8 <dm9000_info>:
	...

3000dab8 <index.1656>:
3000dab8:	00000000 	.word	0x00000000

3000dabc <eth_devices>:
3000dabc:	00000000 	.word	0x00000000

3000dac0 <current_ethdev>:
3000dac0:	00000000 	.word	0x00000000

3000dac4 <gt_platform_device>:
3000dac4:	00000000 	.word	0x00000000

3000dac8 <___strtok>:
3000dac8:	00000000 	.word	0x00000000

Disassembly of section .ARM.attributes:

00000000 <.ARM.attributes>:
   0:	00002541 	andeq	r2, r0, r1, asr #10
   4:	61656100 	cmnvs	r5, r0, lsl #2
   8:	01006962 	tsteq	r0, r2, ror #18
   c:	0000001b 	andeq	r0, r0, fp, lsl r0
  10:	00543405 	subseq	r3, r4, r5, lsl #8
  14:	01080206 	tsteq	r8, r6, lsl #4
  18:	04120109 	ldreq	r0, [r2], #-265
  1c:	01150114 	tsteq	r5, r4, lsl r1
  20:	01180317 	tsteq	r8, r7, lsl r3
  24:	Address 0x00000024 is out of bounds.


Disassembly of section .comment:

00000000 <.comment>:
   0:	43434700 	movtmi	r4, #14080	; 0x3700
   4:	5328203a 	.word	0x5328203a
   8:	756f      	.short	0x756f
   a:	6372      	.short	0x6372
   c:	20797265 	.word	0x20797265
  10:	202b2b47 	.word	0x202b2b47
  14:	6574694c 	.word	0x6574694c
  18:	30303220 	.word	0x30303220
  1c:	2d317139 	.word	0x2d317139
  20:	29363731 	.word	0x29363731
  24:	332e3420 	.word	0x332e3420
  28:	0000332e 	.word	0x0000332e
  2c:	3a434347 	.word	0x3a434347
  30:	6f532820 	.word	0x6f532820
  34:	65637275 	.word	0x65637275
  38:	47207972 	.word	0x47207972
  3c:	4c202b2b 	.word	0x4c202b2b
  40:	20657469 	.word	0x20657469
  44:	39303032 	.word	0x39303032
  48:	312d3171 	.word	0x312d3171
  4c:	20293637 	.word	0x20293637
  50:	2e332e34 	.word	0x2e332e34
  54:	0033      	.short	0x0033
  56:	00          	.byte	0x00
  57:	47          	.byte	0x47
  58:	203a4343 	.word	0x203a4343
  5c:	756f5328 	.word	0x756f5328
  60:	72656372 	.word	0x72656372
  64:	2b472079 	.word	0x2b472079
  68:	694c202b 	.word	0x694c202b
  6c:	32206574 	.word	0x32206574
  70:	71393030 	.word	0x71393030
  74:	37312d31 	.word	0x37312d31
  78:	34202936 	.word	0x34202936
  7c:	332e332e 	.word	0x332e332e
  80:	0000      	.short	0x0000
  82:	4347      	.short	0x4347
  84:	28203a43 	.word	0x28203a43
  88:	72756f53 	.word	0x72756f53
  8c:	79726563 	.word	0x79726563
  90:	2b2b4720 	.word	0x2b2b4720
  94:	74694c20 	.word	0x74694c20
  98:	30322065 	.word	0x30322065
  9c:	31713930 	.word	0x31713930
  a0:	3637312d 	.word	0x3637312d
  a4:	2e342029 	.word	0x2e342029
  a8:	00332e33 	.word	0x00332e33
  ac:	00          	.byte	0x00
  ad:	47          	.byte	0x47
  ae:	4343      	.short	0x4343
  b0:	5328203a 	.word	0x5328203a
  b4:	6372756f 	.word	0x6372756f
  b8:	20797265 	.word	0x20797265
  bc:	202b2b47 	.word	0x202b2b47
  c0:	6574694c 	.word	0x6574694c
  c4:	30303220 	.word	0x30303220
  c8:	2d317139 	.word	0x2d317139
  cc:	29363731 	.word	0x29363731
  d0:	332e3420 	.word	0x332e3420
  d4:	0000332e 	.word	0x0000332e
  d8:	3a434347 	.word	0x3a434347
  dc:	6f532820 	.word	0x6f532820
  e0:	65637275 	.word	0x65637275
  e4:	47207972 	.word	0x47207972
  e8:	4c202b2b 	.word	0x4c202b2b
  ec:	20657469 	.word	0x20657469
  f0:	39303032 	.word	0x39303032
  f4:	312d3171 	.word	0x312d3171
  f8:	20293637 	.word	0x20293637
  fc:	2e332e34 	.word	0x2e332e34
 100:	47000033 	.word	0x47000033
 104:	203a4343 	.word	0x203a4343
 108:	756f5328 	.word	0x756f5328
 10c:	72656372 	.word	0x72656372
 110:	2b472079 	.word	0x2b472079
 114:	694c202b 	.word	0x694c202b
 118:	32206574 	.word	0x32206574
 11c:	71393030 	.word	0x71393030
 120:	37312d31 	.word	0x37312d31
 124:	34202936 	.word	0x34202936
 128:	332e332e 	.word	0x332e332e
 12c:	43470000 	.word	0x43470000
 130:	28203a43 	.word	0x28203a43
 134:	72756f53 	.word	0x72756f53
 138:	79726563 	.word	0x79726563
 13c:	2b2b4720 	.word	0x2b2b4720
 140:	74694c20 	.word	0x74694c20
 144:	30322065 	.word	0x30322065
 148:	31713930 	.word	0x31713930
 14c:	3637312d 	.word	0x3637312d
 150:	2e342029 	.word	0x2e342029
 154:	00332e33 	.word	0x00332e33
 158:	00          	.byte	0x00
 159:	47          	.byte	0x47
 15a:	4343      	.short	0x4343
 15c:	5328203a 	.word	0x5328203a
 160:	6372756f 	.word	0x6372756f
 164:	20797265 	.word	0x20797265
 168:	202b2b47 	.word	0x202b2b47
 16c:	6574694c 	.word	0x6574694c
 170:	30303220 	.word	0x30303220
 174:	2d317139 	.word	0x2d317139
 178:	29363731 	.word	0x29363731
 17c:	332e3420 	.word	0x332e3420
 180:	0000332e 	.word	0x0000332e
 184:	3a434347 	.word	0x3a434347
 188:	6f532820 	.word	0x6f532820
 18c:	65637275 	.word	0x65637275
 190:	47207972 	.word	0x47207972
 194:	4c202b2b 	.word	0x4c202b2b
 198:	20657469 	.word	0x20657469
 19c:	39303032 	.word	0x39303032
 1a0:	312d3171 	.word	0x312d3171
 1a4:	20293637 	.word	0x20293637
 1a8:	2e332e34 	.word	0x2e332e34
 1ac:	0033      	.short	0x0033
 1ae:	00          	.byte	0x00
 1af:	47          	.byte	0x47
 1b0:	203a4343 	.word	0x203a4343
 1b4:	756f5328 	.word	0x756f5328
 1b8:	72656372 	.word	0x72656372
 1bc:	2b472079 	.word	0x2b472079
 1c0:	694c202b 	.word	0x694c202b
 1c4:	32206574 	.word	0x32206574
 1c8:	71393030 	.word	0x71393030
 1cc:	37312d31 	.word	0x37312d31
 1d0:	34202936 	.word	0x34202936
 1d4:	332e332e 	.word	0x332e332e
 1d8:	0000      	.short	0x0000
 1da:	4347      	.short	0x4347
 1dc:	28203a43 	.word	0x28203a43
 1e0:	72756f53 	.word	0x72756f53
 1e4:	79726563 	.word	0x79726563
 1e8:	2b2b4720 	.word	0x2b2b4720
 1ec:	74694c20 	.word	0x74694c20
 1f0:	30322065 	.word	0x30322065
 1f4:	31713930 	.word	0x31713930
 1f8:	3637312d 	.word	0x3637312d
 1fc:	2e342029 	.word	0x2e342029
 200:	00332e33 	.word	0x00332e33
 204:	00          	.byte	0x00
 205:	47          	.byte	0x47
 206:	4343      	.short	0x4343
 208:	5328203a 	.word	0x5328203a
 20c:	6372756f 	.word	0x6372756f
 210:	20797265 	.word	0x20797265
 214:	202b2b47 	.word	0x202b2b47
 218:	6574694c 	.word	0x6574694c
 21c:	30303220 	.word	0x30303220
 220:	2d317139 	.word	0x2d317139
 224:	29363731 	.word	0x29363731
 228:	332e3420 	.word	0x332e3420
 22c:	0000332e 	.word	0x0000332e
 230:	3a434347 	.word	0x3a434347
 234:	6f532820 	.word	0x6f532820
 238:	65637275 	.word	0x65637275
 23c:	47207972 	.word	0x47207972
 240:	4c202b2b 	.word	0x4c202b2b
 244:	20657469 	.word	0x20657469
 248:	39303032 	.word	0x39303032
 24c:	312d3171 	.word	0x312d3171
 250:	20293637 	.word	0x20293637
 254:	2e332e34 	.word	0x2e332e34
 258:	47000033 	.word	0x47000033
 25c:	203a4343 	.word	0x203a4343
 260:	756f5328 	.word	0x756f5328
 264:	72656372 	.word	0x72656372
 268:	2b472079 	.word	0x2b472079
 26c:	694c202b 	.word	0x694c202b
 270:	32206574 	.word	0x32206574
 274:	71393030 	.word	0x71393030
 278:	37312d31 	.word	0x37312d31
 27c:	34202936 	.word	0x34202936
 280:	332e332e 	.word	0x332e332e
 284:	43470000 	.word	0x43470000
 288:	28203a43 	.word	0x28203a43
 28c:	72756f53 	.word	0x72756f53
 290:	79726563 	.word	0x79726563
 294:	2b2b4720 	.word	0x2b2b4720
 298:	74694c20 	.word	0x74694c20
 29c:	30322065 	.word	0x30322065
 2a0:	31713930 	.word	0x31713930
 2a4:	3637312d 	.word	0x3637312d
 2a8:	2e342029 	.word	0x2e342029
 2ac:	00332e33 	.word	0x00332e33
 2b0:	43434700 	.word	0x43434700
 2b4:	5328203a 	.word	0x5328203a
 2b8:	6372756f 	.word	0x6372756f
 2bc:	20797265 	.word	0x20797265
 2c0:	202b2b47 	.word	0x202b2b47
 2c4:	6574694c 	.word	0x6574694c
 2c8:	30303220 	.word	0x30303220
 2cc:	2d317139 	.word	0x2d317139
 2d0:	29363731 	.word	0x29363731
 2d4:	332e3420 	.word	0x332e3420
 2d8:	0000332e 	.word	0x0000332e
 2dc:	3a434347 	.word	0x3a434347
 2e0:	6f532820 	.word	0x6f532820
 2e4:	65637275 	.word	0x65637275
 2e8:	47207972 	.word	0x47207972
 2ec:	4c202b2b 	.word	0x4c202b2b
 2f0:	20657469 	.word	0x20657469
 2f4:	39303032 	.word	0x39303032
 2f8:	312d3171 	.word	0x312d3171
 2fc:	20293637 	.word	0x20293637
 300:	2e332e34 	.word	0x2e332e34
 304:	47000033 	.word	0x47000033
 308:	203a4343 	.word	0x203a4343
 30c:	756f5328 	.word	0x756f5328
 310:	72656372 	.word	0x72656372
 314:	2b472079 	.word	0x2b472079
 318:	694c202b 	.word	0x694c202b
 31c:	32206574 	.word	0x32206574
 320:	71393030 	.word	0x71393030
 324:	37312d31 	.word	0x37312d31
 328:	34202936 	.word	0x34202936
 32c:	332e332e 	.word	0x332e332e
 330:	0000      	.short	0x0000
 332:	4347      	.short	0x4347
 334:	28203a43 	.word	0x28203a43
 338:	72756f53 	.word	0x72756f53
 33c:	79726563 	.word	0x79726563
 340:	2b2b4720 	.word	0x2b2b4720
 344:	74694c20 	.word	0x74694c20
 348:	30322065 	.word	0x30322065
 34c:	31713930 	.word	0x31713930
 350:	3637312d 	.word	0x3637312d
 354:	2e342029 	.word	0x2e342029
 358:	00332e33 	.word	0x00332e33
 35c:	43434700 	.word	0x43434700
 360:	5328203a 	.word	0x5328203a
 364:	6372756f 	.word	0x6372756f
 368:	20797265 	.word	0x20797265
 36c:	202b2b47 	.word	0x202b2b47
 370:	6574694c 	.word	0x6574694c
 374:	30303220 	.word	0x30303220
 378:	2d317139 	.word	0x2d317139
 37c:	29363731 	.word	0x29363731
 380:	332e3420 	.word	0x332e3420
 384:	0000332e 	.word	0x0000332e
 388:	3a434347 	.word	0x3a434347
 38c:	6f532820 	.word	0x6f532820
 390:	65637275 	.word	0x65637275
 394:	47207972 	.word	0x47207972
 398:	4c202b2b 	.word	0x4c202b2b
 39c:	20657469 	.word	0x20657469
 3a0:	39303032 	.word	0x39303032
 3a4:	312d3171 	.word	0x312d3171
 3a8:	20293637 	.word	0x20293637
 3ac:	2e332e34 	.word	0x2e332e34
 3b0:	0033      	.short	0x0033
 3b2:	00          	.byte	0x00
 3b3:	47          	.byte	0x47
 3b4:	203a4343 	.word	0x203a4343
 3b8:	756f5328 	.word	0x756f5328
 3bc:	72656372 	.word	0x72656372
 3c0:	2b472079 	.word	0x2b472079
 3c4:	694c202b 	.word	0x694c202b
 3c8:	32206574 	.word	0x32206574
 3cc:	71393030 	.word	0x71393030
 3d0:	37312d31 	.word	0x37312d31
 3d4:	34202936 	.word	0x34202936
 3d8:	332e332e 	.word	0x332e332e
 3dc:	43470000 	.word	0x43470000
 3e0:	28203a43 	.word	0x28203a43
 3e4:	72756f53 	.word	0x72756f53
 3e8:	79726563 	.word	0x79726563
 3ec:	2b2b4720 	.word	0x2b2b4720
 3f0:	74694c20 	.word	0x74694c20
 3f4:	30322065 	.word	0x30322065
 3f8:	31713930 	.word	0x31713930
 3fc:	3637312d 	.word	0x3637312d
 400:	2e342029 	.word	0x2e342029
 404:	00332e33 	.word	0x00332e33
 408:	43434700 	.word	0x43434700
 40c:	5328203a 	.word	0x5328203a
 410:	6372756f 	.word	0x6372756f
 414:	20797265 	.word	0x20797265
 418:	202b2b47 	.word	0x202b2b47
 41c:	6574694c 	.word	0x6574694c
 420:	30303220 	.word	0x30303220
 424:	2d317139 	.word	0x2d317139
 428:	29363731 	.word	0x29363731
 42c:	332e3420 	.word	0x332e3420
 430:	0000332e 	.word	0x0000332e
 434:	3a434347 	.word	0x3a434347
 438:	6f532820 	.word	0x6f532820
 43c:	65637275 	.word	0x65637275
 440:	47207972 	.word	0x47207972
 444:	4c202b2b 	.word	0x4c202b2b
 448:	20657469 	.word	0x20657469
 44c:	39303032 	.word	0x39303032
 450:	312d3171 	.word	0x312d3171
 454:	20293637 	.word	0x20293637
 458:	2e332e34 	.word	0x2e332e34
 45c:	47000033 	.word	0x47000033
 460:	203a4343 	.word	0x203a4343
 464:	756f5328 	.word	0x756f5328
 468:	72656372 	.word	0x72656372
 46c:	2b472079 	.word	0x2b472079
 470:	694c202b 	.word	0x694c202b
 474:	32206574 	.word	0x32206574
 478:	71393030 	.word	0x71393030
 47c:	37312d31 	.word	0x37312d31
 480:	34202936 	.word	0x34202936
 484:	332e332e 	.word	0x332e332e
 488:	43470000 	.word	0x43470000
 48c:	28203a43 	.word	0x28203a43
 490:	72756f53 	.word	0x72756f53
 494:	79726563 	.word	0x79726563
 498:	2b2b4720 	.word	0x2b2b4720
 49c:	74694c20 	.word	0x74694c20
 4a0:	30322065 	.word	0x30322065
 4a4:	31713930 	.word	0x31713930
 4a8:	3637312d 	.word	0x3637312d
 4ac:	2e342029 	.word	0x2e342029
 4b0:	00332e33 	.word	0x00332e33
