
dm9000_elf:     file format elf32-littlearm


Disassembly of section .init:

00000000 <_start>:
   0:	ea000006 	b	20 <Reset>

00000004 <Undefined_Handler>:
   4:	eafffffe 	b	4 <Undefined_Handler>
   8:	ea000022 	b	98 <SWI_Handler>

0000000c <Prefetch_Handler>:
   c:	eafffffe 	b	c <Prefetch_Handler>

00000010 <Abort_Handler>:
  10:	eafffffe 	b	10 <Abort_Handler>
  14:	e1a00000 	nop			(mov r0,r0)
  18:	ea000019 	b	84 <IRQ_Handler>

0000001c <FIQ_Handler>:
  1c:	eafffffe 	b	1c <FIQ_Handler>

00000020 <Reset>:
  20:	e3a0da01 	mov	sp, #4096	; 0x1000
  24:	eb000159 	bl	590 <disable_watch_dog>
  28:	eb0001a1 	bl	6b4 <clock_init>
  2c:	eb00015f 	bl	5b0 <memsetup>
  30:	eb00011b 	bl	4a4 <nand_driver>
  34:	eb000077 	bl	218 <nand_init>
  38:	e321f0d3 	msr	CPSR_c, #211	; 0xd3
  3c:	e3a0da01 	mov	sp, #4096	; 0x1000
  40:	e321f0d2 	msr	CPSR_c, #210	; 0xd2
  44:	e3a0db03 	mov	sp, #3072	; 0xc00
  48:	e321f01f 	msr	CPSR_c, #31	; 0x1f
  4c:	e3a00203 	mov	r0, #805306368	; 0x30000000
  50:	e3a01a01 	mov	r1, #4096	; 0x1000
  54:	e59f2084 	ldr	r2, [pc, #132]	; e0 <bad_call+0x4>
  58:	e59f3084 	ldr	r3, [pc, #132]	; e4 <bad_call+0x8>
  5c:	e0432002 	sub	r2, r3, r2
  60:	e2822b02 	add	r2, r2, #2048	; 0x800
  64:	e3a03000 	mov	r3, #0	; 0x0
  68:	e08335a2 	add	r3, r3, r2, lsr #11
  6c:	e1a02583 	lsl	r2, r3, #11
  70:	eb000083 	bl	284 <nand_read>
  74:	e59fe06c 	ldr	lr, [pc, #108]	; e8 <bad_call+0xc>
  78:	e3a0d30d 	mov	sp, #872415232	; 0x34000000
  7c:	e59ff068 	ldr	pc, [pc, #104]	; ec <bad_call+0x10>

00000080 <halt_loop>:
  80:	eafffffe 	b	80 <halt_loop>

00000084 <IRQ_Handler>:
  84:	e24ee004 	sub	lr, lr, #4	; 0x4
  88:	e92d5fff 	push	{r0, r1, r2, r3, r4, r5, r6, r7, r8, r9, sl, fp, ip, lr}
  8c:	e59fe05c 	ldr	lr, [pc, #92]	; f0 <bad_call+0x14>
  90:	e59ff05c 	ldr	pc, [pc, #92]	; f4 <bad_call+0x18>

00000094 <int_return>:
  94:	e8fd9fff 	ldm	sp!, {r0, r1, r2, r3, r4, r5, r6, r7, r8, r9, sl, fp, ip, pc}^

00000098 <SWI_Handler>:
  98:	e92d5ff0 	push	{r4, r5, r6, r7, r8, r9, sl, fp, ip, lr}
  9c:	e1a02000 	mov	r2, r0
  a0:	e51e0004 	ldr	r0, [lr, #-4]
  a4:	e3c004ff 	bic	r0, r0, #-16777216	; 0xff000000
  a8:	e3500000 	cmp	r0, #0	; 0x0
  ac:	e59fe044 	ldr	lr, [pc, #68]	; f8 <bad_call+0x1c>
  b0:	e59ff044 	ldr	pc, [pc, #68]	; fc <bad_call+0x20>
  b4:	1b000000 	blne	bc <SysCallEntry>

000000b8 <SWI_RETURN>:
  b8:	e8fd9ff0 	ldm	sp!, {r4, r5, r6, r7, r8, r9, sl, fp, ip, pc}^

000000bc <SysCallEntry>:
  bc:	e92d4000 	push	{lr}
  c0:	e352000a 	cmp	r2, #10	; 0xa
  c4:	cb000004 	blgt	dc <bad_call>
  c8:	e1a00001 	mov	r0, r1
  cc:	e1a0100d 	mov	r1, sp
  d0:	e59f4028 	ldr	r4, [pc, #40]	; 100 <bad_call+0x24>
  d4:	e59fe028 	ldr	lr, [pc, #40]	; 104 <bad_call+0x28>
  d8:	e794f102 	ldr	pc, [r4, r2, lsl #2]

000000dc <bad_call>:
  dc:	e8bd8000 	pop	{pc}
  e0:	30000000 	.word	0x30000000
  e4:	3000aaaa 	.word	0x3000aaaa
  e8:	00000080 	.word	0x00000080
  ec:	30009dac 	.word	0x30009dac
  f0:	00000094 	.word	0x00000094
  f4:	30000ae0 	.word	0x30000ae0
  f8:	000000b8 	.word	0x000000b8
  fc:	3000007c 	.word	0x3000007c
 100:	aaac      	.short	0xaaac
 102:	00          	.byte	0x00
 103:	30          	.byte	0x30
 104:	000000dc 	.word	0x000000dc
 108:	00001941 	.word	0x00001941
 10c:	61656100 	.word	0x61656100
 110:	01006962 	.word	0x01006962
 114:	0000000f 	.word	0x0000000f
 118:	00543405 	.word	0x00543405
 11c:	01080206 	.word	0x01080206
 120:	00690109 	.word	0x00690109
 124:	00020000 	.word	0x00020000
 128:	0000001d 	.word	0x0000001d
 12c:	0efb0102 	.word	0x0efb0102
 130:	0101000d 	.word	0x0101000d
 134:	00000101 	.word	0x00000101
 138:	00000100 	.word	0x00000100
 13c:	72630001 	.word	0x72630001
 140:	732e3074 	.word	0x732e3074
 144:	00000000 	.word	0x00000000
 148:	02050000 	.word	0x02050000
 14c:	00000000 	.word	0x00000000
 150:	30010c03 	.word	0x30010c03
 154:	2f30302f 	.word	0x2f30302f
 158:	2f32302f 	.word	0x2f32302f
 15c:	2f2f2f2f 	.word	0x2f2f2f2f
 160:	2f302f31 	.word	0x2f302f31
 164:	2f2f3030 	.word	0x2f2f3030
 168:	2f2f2f2f 	.word	0x2f2f2f2f
 16c:	2f2f2f2f 	.word	0x2f2f2f2f
 170:	32302f2f 	.word	0x32302f2f
 174:	302f2f2f 	.word	0x302f2f2f
 178:	302f3231 	.word	0x302f3231
 17c:	2f2f2f2f 	.word	0x2f2f2f2f
 180:	2f2f3130 	.word	0x2f2f3130
 184:	312f2f31 	.word	0x312f2f31
 188:	1602302f 	.word	0x1602302f
 18c:	4a010100 	.word	0x4a010100
 190:	02000000 	.word	0x02000000
 194:	0001dd00 	.word	0x0001dd00
 198:	22010400 	.word	0x22010400
 19c:	00000001 	.word	0x00000001
 1a0:	08000000 	.word	0x08000000
 1a4:	63000001 	.word	0x63000001
 1a8:	2e307472 	.word	0x2e307472
 1ac:	682f0073 	.word	0x682f0073
 1b0:	2f656d6f 	.word	0x2f656d6f
 1b4:	6b696168 	.word	0x6b696168
 1b8:	2f676e6f 	.word	0x2f676e6f
 1bc:	2f707061 	.word	0x2f707061
 1c0:	30396d64 	.word	0x30396d64
 1c4:	632f3030 	.word	0x632f3030
 1c8:	00307472 	.word	0x00307472
 1cc:	20554e47 	.word	0x20554e47
 1d0:	32205341 	.word	0x32205341
 1d4:	2e39312e 	.word	0x2e39312e
 1d8:	3135      	.short	0x3135
 1da:	0100      	.short	0x0100
 1dc:	00110180 	.word	0x00110180
 1e0:	01110610 	.word	0x01110610
 1e4:	08030112 	.word	0x08030112
 1e8:	0825081b 	.word	0x0825081b
 1ec:	00000513 	.word	0x00000513
	...
 1f8:	0000001c 	.word	0x0000001c
 1fc:	018f0002 	.word	0x018f0002
 200:	00040000 	.word	0x00040000
	...
 20c:	00000108 	.word	0x00000108
	...

00000218 <nand_init>:
 218:	e92d4010 	push	{r4, lr}
 21c:	e59f2058 	ldr	r2, [pc, #88]	; 27c <nand_init+0x64>
 220:	e08f2002 	add	r2, pc, r2
 224:	e59f3054 	ldr	r3, [pc, #84]	; 280 <nand_init+0x68>
 228:	e7923003 	ldr	r3, [r2, r3]
 22c:	e5933000 	ldr	r3, [r3]
 230:	e3530000 	cmp	r3, #0	; 0x0
 234:	0a00000e 	beq	274 <nand_init+0x5c>
 238:	e5931000 	ldr	r1, [r3]
 23c:	e3510000 	cmp	r1, #0	; 0x0
 240:	0a00000b 	beq	274 <nand_init+0x5c>
 244:	e3a03c03 	mov	r3, #768	; 0x300
 248:	e5813000 	str	r3, [r1]
 24c:	e59f302c 	ldr	r3, [pc, #44]	; 280 <nand_init+0x68>
 250:	e7921003 	ldr	r1, [r2, r3]
 254:	e5913000 	ldr	r3, [r1]
 258:	e5932000 	ldr	r2, [r3]
 25c:	e3a03013 	mov	r3, #19	; 0x13
 260:	e5823004 	str	r3, [r2, #4]
 264:	e5913000 	ldr	r3, [r1]
 268:	e593c004 	ldr	ip, [r3, #4]
 26c:	e1a0e00f 	mov	lr, pc
 270:	e12fff1c 	bx	ip
 274:	e8bd4010 	pop	{r4, lr}
 278:	e12fff1e 	bx	lr
 27c:	fffffdd8 	.word	0xfffffdd8
 280:	00000578 	.word	0x00000578

00000284 <nand_read>:
 284:	e92d4ff8 	push	{r3, r4, r5, r6, r7, r8, r9, sl, fp, lr}
 288:	e59f8104 	ldr	r8, [pc, #260]	; 394 <nand_read+0x110>
 28c:	e08f8008 	add	r8, pc, r8
 290:	e1a06000 	mov	r6, r0
 294:	e1a04001 	mov	r4, r1
 298:	e1a05002 	mov	r5, r2
 29c:	e1a03a81 	lsl	r3, r1, #21
 2a0:	e1a03aa3 	lsr	r3, r3, #21
 2a4:	e3530000 	cmp	r3, #0	; 0x0
 2a8:	1a000037 	bne	38c <nand_read+0x108>
 2ac:	e1a03a82 	lsl	r3, r2, #21
 2b0:	e1a03aa3 	lsr	r3, r3, #21
 2b4:	e3530000 	cmp	r3, #0	; 0x0
 2b8:	1a000033 	bne	38c <nand_read+0x108>
 2bc:	e59f30d4 	ldr	r3, [pc, #212]	; 398 <nand_read+0x114>
 2c0:	e7983003 	ldr	r3, [r8, r3]
 2c4:	e5933000 	ldr	r3, [r3]
 2c8:	e593c00c 	ldr	ip, [r3, #12]
 2cc:	e1a0e00f 	mov	lr, pc
 2d0:	e12fff1c 	bx	ip
 2d4:	e1a07004 	mov	r7, r4
 2d8:	e085a004 	add	sl, r5, r4
 2dc:	e59f90b4 	ldr	r9, [pc, #180]	; 398 <nand_read+0x114>
 2e0:	e3a0b000 	mov	fp, #0	; 0x0
 2e4:	ea00001f 	b	368 <nand_read+0xe4>
 2e8:	e7984009 	ldr	r4, [r8, r9]
 2ec:	e5943000 	ldr	r3, [r4]
 2f0:	e1a0000b 	mov	r0, fp
 2f4:	e593c014 	ldr	ip, [r3, #20]
 2f8:	e1a0e00f 	mov	lr, pc
 2fc:	e12fff1c 	bx	ip
 300:	e5943000 	ldr	r3, [r4]
 304:	e1a00005 	mov	r0, r5
 308:	e593c018 	ldr	ip, [r3, #24]
 30c:	e1a0e00f 	mov	lr, pc
 310:	e12fff1c 	bx	ip
 314:	e5943000 	ldr	r3, [r4]
 318:	e3a00030 	mov	r0, #48	; 0x30
 31c:	e593c014 	ldr	ip, [r3, #20]
 320:	e1a0e00f 	mov	lr, pc
 324:	e12fff1c 	bx	ip
 328:	e5943000 	ldr	r3, [r4]
 32c:	e593c008 	ldr	ip, [r3, #8]
 330:	e1a0e00f 	mov	lr, pc
 334:	e12fff1c 	bx	ip
 338:	e1a0400b 	mov	r4, fp
 33c:	e7985009 	ldr	r5, [r8, r9]
 340:	e5953000 	ldr	r3, [r5]
 344:	e593c01c 	ldr	ip, [r3, #28]
 348:	e1a0e00f 	mov	lr, pc
 34c:	e12fff1c 	bx	ip
 350:	e7c60004 	strb	r0, [r6, r4]
 354:	e2844001 	add	r4, r4, #1	; 0x1
 358:	e3540b02 	cmp	r4, #2048	; 0x800
 35c:	1afffff7 	bne	340 <nand_read+0xbc>
 360:	e2877b02 	add	r7, r7, #2048	; 0x800
 364:	e2866b02 	add	r6, r6, #2048	; 0x800
 368:	e1a05007 	mov	r5, r7
 36c:	e15a0007 	cmp	sl, r7
 370:	8affffdc 	bhi	2e8 <nand_read+0x64>
 374:	e59f301c 	ldr	r3, [pc, #28]	; 398 <nand_read+0x114>
 378:	e7983003 	ldr	r3, [r8, r3]
 37c:	e5933000 	ldr	r3, [r3]
 380:	e593c010 	ldr	ip, [r3, #16]
 384:	e1a0e00f 	mov	lr, pc
 388:	e12fff1c 	bx	ip
 38c:	e8bd4ff8 	pop	{r3, r4, r5, r6, r7, r8, r9, sl, fp, lr}
 390:	e12fff1e 	bx	lr
 394:	fffffd6c 	.word	0xfffffd6c
 398:	00000578 	.word	0x00000578

0000039c <RegisterNandOpr>:
 39c:	e59f2030 	ldr	r2, [pc, #48]	; 3d4 <RegisterNandOpr+0x38>
 3a0:	e08f2002 	add	r2, pc, r2
 3a4:	e59f302c 	ldr	r3, [pc, #44]	; 3d8 <RegisterNandOpr+0x3c>
 3a8:	e7923003 	ldr	r3, [r2, r3]
 3ac:	e5933000 	ldr	r3, [r3]
 3b0:	e2733001 	rsbs	r3, r3, #1	; 0x1
 3b4:	33a03000 	movcc	r3, #0	; 0x0
 3b8:	e3500000 	cmp	r0, #0	; 0x0
 3bc:	03a03000 	moveq	r3, #0	; 0x0
 3c0:	e3530000 	cmp	r3, #0	; 0x0
 3c4:	159f300c 	ldrne	r3, [pc, #12]	; 3d8 <RegisterNandOpr+0x3c>
 3c8:	17923003 	ldrne	r3, [r2, r3]
 3cc:	15830000 	strne	r0, [r3]
 3d0:	e12fff1e 	bx	lr
 3d4:	fffffc58 	.word	0xfffffc58
 3d8:	00000578 	.word	0x00000578

000003dc <s3c2440_wait_idle>:
 3dc:	e3a0244e 	mov	r2, #1308622848	; 0x4e000000
 3e0:	e2822020 	add	r2, r2, #32	; 0x20
 3e4:	e5d23000 	ldrb	r3, [r2]
 3e8:	e3130001 	tst	r3, #1	; 0x1
 3ec:	0afffffc 	beq	3e4 <s3c2440_wait_idle+0x8>
 3f0:	e12fff1e 	bx	lr

000003f4 <s3c2440_nand_select_chip>:
 3f4:	e3a0244e 	mov	r2, #1308622848	; 0x4e000000
 3f8:	e5923004 	ldr	r3, [r2, #4]
 3fc:	e3c33002 	bic	r3, r3, #2	; 0x2
 400:	e5823004 	str	r3, [r2, #4]
 404:	e12fff1e 	bx	lr

00000408 <s3c2440_nand_deselect_chip>:
 408:	e3a0244e 	mov	r2, #1308622848	; 0x4e000000
 40c:	e5923004 	ldr	r3, [r2, #4]
 410:	e3833002 	orr	r3, r3, #2	; 0x2
 414:	e5823004 	str	r3, [r2, #4]
 418:	e12fff1e 	bx	lr

0000041c <s3c2440_write_cmd>:
 41c:	e3a0344e 	mov	r3, #1308622848	; 0x4e000000
 420:	e2833008 	add	r3, r3, #8	; 0x8
 424:	e20000ff 	and	r0, r0, #255	; 0xff
 428:	e5c30000 	strb	r0, [r3]
 42c:	e12fff1e 	bx	lr

00000430 <s3c2440_nand_reset>:
 430:	e92d4010 	push	{r4, lr}
 434:	ebffffee 	bl	3f4 <s3c2440_nand_select_chip>
 438:	e3a000ff 	mov	r0, #255	; 0xff
 43c:	ebfffff6 	bl	41c <s3c2440_write_cmd>
 440:	ebffffe5 	bl	3dc <s3c2440_wait_idle>
 444:	ebffffef 	bl	408 <s3c2440_nand_deselect_chip>
 448:	e8bd4010 	pop	{r4, lr}
 44c:	e12fff1e 	bx	lr

00000450 <s3c2440_write_addr>:
 450:	e3a0144e 	mov	r1, #1308622848	; 0x4e000000
 454:	e1a03a80 	lsl	r3, r0, #21
 458:	e1a03aa3 	lsr	r3, r3, #21
 45c:	e1a025a0 	lsr	r2, r0, #11
 460:	e20000ff 	and	r0, r0, #255	; 0xff
 464:	e5e1000c 	strb	r0, [r1, #12]!
 468:	e1a03423 	lsr	r3, r3, #8
 46c:	e5c13000 	strb	r3, [r1]
 470:	e20230ff 	and	r3, r2, #255	; 0xff
 474:	e5c13000 	strb	r3, [r1]
 478:	e1a03442 	asr	r3, r2, #8
 47c:	e20330ff 	and	r3, r3, #255	; 0xff
 480:	e5c13000 	strb	r3, [r1]
 484:	e1a02842 	asr	r2, r2, #16
 488:	e2022001 	and	r2, r2, #1	; 0x1
 48c:	e5c12000 	strb	r2, [r1]
 490:	e12fff1e 	bx	lr

00000494 <s3c2440_read_data>:
 494:	e3a0344e 	mov	r3, #1308622848	; 0x4e000000
 498:	e2833010 	add	r3, r3, #16	; 0x10
 49c:	e5d30000 	ldrb	r0, [r3]
 4a0:	e12fff1e 	bx	lr

000004a4 <nand_driver>:
 4a4:	e92d4010 	push	{r4, lr}
 4a8:	e59f0014 	ldr	r0, [pc, #20]	; 4c4 <nand_driver+0x20>
 4ac:	e08f0000 	add	r0, pc, r0
 4b0:	e59f3010 	ldr	r3, [pc, #16]	; 4c8 <nand_driver+0x24>
 4b4:	e0800003 	add	r0, r0, r3
 4b8:	ebffffb7 	bl	39c <RegisterNandOpr>
 4bc:	e8bd4010 	pop	{r4, lr}
 4c0:	e12fff1e 	bx	lr
 4c4:	fffffb4c 	.word	0xfffffb4c
 4c8:	000004cc 	.word	0x000004cc

000004cc <nand_chip>:
 4cc:	4e000000 	.word	0x4e000000
 4d0:	00000430 	.word	0x00000430
 4d4:	000003dc 	.word	0x000003dc
 4d8:	000003f4 	.word	0x000003f4
 4dc:	00000408 	.word	0x00000408
 4e0:	0000041c 	.word	0x0000041c
 4e4:	00000450 	.word	0x00000450
 4e8:	00000494 	.word	0x00000494

000004ec <g_Nand_Chip_op>:
 4ec:	00000000 	.word	0x00000000
 4f0:	00002941 	.word	0x00002941
 4f4:	61656100 	.word	0x61656100
 4f8:	01006962 	.word	0x01006962
 4fc:	0000001f 	.word	0x0000001f
 500:	00543405 	.word	0x00543405
 504:	01080206 	.word	0x01080206
 508:	04120109 	.word	0x04120109
 50c:	01150114 	.word	0x01150114
 510:	01180317 	.word	0x01180317
 514:	021a0119 	.word	0x021a0119
 518:	4700011e 	.word	0x4700011e
 51c:	203a4343 	.word	0x203a4343
 520:	756f5328 	.word	0x756f5328
 524:	72656372 	.word	0x72656372
 528:	2b472079 	.word	0x2b472079
 52c:	694c202b 	.word	0x694c202b
 530:	32206574 	.word	0x32206574
 534:	71393030 	.word	0x71393030
 538:	37312d31 	.word	0x37312d31
 53c:	34202936 	.word	0x34202936
 540:	332e332e 	.word	0x332e332e
 544:	43470000 	.word	0x43470000
 548:	28203a43 	.word	0x28203a43
 54c:	72756f53 	.word	0x72756f53
 550:	79726563 	.word	0x79726563
 554:	2b2b4720 	.word	0x2b2b4720
 558:	74694c20 	.word	0x74694c20
 55c:	30322065 	.word	0x30322065
 560:	31713930 	.word	0x31713930
 564:	3637312d 	.word	0x3637312d
 568:	2e342029 	.word	0x2e342029
 56c:	00332e33 	.word	0x00332e33
 570:	3000b3dc 	.word	0x3000b3dc
 574:	3000aaaa 	.word	0x3000aaaa
 578:	000004ec 	.word	0x000004ec
 57c:	3000b3e0 	.word	0x3000b3e0
 580:	3000a9a0 	.word	0x3000a9a0

00000584 <_GLOBAL_OFFSET_TABLE_>:
	...

00000590 <disable_watch_dog>:
 590:	e52db004 	push	{fp}		; (str fp, [sp, #-4]!)
 594:	e28db000 	add	fp, sp, #0	; 0x0
 598:	e3a02453 	mov	r2, #1392508928	; 0x53000000
 59c:	e3a03000 	mov	r3, #0	; 0x0
 5a0:	e5823000 	str	r3, [r2]
 5a4:	e28bd000 	add	sp, fp, #0	; 0x0
 5a8:	e8bd0800 	pop	{fp}
 5ac:	e12fff1e 	bx	lr

000005b0 <memsetup>:
 5b0:	e52db004 	push	{fp}		; (str fp, [sp, #-4]!)
 5b4:	e28db000 	add	fp, sp, #0	; 0x0
 5b8:	e24dd00c 	sub	sp, sp, #12	; 0xc
 5bc:	e3a03312 	mov	r3, #1207959552	; 0x48000000
 5c0:	e50b3008 	str	r3, [fp, #-8]
 5c4:	e51b2008 	ldr	r2, [fp, #-8]
 5c8:	e3a03422 	mov	r3, #570425344	; 0x22000000
 5cc:	e2833a11 	add	r3, r3, #69632	; 0x11000
 5d0:	e2833e11 	add	r3, r3, #272	; 0x110
 5d4:	e5823000 	str	r3, [r2]
 5d8:	e51b3008 	ldr	r3, [fp, #-8]
 5dc:	e2832004 	add	r2, r3, #4	; 0x4
 5e0:	e3a03c07 	mov	r3, #1792	; 0x700
 5e4:	e5823000 	str	r3, [r2]
 5e8:	e51b3008 	ldr	r3, [fp, #-8]
 5ec:	e2832008 	add	r2, r3, #8	; 0x8
 5f0:	e3a03c07 	mov	r3, #1792	; 0x700
 5f4:	e5823000 	str	r3, [r2]
 5f8:	e51b3008 	ldr	r3, [fp, #-8]
 5fc:	e283200c 	add	r2, r3, #12	; 0xc
 600:	e3a03c07 	mov	r3, #1792	; 0x700
 604:	e5823000 	str	r3, [r2]
 608:	e51b3008 	ldr	r3, [fp, #-8]
 60c:	e2832010 	add	r2, r3, #16	; 0x10
 610:	e3a03c07 	mov	r3, #1792	; 0x700
 614:	e5823000 	str	r3, [r2]
 618:	e51b3008 	ldr	r3, [fp, #-8]
 61c:	e2832014 	add	r2, r3, #20	; 0x14
 620:	e3a03c07 	mov	r3, #1792	; 0x700
 624:	e5823000 	str	r3, [r2]
 628:	e51b3008 	ldr	r3, [fp, #-8]
 62c:	e2832018 	add	r2, r3, #24	; 0x18
 630:	e3a03c07 	mov	r3, #1792	; 0x700
 634:	e5823000 	str	r3, [r2]
 638:	e51b3008 	ldr	r3, [fp, #-8]
 63c:	e283201c 	add	r2, r3, #28	; 0x1c
 640:	e3a03906 	mov	r3, #98304	; 0x18000
 644:	e2833005 	add	r3, r3, #5	; 0x5
 648:	e5823000 	str	r3, [r2]
 64c:	e51b3008 	ldr	r3, [fp, #-8]
 650:	e2832020 	add	r2, r3, #32	; 0x20
 654:	e3a03906 	mov	r3, #98304	; 0x18000
 658:	e2833005 	add	r3, r3, #5	; 0x5
 65c:	e5823000 	str	r3, [r2]
 660:	e51b3008 	ldr	r3, [fp, #-8]
 664:	e2832024 	add	r2, r3, #36	; 0x24
 668:	e3a03723 	mov	r3, #9175040	; 0x8c0000
 66c:	e2833e4f 	add	r3, r3, #1264	; 0x4f0
 670:	e2833004 	add	r3, r3, #4	; 0x4
 674:	e5823000 	str	r3, [r2]
 678:	e51b3008 	ldr	r3, [fp, #-8]
 67c:	e2832028 	add	r2, r3, #40	; 0x28
 680:	e3a030b1 	mov	r3, #177	; 0xb1
 684:	e5823000 	str	r3, [r2]
 688:	e51b3008 	ldr	r3, [fp, #-8]
 68c:	e283202c 	add	r2, r3, #44	; 0x2c
 690:	e3a03030 	mov	r3, #48	; 0x30
 694:	e5823000 	str	r3, [r2]
 698:	e51b3008 	ldr	r3, [fp, #-8]
 69c:	e2832030 	add	r2, r3, #48	; 0x30
 6a0:	e3a03030 	mov	r3, #48	; 0x30
 6a4:	e5823000 	str	r3, [r2]
 6a8:	e28bd000 	add	sp, fp, #0	; 0x0
 6ac:	e8bd0800 	pop	{fp}
 6b0:	e12fff1e 	bx	lr

000006b4 <clock_init>:
 6b4:	e52db004 	push	{fp}		; (str fp, [sp, #-4]!)
 6b8:	e28db000 	add	fp, sp, #0	; 0x0
 6bc:	e3a03313 	mov	r3, #1275068416	; 0x4c000000
 6c0:	e2833014 	add	r3, r3, #20	; 0x14
 6c4:	e3a02003 	mov	r2, #3	; 0x3
 6c8:	e5832000 	str	r2, [r3]
 6cc:	ee111f10 	mrc	15, 0, r1, cr1, cr0, {0}
 6d0:	e3811103 	orr	r1, r1, #-1073741824	; 0xc0000000
 6d4:	ee011f10 	mcr	15, 0, r1, cr1, cr0, {0}
 6d8:	e3a02313 	mov	r2, #1275068416	; 0x4c000000
 6dc:	e2822004 	add	r2, r2, #4	; 0x4
 6e0:	e3a03917 	mov	r3, #376832	; 0x5c000
 6e4:	e2833012 	add	r3, r3, #18	; 0x12
 6e8:	e5823000 	str	r3, [r2]
 6ec:	e28bd000 	add	sp, fp, #0	; 0x0
 6f0:	e8bd0800 	pop	{fp}
 6f4:	e12fff1e 	bx	lr

000006f8 <copy_steppingstone_to_sdram>:
 6f8:	e52db004 	push	{fp}		; (str fp, [sp, #-4]!)
 6fc:	e28db000 	add	fp, sp, #0	; 0x0
 700:	e24dd00c 	sub	sp, sp, #12	; 0xc
 704:	e3a03000 	mov	r3, #0	; 0x0
 708:	e50b300c 	str	r3, [fp, #-12]
 70c:	e3a03203 	mov	r3, #805306368	; 0x30000000
 710:	e2833901 	add	r3, r3, #16384	; 0x4000
 714:	e50b3008 	str	r3, [fp, #-8]
 718:	ea000009 	b	744 <copy_steppingstone_to_sdram+0x4c>
 71c:	e51b300c 	ldr	r3, [fp, #-12]
 720:	e5932000 	ldr	r2, [r3]
 724:	e51b3008 	ldr	r3, [fp, #-8]
 728:	e5832000 	str	r2, [r3]
 72c:	e51b3008 	ldr	r3, [fp, #-8]
 730:	e2833004 	add	r3, r3, #4	; 0x4
 734:	e50b3008 	str	r3, [fp, #-8]
 738:	e51b300c 	ldr	r3, [fp, #-12]
 73c:	e2833004 	add	r3, r3, #4	; 0x4
 740:	e50b300c 	str	r3, [fp, #-12]
 744:	e51b200c 	ldr	r2, [fp, #-12]
 748:	e3a03eff 	mov	r3, #4080	; 0xff0
 74c:	e283300f 	add	r3, r3, #15	; 0xf
 750:	e1520003 	cmp	r2, r3
 754:	9afffff0 	bls	71c <copy_steppingstone_to_sdram+0x24>
 758:	e28bd000 	add	sp, fp, #0	; 0x0
 75c:	e8bd0800 	pop	{fp}
 760:	e12fff1e 	bx	lr

00000764 <mmu_init>:
 764:	e52db004 	push	{fp}		; (str fp, [sp, #-4]!)
 768:	e28db000 	add	fp, sp, #0	; 0x0
 76c:	e24dd00c 	sub	sp, sp, #12	; 0xc
 770:	e3a03203 	mov	r3, #805306368	; 0x30000000
 774:	e50b3008 	str	r3, [fp, #-8]
 778:	e51b3008 	ldr	r3, [fp, #-8]
 77c:	e3a00000 	mov	r0, #0	; 0x0
 780:	ee070f17 	mcr	15, 0, r0, cr7, cr7, {0}
 784:	ee070f9a 	mcr	15, 0, r0, cr7, cr10, {4}
 788:	ee080f17 	mcr	15, 0, r0, cr8, cr7, {0}
 78c:	e1a04003 	mov	r4, r3
 790:	ee024f10 	mcr	15, 0, r4, cr2, cr0, {0}
 794:	e3e00000 	mvn	r0, #0	; 0x0
 798:	ee030f10 	mcr	15, 0, r0, cr3, cr0, {0}
 79c:	ee110f10 	mrc	15, 0, r0, cr1, cr0, {0}
 7a0:	e3c00a03 	bic	r0, r0, #12288	; 0x3000
 7a4:	e3c00c03 	bic	r0, r0, #768	; 0x300
 7a8:	e3c00087 	bic	r0, r0, #135	; 0x87
 7ac:	e3800002 	orr	r0, r0, #2	; 0x2
 7b0:	e3800004 	orr	r0, r0, #4	; 0x4
 7b4:	e3800a01 	orr	r0, r0, #4096	; 0x1000
 7b8:	e3800001 	orr	r0, r0, #1	; 0x1
 7bc:	ee010f10 	mcr	15, 0, r0, cr1, cr0, {0}
 7c0:	e28bd000 	add	sp, fp, #0	; 0x0
 7c4:	e8bd0800 	pop	{fp}
 7c8:	e12fff1e 	bx	lr

000007cc <create_page_table>:
 7cc:	e52db004 	push	{fp}		; (str fp, [sp, #-4]!)
 7d0:	e28db000 	add	fp, sp, #0	; 0x0
 7d4:	e24dd014 	sub	sp, sp, #20	; 0x14
 7d8:	e3a03203 	mov	r3, #805306368	; 0x30000000
 7dc:	e50b3008 	str	r3, [fp, #-8]
 7e0:	e3a03000 	mov	r3, #0	; 0x0
 7e4:	e50b3010 	str	r3, [fp, #-16]
 7e8:	e3a03000 	mov	r3, #0	; 0x0
 7ec:	e50b300c 	str	r3, [fp, #-12]
 7f0:	e51b3010 	ldr	r3, [fp, #-16]
 7f4:	e1a03a23 	lsr	r3, r3, #20
 7f8:	e1a02103 	lsl	r2, r3, #2
 7fc:	e51b3008 	ldr	r3, [fp, #-8]
 800:	e0832002 	add	r2, r3, r2
 804:	e51b300c 	ldr	r3, [fp, #-12]
 808:	e1a03a23 	lsr	r3, r3, #20
 80c:	e1a03a03 	lsl	r3, r3, #20
 810:	e3833ec1 	orr	r3, r3, #3088	; 0xc10
 814:	e383300e 	orr	r3, r3, #14	; 0xe
 818:	e5823000 	str	r3, [r2]
 81c:	e3a0320a 	mov	r3, #-1610612736	; 0xa0000000
 820:	e50b3010 	str	r3, [fp, #-16]
 824:	e3a03456 	mov	r3, #1442840576	; 0x56000000
 828:	e50b300c 	str	r3, [fp, #-12]
 82c:	e51b3010 	ldr	r3, [fp, #-16]
 830:	e1a03a23 	lsr	r3, r3, #20
 834:	e1a02103 	lsl	r2, r3, #2
 838:	e51b3008 	ldr	r3, [fp, #-8]
 83c:	e0832002 	add	r2, r3, r2
 840:	e51b300c 	ldr	r3, [fp, #-12]
 844:	e1a03a23 	lsr	r3, r3, #20
 848:	e1a03a03 	lsl	r3, r3, #20
 84c:	e3833ec1 	orr	r3, r3, #3088	; 0xc10
 850:	e3833002 	orr	r3, r3, #2	; 0x2
 854:	e5823000 	str	r3, [r2]
 858:	e3a0320b 	mov	r3, #-1342177280	; 0xb0000000
 85c:	e50b3010 	str	r3, [fp, #-16]
 860:	e3a03203 	mov	r3, #805306368	; 0x30000000
 864:	e50b300c 	str	r3, [fp, #-12]
 868:	ea000010 	b	8b0 <create_page_table+0xe4>
 86c:	e51b3010 	ldr	r3, [fp, #-16]
 870:	e1a03a23 	lsr	r3, r3, #20
 874:	e1a02103 	lsl	r2, r3, #2
 878:	e51b3008 	ldr	r3, [fp, #-8]
 87c:	e0832002 	add	r2, r3, r2
 880:	e51b300c 	ldr	r3, [fp, #-12]
 884:	e1a03a23 	lsr	r3, r3, #20
 888:	e1a03a03 	lsl	r3, r3, #20
 88c:	e3833ec1 	orr	r3, r3, #3088	; 0xc10
 890:	e383300e 	orr	r3, r3, #14	; 0xe
 894:	e5823000 	str	r3, [r2]
 898:	e51b3010 	ldr	r3, [fp, #-16]
 89c:	e2833601 	add	r3, r3, #1048576	; 0x100000
 8a0:	e50b3010 	str	r3, [fp, #-16]
 8a4:	e51b300c 	ldr	r3, [fp, #-12]
 8a8:	e2833601 	add	r3, r3, #1048576	; 0x100000
 8ac:	e50b300c 	str	r3, [fp, #-12]
 8b0:	e51b3010 	ldr	r3, [fp, #-16]
 8b4:	e3730353 	cmn	r3, #1275068417	; 0x4c000001
 8b8:	9affffeb 	bls	86c <create_page_table+0xa0>
 8bc:	e28bd000 	add	sp, fp, #0	; 0x0
 8c0:	e8bd0800 	pop	{fp}
 8c4:	e12fff1e 	bx	lr

Disassembly of section .text:

30000000 <Delay_ms>:
30000000:	e52db004 	push	{fp}		; (str fp, [sp, #-4]!)
30000004:	e28db000 	add	fp, sp, #0	; 0x0
30000008:	e24dd014 	sub	sp, sp, #20	; 0x14
3000000c:	e50b0010 	str	r0, [fp, #-16]
30000010:	e3a03000 	mov	r3, #0	; 0x0
30000014:	e50b3008 	str	r3, [fp, #-8]
30000018:	ea00000a 	b	30000048 <Delay_ms+0x48>
3000001c:	e3a03000 	mov	r3, #0	; 0x0
30000020:	e50b3008 	str	r3, [fp, #-8]
30000024:	ea000002 	b	30000034 <Delay_ms+0x34>
30000028:	e51b3008 	ldr	r3, [fp, #-8]
3000002c:	e2833001 	add	r3, r3, #1	; 0x1
30000030:	e50b3008 	str	r3, [fp, #-8]
30000034:	e51b2008 	ldr	r2, [fp, #-8]
30000038:	e3a03dab 	mov	r3, #10944	; 0x2ac0
3000003c:	e2833037 	add	r3, r3, #55	; 0x37
30000040:	e1520003 	cmp	r2, r3
30000044:	dafffff7 	ble	30000028 <Delay_ms+0x28>
30000048:	e51b3010 	ldr	r3, [fp, #-16]
3000004c:	e3530000 	cmp	r3, #0	; 0x0
30000050:	03a03000 	moveq	r3, #0	; 0x0
30000054:	13a03001 	movne	r3, #1	; 0x1
30000058:	e20320ff 	and	r2, r3, #255	; 0xff
3000005c:	e51b3010 	ldr	r3, [fp, #-16]
30000060:	e2433001 	sub	r3, r3, #1	; 0x1
30000064:	e50b3010 	str	r3, [fp, #-16]
30000068:	e3520000 	cmp	r2, #0	; 0x0
3000006c:	1affffea 	bne	3000001c <Delay_ms+0x1c>
30000070:	e28bd000 	add	sp, fp, #0	; 0x0
30000074:	e8bd0800 	pop	{fp}
30000078:	e12fff1e 	bx	lr

3000007c <C_SWI_Handler>:
3000007c:	e92d4800 	push	{fp, lr}
30000080:	e28db004 	add	fp, sp, #4	; 0x4
30000084:	e24dd010 	sub	sp, sp, #16	; 0x10
30000088:	e50b0010 	str	r0, [fp, #-16]
3000008c:	e50b1014 	str	r1, [fp, #-20]
30000090:	e3a03000 	mov	r3, #0	; 0x0
30000094:	e50b3008 	str	r3, [fp, #-8]
30000098:	e51b3010 	ldr	r3, [fp, #-16]
3000009c:	e3530003 	cmp	r3, #3	; 0x3
300000a0:	908ff103 	addls	pc, pc, r3, lsl #2
300000a4:	ea000037 	b	30000188 <C_SWI_Handler+0x10c>
300000a8:	ea000002 	b	300000b8 <C_SWI_Handler+0x3c>
300000ac:	ea00001d 	b	30000128 <C_SWI_Handler+0xac>
300000b0:	ea000024 	b	30000148 <C_SWI_Handler+0xcc>
300000b4:	ea00002b 	b	30000168 <C_SWI_Handler+0xec>
300000b8:	e3a03000 	mov	r3, #0	; 0x0
300000bc:	e50b3008 	str	r3, [fp, #-8]
300000c0:	ea000014 	b	30000118 <C_SWI_Handler+0x9c>
300000c4:	e3a02456 	mov	r2, #1442840576	; 0x56000000
300000c8:	e2822014 	add	r2, r2, #20	; 0x14
300000cc:	e3a03456 	mov	r3, #1442840576	; 0x56000000
300000d0:	e2833014 	add	r3, r3, #20	; 0x14
300000d4:	e5933000 	ldr	r3, [r3]
300000d8:	e3833020 	orr	r3, r3, #32	; 0x20
300000dc:	e5823000 	str	r3, [r2]
300000e0:	e3a00ffa 	mov	r0, #1000	; 0x3e8
300000e4:	ebffffc5 	bl	30000000 <Delay_ms>
300000e8:	e3a02456 	mov	r2, #1442840576	; 0x56000000
300000ec:	e2822014 	add	r2, r2, #20	; 0x14
300000f0:	e3a03456 	mov	r3, #1442840576	; 0x56000000
300000f4:	e2833014 	add	r3, r3, #20	; 0x14
300000f8:	e5933000 	ldr	r3, [r3]
300000fc:	e3c33020 	bic	r3, r3, #32	; 0x20
30000100:	e5823000 	str	r3, [r2]
30000104:	e3a00ffa 	mov	r0, #1000	; 0x3e8
30000108:	ebffffbc 	bl	30000000 <Delay_ms>
3000010c:	e51b3008 	ldr	r3, [fp, #-8]
30000110:	e2833001 	add	r3, r3, #1	; 0x1
30000114:	e50b3008 	str	r3, [fp, #-8]
30000118:	e51b3008 	ldr	r3, [fp, #-8]
3000011c:	e3530009 	cmp	r3, #9	; 0x9
30000120:	daffffe7 	ble	300000c4 <C_SWI_Handler+0x48>
30000124:	ea00001b 	b	30000198 <C_SWI_Handler+0x11c>
30000128:	e3a02456 	mov	r2, #1442840576	; 0x56000000
3000012c:	e2822014 	add	r2, r2, #20	; 0x14
30000130:	e3a03456 	mov	r3, #1442840576	; 0x56000000
30000134:	e2833014 	add	r3, r3, #20	; 0x14
30000138:	e5933000 	ldr	r3, [r3]
3000013c:	e3c33040 	bic	r3, r3, #64	; 0x40
30000140:	e5823000 	str	r3, [r2]
30000144:	ea000013 	b	30000198 <C_SWI_Handler+0x11c>
30000148:	e3a02456 	mov	r2, #1442840576	; 0x56000000
3000014c:	e2822014 	add	r2, r2, #20	; 0x14
30000150:	e3a03456 	mov	r3, #1442840576	; 0x56000000
30000154:	e2833014 	add	r3, r3, #20	; 0x14
30000158:	e5933000 	ldr	r3, [r3]
3000015c:	e3c33080 	bic	r3, r3, #128	; 0x80
30000160:	e5823000 	str	r3, [r2]
30000164:	ea00000b 	b	30000198 <C_SWI_Handler+0x11c>
30000168:	e3a02456 	mov	r2, #1442840576	; 0x56000000
3000016c:	e2822014 	add	r2, r2, #20	; 0x14
30000170:	e3a03456 	mov	r3, #1442840576	; 0x56000000
30000174:	e2833014 	add	r3, r3, #20	; 0x14
30000178:	e5933000 	ldr	r3, [r3]
3000017c:	e3c33c01 	bic	r3, r3, #256	; 0x100
30000180:	e5823000 	str	r3, [r2]
30000184:	ea000003 	b	30000198 <C_SWI_Handler+0x11c>
30000188:	e3a03456 	mov	r3, #1442840576	; 0x56000000
3000018c:	e2833014 	add	r3, r3, #20	; 0x14
30000190:	e3e02000 	mvn	r2, #0	; 0x0
30000194:	e5832000 	str	r2, [r3]
30000198:	e24bd004 	sub	sp, fp, #4	; 0x4
3000019c:	e8bd4800 	pop	{fp, lr}
300001a0:	e12fff1e 	bx	lr

300001a4 <myswi>:
300001a4:	e52db004 	push	{fp}		; (str fp, [sp, #-4]!)
300001a8:	e28db000 	add	fp, sp, #0	; 0x0
300001ac:	ef000000 	svc	0x00000000
300001b0:	e28bd000 	add	sp, fp, #0	; 0x0
300001b4:	e8bd0800 	pop	{fp}
300001b8:	e12fff1e 	bx	lr

300001bc <__led_on>:
300001bc:	e52db004 	push	{fp}		; (str fp, [sp, #-4]!)
300001c0:	e28db000 	add	fp, sp, #0	; 0x0
300001c4:	e24dd00c 	sub	sp, sp, #12	; 0xc
300001c8:	e50b0008 	str	r0, [fp, #-8]
300001cc:	e3a02456 	mov	r2, #1442840576	; 0x56000000
300001d0:	e2822014 	add	r2, r2, #20	; 0x14
300001d4:	e3a03801 	mov	r3, #65536	; 0x10000
300001d8:	e2433001 	sub	r3, r3, #1	; 0x1
300001dc:	e5823000 	str	r3, [r2]
300001e0:	e3a02456 	mov	r2, #1442840576	; 0x56000000
300001e4:	e2822014 	add	r2, r2, #20	; 0x14
300001e8:	e51b3008 	ldr	r3, [fp, #-8]
300001ec:	e203300f 	and	r3, r3, #15	; 0xf
300001f0:	e1a03283 	lsl	r3, r3, #5
300001f4:	e1e03003 	mvn	r3, r3
300001f8:	e5823000 	str	r3, [r2]
300001fc:	e3a03000 	mov	r3, #0	; 0x0
30000200:	e1a00003 	mov	r0, r3
30000204:	e28bd000 	add	sp, fp, #0	; 0x0
30000208:	e8bd0800 	pop	{fp}
3000020c:	e12fff1e 	bx	lr

30000210 <__led_off>:
30000210:	e52db004 	push	{fp}		; (str fp, [sp, #-4]!)
30000214:	e28db000 	add	fp, sp, #0	; 0x0
30000218:	e24dd00c 	sub	sp, sp, #12	; 0xc
3000021c:	e50b0008 	str	r0, [fp, #-8]
30000220:	e3a02456 	mov	r2, #1442840576	; 0x56000000
30000224:	e2822014 	add	r2, r2, #20	; 0x14
30000228:	e3a03456 	mov	r3, #1442840576	; 0x56000000
3000022c:	e2833014 	add	r3, r3, #20	; 0x14
30000230:	e5931000 	ldr	r1, [r3]
30000234:	e51b3008 	ldr	r3, [fp, #-8]
30000238:	e203300f 	and	r3, r3, #15	; 0xf
3000023c:	e1a03283 	lsl	r3, r3, #5
30000240:	e1813003 	orr	r3, r1, r3
30000244:	e5823000 	str	r3, [r2]
30000248:	e3a03000 	mov	r3, #0	; 0x0
3000024c:	e1a00003 	mov	r0, r3
30000250:	e28bd000 	add	sp, fp, #0	; 0x0
30000254:	e8bd0800 	pop	{fp}
30000258:	e12fff1e 	bx	lr

3000025c <__read>:
3000025c:	e52db004 	push	{fp}		; (str fp, [sp, #-4]!)
30000260:	e28db000 	add	fp, sp, #0	; 0x0
30000264:	e24dd00c 	sub	sp, sp, #12	; 0xc
30000268:	e50b0008 	str	r0, [fp, #-8]
3000026c:	e3a03000 	mov	r3, #0	; 0x0
30000270:	e1a00003 	mov	r0, r3
30000274:	e28bd000 	add	sp, fp, #0	; 0x0
30000278:	e8bd0800 	pop	{fp}
3000027c:	e12fff1e 	bx	lr

30000280 <__write>:
30000280:	e52db004 	push	{fp}		; (str fp, [sp, #-4]!)
30000284:	e28db000 	add	fp, sp, #0	; 0x0
30000288:	e24dd00c 	sub	sp, sp, #12	; 0xc
3000028c:	e50b0008 	str	r0, [fp, #-8]
30000290:	e3a03000 	mov	r3, #0	; 0x0
30000294:	e1a00003 	mov	r0, r3
30000298:	e28bd000 	add	sp, fp, #0	; 0x0
3000029c:	e8bd0800 	pop	{fp}
300002a0:	e12fff1e 	bx	lr

300002a4 <__lock>:
300002a4:	e52db004 	push	{fp}		; (str fp, [sp, #-4]!)
300002a8:	e28db000 	add	fp, sp, #0	; 0x0
300002ac:	e3a03000 	mov	r3, #0	; 0x0
300002b0:	e1a00003 	mov	r0, r3
300002b4:	e28bd000 	add	sp, fp, #0	; 0x0
300002b8:	e8bd0800 	pop	{fp}
300002bc:	e12fff1e 	bx	lr

300002c0 <__key_on>:
300002c0:	e52db004 	push	{fp}		; (str fp, [sp, #-4]!)
300002c4:	e28db000 	add	fp, sp, #0	; 0x0
300002c8:	e24dd00c 	sub	sp, sp, #12	; 0xc
300002cc:	e50b0008 	str	r0, [fp, #-8]
300002d0:	e3a03000 	mov	r3, #0	; 0x0
300002d4:	e1a00003 	mov	r0, r3
300002d8:	e28bd000 	add	sp, fp, #0	; 0x0
300002dc:	e8bd0800 	pop	{fp}
300002e0:	e12fff1e 	bx	lr

300002e4 <__key_off>:
300002e4:	e52db004 	push	{fp}		; (str fp, [sp, #-4]!)
300002e8:	e28db000 	add	fp, sp, #0	; 0x0
300002ec:	e24dd00c 	sub	sp, sp, #12	; 0xc
300002f0:	e50b0008 	str	r0, [fp, #-8]
300002f4:	e3a03000 	mov	r3, #0	; 0x0
300002f8:	e1a00003 	mov	r0, r3
300002fc:	e28bd000 	add	sp, fp, #0	; 0x0
30000300:	e8bd0800 	pop	{fp}
30000304:	e12fff1e 	bx	lr

30000308 <__test>:
30000308:	e52db004 	push	{fp}		; (str fp, [sp, #-4]!)
3000030c:	e28db000 	add	fp, sp, #0	; 0x0
30000310:	e3a03000 	mov	r3, #0	; 0x0
30000314:	e1a00003 	mov	r0, r3
30000318:	e28bd000 	add	sp, fp, #0	; 0x0
3000031c:	e8bd0800 	pop	{fp}
30000320:	e12fff1e 	bx	lr

30000324 <__printf>:
30000324:	e52db004 	push	{fp}		; (str fp, [sp, #-4]!)
30000328:	e28db000 	add	fp, sp, #0	; 0x0
3000032c:	e24dd00c 	sub	sp, sp, #12	; 0xc
30000330:	e50b0008 	str	r0, [fp, #-8]
30000334:	e3a03000 	mov	r3, #0	; 0x0
30000338:	e1a00003 	mov	r0, r3
3000033c:	e28bd000 	add	sp, fp, #0	; 0x0
30000340:	e8bd0800 	pop	{fp}
30000344:	e12fff1e 	bx	lr

30000348 <__putchar>:
30000348:	e52db004 	push	{fp}		; (str fp, [sp, #-4]!)
3000034c:	e28db000 	add	fp, sp, #0	; 0x0
30000350:	e24dd00c 	sub	sp, sp, #12	; 0xc
30000354:	e1a03000 	mov	r3, r0
30000358:	e54b3005 	strb	r3, [fp, #-5]
3000035c:	e3a03000 	mov	r3, #0	; 0x0
30000360:	e1a00003 	mov	r0, r3
30000364:	e28bd000 	add	sp, fp, #0	; 0x0
30000368:	e8bd0800 	pop	{fp}
3000036c:	e12fff1e 	bx	lr

30000370 <lock>:
30000370:	e52db004 	push	{fp}		; (str fp, [sp, #-4]!)
30000374:	e28db000 	add	fp, sp, #0	; 0x0
30000378:	e24dd00c 	sub	sp, sp, #12	; 0xc
3000037c:	e3a03004 	mov	r3, #4	; 0x4
30000380:	ef000001 	svc	0x00000001
30000384:	e50b3008 	str	r3, [fp, #-8]
30000388:	e51b3008 	ldr	r3, [fp, #-8]
3000038c:	e1a00003 	mov	r0, r3
30000390:	e28bd000 	add	sp, fp, #0	; 0x0
30000394:	e8bd0800 	pop	{fp}
30000398:	e12fff1e 	bx	lr

3000039c <test>:
3000039c:	e52db004 	push	{fp}		; (str fp, [sp, #-4]!)
300003a0:	e28db000 	add	fp, sp, #0	; 0x0
300003a4:	e24dd00c 	sub	sp, sp, #12	; 0xc
300003a8:	e3a03007 	mov	r3, #7	; 0x7
300003ac:	ef000001 	svc	0x00000001
300003b0:	e50b3008 	str	r3, [fp, #-8]
300003b4:	e51b3008 	ldr	r3, [fp, #-8]
300003b8:	e1a00003 	mov	r0, r3
300003bc:	e28bd000 	add	sp, fp, #0	; 0x0
300003c0:	e8bd0800 	pop	{fp}
300003c4:	e12fff1e 	bx	lr

300003c8 <led_on>:
300003c8:	e52db004 	push	{fp}		; (str fp, [sp, #-4]!)
300003cc:	e28db000 	add	fp, sp, #0	; 0x0
300003d0:	e24dd014 	sub	sp, sp, #20	; 0x14
300003d4:	e50b0010 	str	r0, [fp, #-16]
300003d8:	e3a02000 	mov	r2, #0	; 0x0
300003dc:	e51b3010 	ldr	r3, [fp, #-16]
300003e0:	e1a00002 	mov	r0, r2
300003e4:	e1a01003 	mov	r1, r3
300003e8:	ef000001 	svc	0x00000001
300003ec:	e50b3008 	str	r3, [fp, #-8]
300003f0:	e51b3008 	ldr	r3, [fp, #-8]
300003f4:	e1a00003 	mov	r0, r3
300003f8:	e28bd000 	add	sp, fp, #0	; 0x0
300003fc:	e8bd0800 	pop	{fp}
30000400:	e12fff1e 	bx	lr

30000404 <led_off>:
30000404:	e52db004 	push	{fp}		; (str fp, [sp, #-4]!)
30000408:	e28db000 	add	fp, sp, #0	; 0x0
3000040c:	e24dd014 	sub	sp, sp, #20	; 0x14
30000410:	e50b0010 	str	r0, [fp, #-16]
30000414:	e3a02001 	mov	r2, #1	; 0x1
30000418:	e51b3010 	ldr	r3, [fp, #-16]
3000041c:	e1a00002 	mov	r0, r2
30000420:	e1a01003 	mov	r1, r3
30000424:	ef000001 	svc	0x00000001
30000428:	e50b3008 	str	r3, [fp, #-8]
3000042c:	e51b3008 	ldr	r3, [fp, #-8]
30000430:	e1a00003 	mov	r0, r3
30000434:	e28bd000 	add	sp, fp, #0	; 0x0
30000438:	e8bd0800 	pop	{fp}
3000043c:	e12fff1e 	bx	lr

30000440 <read>:
30000440:	e52db004 	push	{fp}		; (str fp, [sp, #-4]!)
30000444:	e28db000 	add	fp, sp, #0	; 0x0
30000448:	e24dd014 	sub	sp, sp, #20	; 0x14
3000044c:	e50b0010 	str	r0, [fp, #-16]
30000450:	e3a02002 	mov	r2, #2	; 0x2
30000454:	e51b3010 	ldr	r3, [fp, #-16]
30000458:	e1a00002 	mov	r0, r2
3000045c:	e1a01003 	mov	r1, r3
30000460:	ef000001 	svc	0x00000001
30000464:	e50b3008 	str	r3, [fp, #-8]
30000468:	e51b3008 	ldr	r3, [fp, #-8]
3000046c:	e1a00003 	mov	r0, r3
30000470:	e28bd000 	add	sp, fp, #0	; 0x0
30000474:	e8bd0800 	pop	{fp}
30000478:	e12fff1e 	bx	lr

3000047c <write>:
3000047c:	e52db004 	push	{fp}		; (str fp, [sp, #-4]!)
30000480:	e28db000 	add	fp, sp, #0	; 0x0
30000484:	e24dd014 	sub	sp, sp, #20	; 0x14
30000488:	e50b0010 	str	r0, [fp, #-16]
3000048c:	e3a02003 	mov	r2, #3	; 0x3
30000490:	e51b3010 	ldr	r3, [fp, #-16]
30000494:	e1a00002 	mov	r0, r2
30000498:	e1a01003 	mov	r1, r3
3000049c:	ef000001 	svc	0x00000001
300004a0:	e50b3008 	str	r3, [fp, #-8]
300004a4:	e51b3008 	ldr	r3, [fp, #-8]
300004a8:	e1a00003 	mov	r0, r3
300004ac:	e28bd000 	add	sp, fp, #0	; 0x0
300004b0:	e8bd0800 	pop	{fp}
300004b4:	e12fff1e 	bx	lr

300004b8 <key_off>:
300004b8:	e52db004 	push	{fp}		; (str fp, [sp, #-4]!)
300004bc:	e28db000 	add	fp, sp, #0	; 0x0
300004c0:	e24dd014 	sub	sp, sp, #20	; 0x14
300004c4:	e50b0010 	str	r0, [fp, #-16]
300004c8:	e3a02006 	mov	r2, #6	; 0x6
300004cc:	e51b3010 	ldr	r3, [fp, #-16]
300004d0:	e1a00002 	mov	r0, r2
300004d4:	e1a01003 	mov	r1, r3
300004d8:	ef000001 	svc	0x00000001
300004dc:	e50b3008 	str	r3, [fp, #-8]
300004e0:	e51b3008 	ldr	r3, [fp, #-8]
300004e4:	e1a00003 	mov	r0, r3
300004e8:	e28bd000 	add	sp, fp, #0	; 0x0
300004ec:	e8bd0800 	pop	{fp}
300004f0:	e12fff1e 	bx	lr

300004f4 <myprintf>:
300004f4:	e52db004 	push	{fp}		; (str fp, [sp, #-4]!)
300004f8:	e28db000 	add	fp, sp, #0	; 0x0
300004fc:	e24dd014 	sub	sp, sp, #20	; 0x14
30000500:	e50b0010 	str	r0, [fp, #-16]
30000504:	e3a02008 	mov	r2, #8	; 0x8
30000508:	e51b3010 	ldr	r3, [fp, #-16]
3000050c:	e1a00002 	mov	r0, r2
30000510:	e1a01003 	mov	r1, r3
30000514:	ef000001 	svc	0x00000001
30000518:	e50b3008 	str	r3, [fp, #-8]
3000051c:	e51b3008 	ldr	r3, [fp, #-8]
30000520:	e1a00003 	mov	r0, r3
30000524:	e28bd000 	add	sp, fp, #0	; 0x0
30000528:	e8bd0800 	pop	{fp}
3000052c:	e12fff1e 	bx	lr

30000530 <myputchar>:
30000530:	e52db004 	push	{fp}		; (str fp, [sp, #-4]!)
30000534:	e28db000 	add	fp, sp, #0	; 0x0
30000538:	e24dd014 	sub	sp, sp, #20	; 0x14
3000053c:	e1a03000 	mov	r3, r0
30000540:	e54b300d 	strb	r3, [fp, #-13]
30000544:	e3a02009 	mov	r2, #9	; 0x9
30000548:	e55b300d 	ldrb	r3, [fp, #-13]
3000054c:	e1a00002 	mov	r0, r2
30000550:	e1a01003 	mov	r1, r3
30000554:	ef000001 	svc	0x00000001
30000558:	e50b3008 	str	r3, [fp, #-8]
3000055c:	e51b3008 	ldr	r3, [fp, #-8]
30000560:	e1a00003 	mov	r0, r3
30000564:	e28bd000 	add	sp, fp, #0	; 0x0
30000568:	e8bd0800 	pop	{fp}
3000056c:	e12fff1e 	bx	lr

30000570 <Dummy_isr>:
30000570:	e92d4800 	push	{fp, lr}
30000574:	e28db004 	add	fp, sp, #4	; 0x4
30000578:	e24dd008 	sub	sp, sp, #8	; 0x8
3000057c:	e59f301c 	ldr	r3, [pc, #28]	; 300005a0 <Dummy_isr+0x30>
30000580:	e08f3003 	add	r3, pc, r3
30000584:	e50b0008 	str	r0, [fp, #-8]
30000588:	e59f2014 	ldr	r2, [pc, #20]	; 300005a4 <Dummy_isr+0x34>
3000058c:	e0833002 	add	r3, r3, r2
30000590:	e1a00003 	mov	r0, r3
30000594:	e51b1008 	ldr	r1, [fp, #-8]
30000598:	eb00035d 	bl	30001314 <printf>
3000059c:	eafffffe 	b	3000059c <Dummy_isr+0x2c>
300005a0:	cffffa78 	.word	0xcffffa78
300005a4:	30009e0c 	.word	0x30009e0c

300005a8 <extern_isr>:
300005a8:	e92d4800 	push	{fp, lr}
300005ac:	e28db004 	add	fp, sp, #4	; 0x4
300005b0:	e24dd010 	sub	sp, sp, #16	; 0x10
300005b4:	e59f10a0 	ldr	r1, [pc, #160]	; 3000065c <extern_isr+0xb4>
300005b8:	e50b1014 	str	r1, [fp, #-20]
300005bc:	e51b3014 	ldr	r3, [fp, #-20]
300005c0:	e08f3003 	add	r3, pc, r3
300005c4:	e50b3014 	str	r3, [fp, #-20]
300005c8:	e50b0010 	str	r0, [fp, #-16]
300005cc:	e3a03456 	mov	r3, #1442840576	; 0x56000000
300005d0:	e28330a8 	add	r3, r3, #168	; 0xa8
300005d4:	e5933000 	ldr	r3, [r3]
300005d8:	e50b3008 	str	r3, [fp, #-8]
300005dc:	e51b0008 	ldr	r0, [fp, #-8]
300005e0:	eb001b7c 	bl	300073d8 <fbit_pend>
300005e4:	e1a03000 	mov	r3, r0
300005e8:	e50b300c 	str	r3, [fp, #-12]
300005ec:	e51b300c 	ldr	r3, [fp, #-12]
300005f0:	e353001f 	cmp	r3, #31	; 0x1f
300005f4:	9a000002 	bls	30000604 <extern_isr+0x5c>
300005f8:	e51b0010 	ldr	r0, [fp, #-16]
300005fc:	ebffffdb 	bl	30000570 <Dummy_isr>
30000600:	ea000007 	b	30000624 <extern_isr+0x7c>
30000604:	e51b200c 	ldr	r2, [fp, #-12]
30000608:	e59f3050 	ldr	r3, [pc, #80]	; 30000660 <extern_isr+0xb8>
3000060c:	e51b1014 	ldr	r1, [fp, #-20]
30000610:	e0813003 	add	r3, r1, r3
30000614:	e7933102 	ldr	r3, [r3, r2, lsl #2]
30000618:	e51b0010 	ldr	r0, [fp, #-16]
3000061c:	e1a0e00f 	mov	lr, pc
30000620:	e12fff13 	bx	r3
30000624:	e3a01456 	mov	r1, #1442840576	; 0x56000000
30000628:	e28110a8 	add	r1, r1, #168	; 0xa8
3000062c:	e3a03456 	mov	r3, #1442840576	; 0x56000000
30000630:	e28330a8 	add	r3, r3, #168	; 0xa8
30000634:	e5930000 	ldr	r0, [r3]
30000638:	e51b300c 	ldr	r3, [fp, #-12]
3000063c:	e203201f 	and	r2, r3, #31	; 0x1f
30000640:	e3a03001 	mov	r3, #1	; 0x1
30000644:	e1a03213 	lsl	r3, r3, r2
30000648:	e1803003 	orr	r3, r0, r3
3000064c:	e5813000 	str	r3, [r1]
30000650:	e24bd004 	sub	sp, fp, #4	; 0x4
30000654:	e8bd4800 	pop	{fp, lr}
30000658:	e12fff1e 	bx	lr
3000065c:	cffffa38 	.word	0xcffffa38
30000660:	3000ab60 	.word	0x3000ab60

30000664 <init_irq>:
30000664:	e52db004 	push	{fp}		; (str fp, [sp, #-4]!)
30000668:	e28db000 	add	fp, sp, #0	; 0x0
3000066c:	e24dd014 	sub	sp, sp, #20	; 0x14
30000670:	e59f0124 	ldr	r0, [pc, #292]	; 3000079c <init_irq+0x138>
30000674:	e50b0010 	str	r0, [fp, #-16]
30000678:	e51b3010 	ldr	r3, [fp, #-16]
3000067c:	e08f3003 	add	r3, pc, r3
30000680:	e50b3010 	str	r3, [fp, #-16]
30000684:	e3a03000 	mov	r3, #0	; 0x0
30000688:	e50b3008 	str	r3, [fp, #-8]
3000068c:	ea000019 	b	300006f8 <init_irq+0x94>
30000690:	e51b3008 	ldr	r3, [fp, #-8]
30000694:	e3530004 	cmp	r3, #4	; 0x4
30000698:	0a000002 	beq	300006a8 <init_irq+0x44>
3000069c:	e51b3008 	ldr	r3, [fp, #-8]
300006a0:	e3530005 	cmp	r3, #5	; 0x5
300006a4:	1a000008 	bne	300006cc <init_irq+0x68>
300006a8:	e51b1008 	ldr	r1, [fp, #-8]
300006ac:	e59f30ec 	ldr	r3, [pc, #236]	; 300007a0 <init_irq+0x13c>
300006b0:	e51b0010 	ldr	r0, [fp, #-16]
300006b4:	e0802003 	add	r2, r0, r3
300006b8:	e59f30e4 	ldr	r3, [pc, #228]	; 300007a4 <init_irq+0x140>
300006bc:	e51b0010 	ldr	r0, [fp, #-16]
300006c0:	e0803003 	add	r3, r0, r3
300006c4:	e7823101 	str	r3, [r2, r1, lsl #2]
300006c8:	ea000007 	b	300006ec <init_irq+0x88>
300006cc:	e51b1008 	ldr	r1, [fp, #-8]
300006d0:	e59f30c8 	ldr	r3, [pc, #200]	; 300007a0 <init_irq+0x13c>
300006d4:	e51b0010 	ldr	r0, [fp, #-16]
300006d8:	e0802003 	add	r2, r0, r3
300006dc:	e59f30c4 	ldr	r3, [pc, #196]	; 300007a8 <init_irq+0x144>
300006e0:	e51b0010 	ldr	r0, [fp, #-16]
300006e4:	e0803003 	add	r3, r0, r3
300006e8:	e7823101 	str	r3, [r2, r1, lsl #2]
300006ec:	e51b3008 	ldr	r3, [fp, #-8]
300006f0:	e2833001 	add	r3, r3, #1	; 0x1
300006f4:	e50b3008 	str	r3, [fp, #-8]
300006f8:	e51b3008 	ldr	r3, [fp, #-8]
300006fc:	e353001f 	cmp	r3, #31	; 0x1f
30000700:	9affffe2 	bls	30000690 <init_irq+0x2c>
30000704:	e3a03000 	mov	r3, #0	; 0x0
30000708:	e50b3008 	str	r3, [fp, #-8]
3000070c:	ea00000a 	b	3000073c <init_irq+0xd8>
30000710:	e51b1008 	ldr	r1, [fp, #-8]
30000714:	e59f3090 	ldr	r3, [pc, #144]	; 300007ac <init_irq+0x148>
30000718:	e51b0010 	ldr	r0, [fp, #-16]
3000071c:	e0802003 	add	r2, r0, r3
30000720:	e59f3080 	ldr	r3, [pc, #128]	; 300007a8 <init_irq+0x144>
30000724:	e51b0010 	ldr	r0, [fp, #-16]
30000728:	e0803003 	add	r3, r0, r3
3000072c:	e7823101 	str	r3, [r2, r1, lsl #2]
30000730:	e51b3008 	ldr	r3, [fp, #-8]
30000734:	e2833001 	add	r3, r3, #1	; 0x1
30000738:	e50b3008 	str	r3, [fp, #-8]
3000073c:	e51b3008 	ldr	r3, [fp, #-8]
30000740:	e3530017 	cmp	r3, #23	; 0x17
30000744:	9afffff1 	bls	30000710 <init_irq+0xac>
30000748:	e3a0344a 	mov	r3, #1241513984	; 0x4a000000
3000074c:	e2833004 	add	r3, r3, #4	; 0x4
30000750:	e3a02000 	mov	r2, #0	; 0x0
30000754:	e5832000 	str	r2, [r3]
30000758:	e3a0344a 	mov	r3, #1241513984	; 0x4a000000
3000075c:	e2833008 	add	r3, r3, #8	; 0x8
30000760:	e3e02000 	mvn	r2, #0	; 0x0
30000764:	e5832000 	str	r2, [r3]
30000768:	e3a0244a 	mov	r2, #1241513984	; 0x4a000000
3000076c:	e282201c 	add	r2, r2, #28	; 0x1c
30000770:	e3a03c7f 	mov	r3, #32512	; 0x7f00
30000774:	e28330ff 	add	r3, r3, #255	; 0xff
30000778:	e5823000 	str	r3, [r2]
3000077c:	e3a02456 	mov	r2, #1442840576	; 0x56000000
30000780:	e28220a4 	add	r2, r2, #164	; 0xa4
30000784:	e3a03401 	mov	r3, #16777216	; 0x1000000
30000788:	e2433010 	sub	r3, r3, #16	; 0x10
3000078c:	e5823000 	str	r3, [r2]
30000790:	e28bd000 	add	sp, fp, #0	; 0x0
30000794:	e8bd0800 	pop	{fp}
30000798:	e12fff1e 	bx	lr
3000079c:	cffff97c 	.word	0xcffff97c
300007a0:	3000aae0 	.word	0x3000aae0
300007a4:	300005a8 	.word	0x300005a8
300007a8:	30000570 	.word	0x30000570
300007ac:	3000ab60 	.word	0x3000ab60

300007b0 <subint_mask>:
300007b0:	e52db004 	push	{fp}		; (str fp, [sp, #-4]!)
300007b4:	e28db000 	add	fp, sp, #0	; 0x0
300007b8:	e24dd00c 	sub	sp, sp, #12	; 0xc
300007bc:	e50b0008 	str	r0, [fp, #-8]
300007c0:	e51b3008 	ldr	r3, [fp, #-8]
300007c4:	e2433006 	sub	r3, r3, #6	; 0x6
300007c8:	e3530019 	cmp	r3, #25	; 0x19
300007cc:	908ff103 	addls	pc, pc, r3, lsl #2
300007d0:	ea000048 	b	300008f8 <subint_mask+0x148>
300007d4:	ea000018 	b	3000083c <subint_mask+0x8c>
300007d8:	ea000046 	b	300008f8 <subint_mask+0x148>
300007dc:	ea000045 	b	300008f8 <subint_mask+0x148>
300007e0:	ea00001d 	b	3000085c <subint_mask+0xac>
300007e4:	ea000043 	b	300008f8 <subint_mask+0x148>
300007e8:	ea000042 	b	300008f8 <subint_mask+0x148>
300007ec:	ea000041 	b	300008f8 <subint_mask+0x148>
300007f0:	ea000040 	b	300008f8 <subint_mask+0x148>
300007f4:	ea00003f 	b	300008f8 <subint_mask+0x148>
300007f8:	ea00001f 	b	3000087c <subint_mask+0xcc>
300007fc:	ea00003d 	b	300008f8 <subint_mask+0x148>
30000800:	ea00003c 	b	300008f8 <subint_mask+0x148>
30000804:	ea00003b 	b	300008f8 <subint_mask+0x148>
30000808:	ea00003a 	b	300008f8 <subint_mask+0x148>
3000080c:	ea000039 	b	300008f8 <subint_mask+0x148>
30000810:	ea000038 	b	300008f8 <subint_mask+0x148>
30000814:	ea000037 	b	300008f8 <subint_mask+0x148>
30000818:	ea00001f 	b	3000089c <subint_mask+0xec>
3000081c:	ea000035 	b	300008f8 <subint_mask+0x148>
30000820:	ea000034 	b	300008f8 <subint_mask+0x148>
30000824:	ea000033 	b	300008f8 <subint_mask+0x148>
30000828:	ea000032 	b	300008f8 <subint_mask+0x148>
3000082c:	ea000022 	b	300008bc <subint_mask+0x10c>
30000830:	ea000030 	b	300008f8 <subint_mask+0x148>
30000834:	ea00002f 	b	300008f8 <subint_mask+0x148>
30000838:	ea000027 	b	300008dc <subint_mask+0x12c>
3000083c:	e3a0244a 	mov	r2, #1241513984	; 0x4a000000
30000840:	e282201c 	add	r2, r2, #28	; 0x1c
30000844:	e3a0344a 	mov	r3, #1241513984	; 0x4a000000
30000848:	e283301c 	add	r3, r3, #28	; 0x1c
3000084c:	e5933000 	ldr	r3, [r3]
30000850:	e3c33b06 	bic	r3, r3, #6144	; 0x1800
30000854:	e5823000 	str	r3, [r2]
30000858:	ea000026 	b	300008f8 <subint_mask+0x148>
3000085c:	e3a0244a 	mov	r2, #1241513984	; 0x4a000000
30000860:	e282201c 	add	r2, r2, #28	; 0x1c
30000864:	e3a0344a 	mov	r3, #1241513984	; 0x4a000000
30000868:	e283301c 	add	r3, r3, #28	; 0x1c
3000086c:	e5933000 	ldr	r3, [r3]
30000870:	e3c33a06 	bic	r3, r3, #24576	; 0x6000
30000874:	e5823000 	str	r3, [r2]
30000878:	ea00001e 	b	300008f8 <subint_mask+0x148>
3000087c:	e3a0244a 	mov	r2, #1241513984	; 0x4a000000
30000880:	e282201c 	add	r2, r2, #28	; 0x1c
30000884:	e3a0344a 	mov	r3, #1241513984	; 0x4a000000
30000888:	e283301c 	add	r3, r3, #28	; 0x1c
3000088c:	e5933000 	ldr	r3, [r3]
30000890:	e3c33d07 	bic	r3, r3, #448	; 0x1c0
30000894:	e5823000 	str	r3, [r2]
30000898:	ea000016 	b	300008f8 <subint_mask+0x148>
3000089c:	e3a0244a 	mov	r2, #1241513984	; 0x4a000000
300008a0:	e282201c 	add	r2, r2, #28	; 0x1c
300008a4:	e3a0344a 	mov	r3, #1241513984	; 0x4a000000
300008a8:	e283301c 	add	r3, r3, #28	; 0x1c
300008ac:	e5933000 	ldr	r3, [r3]
300008b0:	e3c33038 	bic	r3, r3, #56	; 0x38
300008b4:	e5823000 	str	r3, [r2]
300008b8:	ea00000e 	b	300008f8 <subint_mask+0x148>
300008bc:	e3a0244a 	mov	r2, #1241513984	; 0x4a000000
300008c0:	e282201c 	add	r2, r2, #28	; 0x1c
300008c4:	e3a0344a 	mov	r3, #1241513984	; 0x4a000000
300008c8:	e283301c 	add	r3, r3, #28	; 0x1c
300008cc:	e5933000 	ldr	r3, [r3]
300008d0:	e3c33007 	bic	r3, r3, #7	; 0x7
300008d4:	e5823000 	str	r3, [r2]
300008d8:	ea000006 	b	300008f8 <subint_mask+0x148>
300008dc:	e3a0244a 	mov	r2, #1241513984	; 0x4a000000
300008e0:	e282201c 	add	r2, r2, #28	; 0x1c
300008e4:	e3a0344a 	mov	r3, #1241513984	; 0x4a000000
300008e8:	e283301c 	add	r3, r3, #28	; 0x1c
300008ec:	e5933000 	ldr	r3, [r3]
300008f0:	e3c33c06 	bic	r3, r3, #1536	; 0x600
300008f4:	e5823000 	str	r3, [r2]
300008f8:	e28bd000 	add	sp, fp, #0	; 0x0
300008fc:	e8bd0800 	pop	{fp}
30000900:	e12fff1e 	bx	lr

30000904 <register_interrupt>:
30000904:	e92d4800 	push	{fp, lr}
30000908:	e28db004 	add	fp, sp, #4	; 0x4
3000090c:	e24dd010 	sub	sp, sp, #16	; 0x10
30000910:	e59f20a8 	ldr	r2, [pc, #168]	; 300009c0 <register_interrupt+0xbc>
30000914:	e50b2014 	str	r2, [fp, #-20]
30000918:	e51b3014 	ldr	r3, [fp, #-20]
3000091c:	e08f3003 	add	r3, pc, r3
30000920:	e50b3014 	str	r3, [fp, #-20]
30000924:	e50b0008 	str	r0, [fp, #-8]
30000928:	e50b100c 	str	r1, [fp, #-12]
3000092c:	e51b3008 	ldr	r3, [fp, #-8]
30000930:	e353001f 	cmp	r3, #31	; 0x1f
30000934:	9a000007 	bls	30000958 <register_interrupt+0x54>
30000938:	e59f3084 	ldr	r3, [pc, #132]	; 300009c4 <register_interrupt+0xc0>
3000093c:	e51b0014 	ldr	r0, [fp, #-20]
30000940:	e0803003 	add	r3, r0, r3
30000944:	e1a00003 	mov	r0, r3
30000948:	eb0002de 	bl	300014c8 <puts>
3000094c:	e3e02000 	mvn	r2, #0	; 0x0
30000950:	e50b2010 	str	r2, [fp, #-16]
30000954:	ea000014 	b	300009ac <register_interrupt+0xa8>
30000958:	e51b1008 	ldr	r1, [fp, #-8]
3000095c:	e59f3064 	ldr	r3, [pc, #100]	; 300009c8 <register_interrupt+0xc4>
30000960:	e51b0014 	ldr	r0, [fp, #-20]
30000964:	e0802003 	add	r2, r0, r3
30000968:	e51b300c 	ldr	r3, [fp, #-12]
3000096c:	e7823101 	str	r3, [r2, r1, lsl #2]
30000970:	e3a0144a 	mov	r1, #1241513984	; 0x4a000000
30000974:	e2811008 	add	r1, r1, #8	; 0x8
30000978:	e3a0344a 	mov	r3, #1241513984	; 0x4a000000
3000097c:	e2833008 	add	r3, r3, #8	; 0x8
30000980:	e5930000 	ldr	r0, [r3]
30000984:	e51b2008 	ldr	r2, [fp, #-8]
30000988:	e3a03001 	mov	r3, #1	; 0x1
3000098c:	e1a03213 	lsl	r3, r3, r2
30000990:	e1e03003 	mvn	r3, r3
30000994:	e0003003 	and	r3, r0, r3
30000998:	e5813000 	str	r3, [r1]
3000099c:	e51b0008 	ldr	r0, [fp, #-8]
300009a0:	ebffff82 	bl	300007b0 <subint_mask>
300009a4:	e3a02000 	mov	r2, #0	; 0x0
300009a8:	e50b2010 	str	r2, [fp, #-16]
300009ac:	e51b3010 	ldr	r3, [fp, #-16]
300009b0:	e1a00003 	mov	r0, r3
300009b4:	e24bd004 	sub	sp, fp, #4	; 0x4
300009b8:	e8bd4800 	pop	{fp, lr}
300009bc:	e12fff1e 	bx	lr
300009c0:	cffff6dc 	.word	0xcffff6dc
300009c4:	30009e1c 	.word	0x30009e1c
300009c8:	3000aae0 	.word	0x3000aae0

300009cc <register_extern_int>:
300009cc:	e92d4800 	push	{fp, lr}
300009d0:	e28db004 	add	fp, sp, #4	; 0x4
300009d4:	e24dd010 	sub	sp, sp, #16	; 0x10
300009d8:	e59f20f4 	ldr	r2, [pc, #244]	; 30000ad4 <register_extern_int+0x108>
300009dc:	e50b2014 	str	r2, [fp, #-20]
300009e0:	e51b3014 	ldr	r3, [fp, #-20]
300009e4:	e08f3003 	add	r3, pc, r3
300009e8:	e50b3014 	str	r3, [fp, #-20]
300009ec:	e50b0008 	str	r0, [fp, #-8]
300009f0:	e50b100c 	str	r1, [fp, #-12]
300009f4:	e51b3008 	ldr	r3, [fp, #-8]
300009f8:	e3530017 	cmp	r3, #23	; 0x17
300009fc:	8a000002 	bhi	30000a0c <register_extern_int+0x40>
30000a00:	e51b3008 	ldr	r3, [fp, #-8]
30000a04:	e3530003 	cmp	r3, #3	; 0x3
30000a08:	8a000007 	bhi	30000a2c <register_extern_int+0x60>
30000a0c:	e59f30c4 	ldr	r3, [pc, #196]	; 30000ad8 <register_extern_int+0x10c>
30000a10:	e51b0014 	ldr	r0, [fp, #-20]
30000a14:	e0803003 	add	r3, r0, r3
30000a18:	e1a00003 	mov	r0, r3
30000a1c:	eb0002a9 	bl	300014c8 <puts>
30000a20:	e3e02000 	mvn	r2, #0	; 0x0
30000a24:	e50b2010 	str	r2, [fp, #-16]
30000a28:	ea000024 	b	30000ac0 <register_extern_int+0xf4>
30000a2c:	e51b1008 	ldr	r1, [fp, #-8]
30000a30:	e59f30a4 	ldr	r3, [pc, #164]	; 30000adc <register_extern_int+0x110>
30000a34:	e51b0014 	ldr	r0, [fp, #-20]
30000a38:	e0802003 	add	r2, r0, r3
30000a3c:	e51b300c 	ldr	r3, [fp, #-12]
30000a40:	e7823101 	str	r3, [r2, r1, lsl #2]
30000a44:	e3a01456 	mov	r1, #1442840576	; 0x56000000
30000a48:	e28110a4 	add	r1, r1, #164	; 0xa4
30000a4c:	e3a03456 	mov	r3, #1442840576	; 0x56000000
30000a50:	e28330a4 	add	r3, r3, #164	; 0xa4
30000a54:	e5930000 	ldr	r0, [r3]
30000a58:	e51b2008 	ldr	r2, [fp, #-8]
30000a5c:	e3a03001 	mov	r3, #1	; 0x1
30000a60:	e1a03213 	lsl	r3, r3, r2
30000a64:	e1e03003 	mvn	r3, r3
30000a68:	e0003003 	and	r3, r0, r3
30000a6c:	e5813000 	str	r3, [r1]
30000a70:	e51b3008 	ldr	r3, [fp, #-8]
30000a74:	e3530007 	cmp	r3, #7	; 0x7
30000a78:	8a000007 	bhi	30000a9c <register_extern_int+0xd0>
30000a7c:	e3a0244a 	mov	r2, #1241513984	; 0x4a000000
30000a80:	e2822008 	add	r2, r2, #8	; 0x8
30000a84:	e3a0344a 	mov	r3, #1241513984	; 0x4a000000
30000a88:	e2833008 	add	r3, r3, #8	; 0x8
30000a8c:	e5933000 	ldr	r3, [r3]
30000a90:	e3c33010 	bic	r3, r3, #16	; 0x10
30000a94:	e5823000 	str	r3, [r2]
30000a98:	ea000006 	b	30000ab8 <register_extern_int+0xec>
30000a9c:	e3a0244a 	mov	r2, #1241513984	; 0x4a000000
30000aa0:	e2822008 	add	r2, r2, #8	; 0x8
30000aa4:	e3a0344a 	mov	r3, #1241513984	; 0x4a000000
30000aa8:	e2833008 	add	r3, r3, #8	; 0x8
30000aac:	e5933000 	ldr	r3, [r3]
30000ab0:	e3c33020 	bic	r3, r3, #32	; 0x20
30000ab4:	e5823000 	str	r3, [r2]
30000ab8:	e3a02000 	mov	r2, #0	; 0x0
30000abc:	e50b2010 	str	r2, [fp, #-16]
30000ac0:	e51b3010 	ldr	r3, [fp, #-16]
30000ac4:	e1a00003 	mov	r0, r3
30000ac8:	e24bd004 	sub	sp, fp, #4	; 0x4
30000acc:	e8bd4800 	pop	{fp, lr}
30000ad0:	e12fff1e 	bx	lr
30000ad4:	cffff614 	.word	0xcffff614
30000ad8:	30009e1c 	.word	0x30009e1c
30000adc:	3000ab60 	.word	0x3000ab60

30000ae0 <C_IRQ_Handler>:
30000ae0:	e92d4800 	push	{fp, lr}
30000ae4:	e28db004 	add	fp, sp, #4	; 0x4
30000ae8:	e24dd010 	sub	sp, sp, #16	; 0x10
30000aec:	e59f2090 	ldr	r2, [pc, #144]	; 30000b84 <C_IRQ_Handler+0xa4>
30000af0:	e08f2002 	add	r2, pc, r2
30000af4:	e50b0010 	str	r0, [fp, #-16]
30000af8:	e50b1014 	str	r1, [fp, #-20]
30000afc:	e3a0344a 	mov	r3, #1241513984	; 0x4a000000
30000b00:	e2833014 	add	r3, r3, #20	; 0x14
30000b04:	e5933000 	ldr	r3, [r3]
30000b08:	e50b3008 	str	r3, [fp, #-8]
30000b0c:	e51b1008 	ldr	r1, [fp, #-8]
30000b10:	e59f3070 	ldr	r3, [pc, #112]	; 30000b88 <C_IRQ_Handler+0xa8>
30000b14:	e0823003 	add	r3, r2, r3
30000b18:	e7933101 	ldr	r3, [r3, r1, lsl #2]
30000b1c:	e51b0008 	ldr	r0, [fp, #-8]
30000b20:	e1a0e00f 	mov	lr, pc
30000b24:	e12fff13 	bx	r3
30000b28:	e3a0244a 	mov	r2, #1241513984	; 0x4a000000
30000b2c:	e2822018 	add	r2, r2, #24	; 0x18
30000b30:	e3a0344a 	mov	r3, #1241513984	; 0x4a000000
30000b34:	e2833018 	add	r3, r3, #24	; 0x18
30000b38:	e5933000 	ldr	r3, [r3]
30000b3c:	e5823000 	str	r3, [r2]
30000b40:	e3a0044a 	mov	r0, #1241513984	; 0x4a000000
30000b44:	e3a0344a 	mov	r3, #1241513984	; 0x4a000000
30000b48:	e5931000 	ldr	r1, [r3]
30000b4c:	e51b2008 	ldr	r2, [fp, #-8]
30000b50:	e3a03001 	mov	r3, #1	; 0x1
30000b54:	e1a03213 	lsl	r3, r3, r2
30000b58:	e1813003 	orr	r3, r1, r3
30000b5c:	e5803000 	str	r3, [r0]
30000b60:	e3a0244a 	mov	r2, #1241513984	; 0x4a000000
30000b64:	e2822010 	add	r2, r2, #16	; 0x10
30000b68:	e3a0344a 	mov	r3, #1241513984	; 0x4a000000
30000b6c:	e2833010 	add	r3, r3, #16	; 0x10
30000b70:	e5933000 	ldr	r3, [r3]
30000b74:	e5823000 	str	r3, [r2]
30000b78:	e24bd004 	sub	sp, fp, #4	; 0x4
30000b7c:	e8bd4800 	pop	{fp, lr}
30000b80:	e12fff1e 	bx	lr
30000b84:	cffff508 	.word	0xcffff508
30000b88:	3000aae0 	.word	0x3000aae0

30000b8c <uart0_init>:
30000b8c:	e52db004 	push	{fp}		; (str fp, [sp, #-4]!)
30000b90:	e28db000 	add	fp, sp, #0	; 0x0
30000b94:	e3a02456 	mov	r2, #1442840576	; 0x56000000
30000b98:	e2822070 	add	r2, r2, #112	; 0x70
30000b9c:	e3a03456 	mov	r3, #1442840576	; 0x56000000
30000ba0:	e2833070 	add	r3, r3, #112	; 0x70
30000ba4:	e5933000 	ldr	r3, [r3]
30000ba8:	e38330a0 	orr	r3, r3, #160	; 0xa0
30000bac:	e5823000 	str	r3, [r2]
30000bb0:	e3a03456 	mov	r3, #1442840576	; 0x56000000
30000bb4:	e2833078 	add	r3, r3, #120	; 0x78
30000bb8:	e3a0200c 	mov	r2, #12	; 0xc
30000bbc:	e5832000 	str	r2, [r3]
30000bc0:	e3a02205 	mov	r2, #1342177280	; 0x50000000
30000bc4:	e3a03003 	mov	r3, #3	; 0x3
30000bc8:	e5823000 	str	r3, [r2]
30000bcc:	e3a02245 	mov	r2, #1342177284	; 0x50000004
30000bd0:	e3a03005 	mov	r3, #5	; 0x5
30000bd4:	e5823000 	str	r3, [r2]
30000bd8:	e3a02285 	mov	r2, #1342177288	; 0x50000008
30000bdc:	e3a03000 	mov	r3, #0	; 0x0
30000be0:	e5823000 	str	r3, [r2]
30000be4:	e3a022c5 	mov	r2, #1342177292	; 0x5000000c
30000be8:	e3a03000 	mov	r3, #0	; 0x0
30000bec:	e5823000 	str	r3, [r2]
30000bf0:	e3a03205 	mov	r3, #1342177280	; 0x50000000
30000bf4:	e2833028 	add	r3, r3, #40	; 0x28
30000bf8:	e3a0201a 	mov	r2, #26	; 0x1a
30000bfc:	e5832000 	str	r2, [r3]
30000c00:	e28bd000 	add	sp, fp, #0	; 0x0
30000c04:	e8bd0800 	pop	{fp}
30000c08:	e12fff1e 	bx	lr

30000c0c <Uart_Init>:
30000c0c:	e52db004 	push	{fp}		; (str fp, [sp, #-4]!)
30000c10:	e28db000 	add	fp, sp, #0	; 0x0
30000c14:	e24dd00c 	sub	sp, sp, #12	; 0xc
30000c18:	e50b0008 	str	r0, [fp, #-8]
30000c1c:	e50b100c 	str	r1, [fp, #-12]
30000c20:	e3a01456 	mov	r1, #1442840576	; 0x56000000
30000c24:	e2811070 	add	r1, r1, #112	; 0x70
30000c28:	e3a03456 	mov	r3, #1442840576	; 0x56000000
30000c2c:	e2833070 	add	r3, r3, #112	; 0x70
30000c30:	e5930000 	ldr	r0, [r3]
30000c34:	e51b3008 	ldr	r3, [fp, #-8]
30000c38:	e2833002 	add	r3, r3, #2	; 0x2
30000c3c:	e1a03083 	lsl	r3, r3, #1
30000c40:	e1a02003 	mov	r2, r3
30000c44:	e3a03002 	mov	r3, #2	; 0x2
30000c48:	e1a03213 	lsl	r3, r3, r2
30000c4c:	e1803003 	orr	r3, r0, r3
30000c50:	e5813000 	str	r3, [r1]
30000c54:	e3a01456 	mov	r1, #1442840576	; 0x56000000
30000c58:	e2811078 	add	r1, r1, #120	; 0x78
30000c5c:	e51b3008 	ldr	r3, [fp, #-8]
30000c60:	e2833002 	add	r3, r3, #2	; 0x2
30000c64:	e1a02003 	mov	r2, r3
30000c68:	e3a03001 	mov	r3, #1	; 0x1
30000c6c:	e1a00213 	lsl	r0, r3, r2
30000c70:	e51b3008 	ldr	r3, [fp, #-8]
30000c74:	e2833003 	add	r3, r3, #3	; 0x3
30000c78:	e1a02003 	mov	r2, r3
30000c7c:	e3a03001 	mov	r3, #1	; 0x1
30000c80:	e1a03213 	lsl	r3, r3, r2
30000c84:	e1803003 	orr	r3, r0, r3
30000c88:	e5813000 	str	r3, [r1]
30000c8c:	e3a02205 	mov	r2, #1342177280	; 0x50000000
30000c90:	e3a03003 	mov	r3, #3	; 0x3
30000c94:	e5823000 	str	r3, [r2]
30000c98:	e3a02245 	mov	r2, #1342177284	; 0x50000004
30000c9c:	e3a0308a 	mov	r3, #138	; 0x8a
30000ca0:	e5823000 	str	r3, [r2]
30000ca4:	e3a02285 	mov	r2, #1342177288	; 0x50000008
30000ca8:	e3a030f1 	mov	r3, #241	; 0xf1
30000cac:	e5823000 	str	r3, [r2]
30000cb0:	e3a022c5 	mov	r2, #1342177292	; 0x5000000c
30000cb4:	e3a03000 	mov	r3, #0	; 0x0
30000cb8:	e5823000 	str	r3, [r2]
30000cbc:	e3a03205 	mov	r3, #1342177280	; 0x50000000
30000cc0:	e2833028 	add	r3, r3, #40	; 0x28
30000cc4:	e51b200c 	ldr	r2, [fp, #-12]
30000cc8:	e5832000 	str	r2, [r3]
30000ccc:	e3a03000 	mov	r3, #0	; 0x0
30000cd0:	e1a00003 	mov	r0, r3
30000cd4:	e28bd000 	add	sp, fp, #0	; 0x0
30000cd8:	e8bd0800 	pop	{fp}
30000cdc:	e12fff1e 	bx	lr

30000ce0 <put_c>:
30000ce0:	e52db004 	push	{fp}		; (str fp, [sp, #-4]!)
30000ce4:	e28db000 	add	fp, sp, #0	; 0x0
30000ce8:	e24dd00c 	sub	sp, sp, #12	; 0xc
30000cec:	e1a03000 	mov	r3, r0
30000cf0:	e54b3005 	strb	r3, [fp, #-5]
30000cf4:	e3a03205 	mov	r3, #1342177280	; 0x50000000
30000cf8:	e2833010 	add	r3, r3, #16	; 0x10
30000cfc:	e5933000 	ldr	r3, [r3]
30000d00:	e2033004 	and	r3, r3, #4	; 0x4
30000d04:	e3530000 	cmp	r3, #0	; 0x0
30000d08:	0afffff9 	beq	30000cf4 <put_c+0x14>
30000d0c:	e3a03205 	mov	r3, #1342177280	; 0x50000000
30000d10:	e2833020 	add	r3, r3, #32	; 0x20
30000d14:	e55b2005 	ldrb	r2, [fp, #-5]
30000d18:	e5c32000 	strb	r2, [r3]
30000d1c:	e28bd000 	add	sp, fp, #0	; 0x0
30000d20:	e8bd0800 	pop	{fp}
30000d24:	e12fff1e 	bx	lr

30000d28 <getc>:
30000d28:	e52db004 	push	{fp}		; (str fp, [sp, #-4]!)
30000d2c:	e28db000 	add	fp, sp, #0	; 0x0
30000d30:	e3a03205 	mov	r3, #1342177280	; 0x50000000
30000d34:	e2833010 	add	r3, r3, #16	; 0x10
30000d38:	e5933000 	ldr	r3, [r3]
30000d3c:	e2033001 	and	r3, r3, #1	; 0x1
30000d40:	e3530000 	cmp	r3, #0	; 0x0
30000d44:	0afffff9 	beq	30000d30 <getc+0x8>
30000d48:	e3a03205 	mov	r3, #1342177280	; 0x50000000
30000d4c:	e2833024 	add	r3, r3, #36	; 0x24
30000d50:	e5d33000 	ldrb	r3, [r3]
30000d54:	e20330ff 	and	r3, r3, #255	; 0xff
30000d58:	e1a00003 	mov	r0, r3
30000d5c:	e28bd000 	add	sp, fp, #0	; 0x0
30000d60:	e8bd0800 	pop	{fp}
30000d64:	e12fff1e 	bx	lr

30000d68 <isDigit>:
30000d68:	e52db004 	push	{fp}		; (str fp, [sp, #-4]!)
30000d6c:	e28db000 	add	fp, sp, #0	; 0x0
30000d70:	e24dd00c 	sub	sp, sp, #12	; 0xc
30000d74:	e1a03000 	mov	r3, r0
30000d78:	e54b3005 	strb	r3, [fp, #-5]
30000d7c:	e55b3005 	ldrb	r3, [fp, #-5]
30000d80:	e353002f 	cmp	r3, #47	; 0x2f
30000d84:	9a000005 	bls	30000da0 <isDigit+0x38>
30000d88:	e55b3005 	ldrb	r3, [fp, #-5]
30000d8c:	e3530039 	cmp	r3, #57	; 0x39
30000d90:	8a000002 	bhi	30000da0 <isDigit+0x38>
30000d94:	e3a03001 	mov	r3, #1	; 0x1
30000d98:	e50b300c 	str	r3, [fp, #-12]
30000d9c:	ea000001 	b	30000da8 <isDigit+0x40>
30000da0:	e3a03000 	mov	r3, #0	; 0x0
30000da4:	e50b300c 	str	r3, [fp, #-12]
30000da8:	e51b300c 	ldr	r3, [fp, #-12]
30000dac:	e1a00003 	mov	r0, r3
30000db0:	e28bd000 	add	sp, fp, #0	; 0x0
30000db4:	e8bd0800 	pop	{fp}
30000db8:	e12fff1e 	bx	lr

30000dbc <isLetter>:
30000dbc:	e52db004 	push	{fp}		; (str fp, [sp, #-4]!)
30000dc0:	e28db000 	add	fp, sp, #0	; 0x0
30000dc4:	e24dd00c 	sub	sp, sp, #12	; 0xc
30000dc8:	e1a03000 	mov	r3, r0
30000dcc:	e54b3005 	strb	r3, [fp, #-5]
30000dd0:	e55b3005 	ldrb	r3, [fp, #-5]
30000dd4:	e3530060 	cmp	r3, #96	; 0x60
30000dd8:	9a000005 	bls	30000df4 <isLetter+0x38>
30000ddc:	e55b3005 	ldrb	r3, [fp, #-5]
30000de0:	e353007a 	cmp	r3, #122	; 0x7a
30000de4:	8a000002 	bhi	30000df4 <isLetter+0x38>
30000de8:	e3a03001 	mov	r3, #1	; 0x1
30000dec:	e50b300c 	str	r3, [fp, #-12]
30000df0:	ea00000a 	b	30000e20 <isLetter+0x64>
30000df4:	e55b3005 	ldrb	r3, [fp, #-5]
30000df8:	e3530040 	cmp	r3, #64	; 0x40
30000dfc:	9a000005 	bls	30000e18 <isLetter+0x5c>
30000e00:	e55b3005 	ldrb	r3, [fp, #-5]
30000e04:	e353005a 	cmp	r3, #90	; 0x5a
30000e08:	8a000002 	bhi	30000e18 <isLetter+0x5c>
30000e0c:	e3a03001 	mov	r3, #1	; 0x1
30000e10:	e50b300c 	str	r3, [fp, #-12]
30000e14:	ea000001 	b	30000e20 <isLetter+0x64>
30000e18:	e3a03000 	mov	r3, #0	; 0x0
30000e1c:	e50b300c 	str	r3, [fp, #-12]
30000e20:	e51b300c 	ldr	r3, [fp, #-12]
30000e24:	e1a00003 	mov	r0, r3
30000e28:	e28bd000 	add	sp, fp, #0	; 0x0
30000e2c:	e8bd0800 	pop	{fp}
30000e30:	e12fff1e 	bx	lr

30000e34 <printf_word>:
30000e34:	e92d4800 	push	{fp, lr}
30000e38:	e28db004 	add	fp, sp, #4	; 0x4
30000e3c:	e24dd010 	sub	sp, sp, #16	; 0x10
30000e40:	e50b0010 	str	r0, [fp, #-16]
30000e44:	e3a03000 	mov	r3, #0	; 0x0
30000e48:	e54b3005 	strb	r3, [fp, #-5]
30000e4c:	e51b3010 	ldr	r3, [fp, #-16]
30000e50:	e54b3005 	strb	r3, [fp, #-5]
30000e54:	e51b3010 	ldr	r3, [fp, #-16]
30000e58:	e1a03423 	lsr	r3, r3, #8
30000e5c:	e50b3010 	str	r3, [fp, #-16]
30000e60:	e55b3005 	ldrb	r3, [fp, #-5]
30000e64:	e1a00003 	mov	r0, r3
30000e68:	ebffff9c 	bl	30000ce0 <put_c>
30000e6c:	e51b3010 	ldr	r3, [fp, #-16]
30000e70:	e3530000 	cmp	r3, #0	; 0x0
30000e74:	1afffff4 	bne	30000e4c <printf_word+0x18>
30000e78:	e24bd004 	sub	sp, fp, #4	; 0x4
30000e7c:	e8bd4800 	pop	{fp, lr}
30000e80:	e12fff1e 	bx	lr

30000e84 <printf_string>:
30000e84:	e92d4800 	push	{fp, lr}
30000e88:	e28db004 	add	fp, sp, #4	; 0x4
30000e8c:	e24dd008 	sub	sp, sp, #8	; 0x8
30000e90:	e50b0008 	str	r0, [fp, #-8]
30000e94:	e51b3008 	ldr	r3, [fp, #-8]
30000e98:	e3530000 	cmp	r3, #0	; 0x0
30000e9c:	0a00000b 	beq	30000ed0 <printf_string+0x4c>
30000ea0:	ea000006 	b	30000ec0 <printf_string+0x3c>
30000ea4:	e51b3008 	ldr	r3, [fp, #-8]
30000ea8:	e5d32000 	ldrb	r2, [r3]
30000eac:	e51b3008 	ldr	r3, [fp, #-8]
30000eb0:	e2833001 	add	r3, r3, #1	; 0x1
30000eb4:	e50b3008 	str	r3, [fp, #-8]
30000eb8:	e1a00002 	mov	r0, r2
30000ebc:	ebffff87 	bl	30000ce0 <put_c>
30000ec0:	e51b3008 	ldr	r3, [fp, #-8]
30000ec4:	e5d33000 	ldrb	r3, [r3]
30000ec8:	e3530000 	cmp	r3, #0	; 0x0
30000ecc:	1afffff4 	bne	30000ea4 <printf_string+0x20>
30000ed0:	e24bd004 	sub	sp, fp, #4	; 0x4
30000ed4:	e8bd4800 	pop	{fp, lr}
30000ed8:	e12fff1e 	bx	lr

30000edc <Register_Uart>:
30000edc:	e52db004 	push	{fp}		; (str fp, [sp, #-4]!)
30000ee0:	e28db000 	add	fp, sp, #0	; 0x0
30000ee4:	e24dd00c 	sub	sp, sp, #12	; 0xc
30000ee8:	e50b0008 	str	r0, [fp, #-8]
30000eec:	e3a03000 	mov	r3, #0	; 0x0
30000ef0:	e1a00003 	mov	r0, r3
30000ef4:	e28bd000 	add	sp, fp, #0	; 0x0
30000ef8:	e8bd0800 	pop	{fp}
30000efc:	e12fff1e 	bx	lr

30000f00 <Dma0_Handle>:
30000f00:	e92d4800 	push	{fp, lr}
30000f04:	e28db004 	add	fp, sp, #4	; 0x4
30000f08:	e24dd008 	sub	sp, sp, #8	; 0x8
30000f0c:	e59f3030 	ldr	r3, [pc, #48]	; 30000f44 <Dma0_Handle+0x44>
30000f10:	e08f3003 	add	r3, pc, r3
30000f14:	e50b0008 	str	r0, [fp, #-8]
30000f18:	e59f2028 	ldr	r2, [pc, #40]	; 30000f48 <Dma0_Handle+0x48>
30000f1c:	e0833002 	add	r3, r3, r2
30000f20:	e1a00003 	mov	r0, r3
30000f24:	eb000167 	bl	300014c8 <puts>
30000f28:	e3a03456 	mov	r3, #1442840576	; 0x56000000
30000f2c:	e2833014 	add	r3, r3, #20	; 0x14
30000f30:	e3a02e12 	mov	r2, #288	; 0x120
30000f34:	e5832000 	str	r2, [r3]
30000f38:	e24bd004 	sub	sp, fp, #4	; 0x4
30000f3c:	e8bd4800 	pop	{fp, lr}
30000f40:	e12fff1e 	bx	lr
30000f44:	cffff0e8 	.word	0xcffff0e8
30000f48:	30009e3c 	.word	0x30009e3c

30000f4c <DMA_memcpy>:
30000f4c:	e52db004 	push	{fp}		; (str fp, [sp, #-4]!)
30000f50:	e28db000 	add	fp, sp, #0	; 0x0
30000f54:	e24dd014 	sub	sp, sp, #20	; 0x14
30000f58:	e50b0008 	str	r0, [fp, #-8]
30000f5c:	e50b100c 	str	r1, [fp, #-12]
30000f60:	e50b2010 	str	r2, [fp, #-16]
30000f64:	e3a0244b 	mov	r2, #1258291200	; 0x4b000000
30000f68:	e51b300c 	ldr	r3, [fp, #-12]
30000f6c:	e3c33102 	bic	r3, r3, #-2147483648	; 0x80000000
30000f70:	e5823000 	str	r3, [r2]
30000f74:	e3a0344b 	mov	r3, #1258291200	; 0x4b000000
30000f78:	e2833004 	add	r3, r3, #4	; 0x4
30000f7c:	e3a02000 	mov	r2, #0	; 0x0
30000f80:	e5832000 	str	r2, [r3]
30000f84:	e3a0344b 	mov	r3, #1258291200	; 0x4b000000
30000f88:	e2833008 	add	r3, r3, #8	; 0x8
30000f8c:	e51b2008 	ldr	r2, [fp, #-8]
30000f90:	e3c22102 	bic	r2, r2, #-2147483648	; 0x80000000
30000f94:	e5832000 	str	r2, [r3]
30000f98:	e3a0344b 	mov	r3, #1258291200	; 0x4b000000
30000f9c:	e283300c 	add	r3, r3, #12	; 0xc
30000fa0:	e3a02000 	mov	r2, #0	; 0x0
30000fa4:	e5832000 	str	r2, [r3]
30000fa8:	e3a0244b 	mov	r2, #1258291200	; 0x4b000000
30000fac:	e2822010 	add	r2, r2, #16	; 0x10
30000fb0:	e51b3010 	ldr	r3, [fp, #-16]
30000fb4:	e3c334ff 	bic	r3, r3, #-16777216	; 0xff000000
30000fb8:	e3c3360f 	bic	r3, r3, #15728640	; 0xf00000
30000fbc:	e283333a 	add	r3, r3, #-402653184	; 0xe8000000
30000fc0:	e2833606 	add	r3, r3, #6291456	; 0x600000
30000fc4:	e5823000 	str	r3, [r2]
30000fc8:	e3a0344b 	mov	r3, #1258291200	; 0x4b000000
30000fcc:	e2833020 	add	r3, r3, #32	; 0x20
30000fd0:	e3a02003 	mov	r2, #3	; 0x3
30000fd4:	e5832000 	str	r2, [r3]
30000fd8:	e3a0244a 	mov	r2, #1241513984	; 0x4a000000
30000fdc:	e2822008 	add	r2, r2, #8	; 0x8
30000fe0:	e3a0344a 	mov	r3, #1241513984	; 0x4a000000
30000fe4:	e2833008 	add	r3, r3, #8	; 0x8
30000fe8:	e5933000 	ldr	r3, [r3]
30000fec:	e3c33802 	bic	r3, r3, #131072	; 0x20000
30000ff0:	e5823000 	str	r3, [r2]
30000ff4:	e28bd000 	add	sp, fp, #0	; 0x0
30000ff8:	e8bd0800 	pop	{fp}
30000ffc:	e12fff1e 	bx	lr

30001000 <Dma_init>:
30001000:	e52db004 	push	{fp}		; (str fp, [sp, #-4]!)
30001004:	e28db000 	add	fp, sp, #0	; 0x0
30001008:	e24dd014 	sub	sp, sp, #20	; 0x14
3000100c:	e50b0008 	str	r0, [fp, #-8]
30001010:	e50b100c 	str	r1, [fp, #-12]
30001014:	e50b2010 	str	r2, [fp, #-16]
30001018:	e54b3011 	strb	r3, [fp, #-17]
3000101c:	e3a0244b 	mov	r2, #1258291200	; 0x4b000000
30001020:	e51b300c 	ldr	r3, [fp, #-12]
30001024:	e3c33102 	bic	r3, r3, #-2147483648	; 0x80000000
30001028:	e5823000 	str	r3, [r2]
3000102c:	e3a0244b 	mov	r2, #1258291200	; 0x4b000000
30001030:	e2822004 	add	r2, r2, #4	; 0x4
30001034:	e3a0344b 	mov	r3, #1258291200	; 0x4b000000
30001038:	e2833004 	add	r3, r3, #4	; 0x4
3000103c:	e5933000 	ldr	r3, [r3]
30001040:	e5823000 	str	r3, [r2]
30001044:	e3a0344b 	mov	r3, #1258291200	; 0x4b000000
30001048:	e2833008 	add	r3, r3, #8	; 0x8
3000104c:	e51b2008 	ldr	r2, [fp, #-8]
30001050:	e3c22102 	bic	r2, r2, #-2147483648	; 0x80000000
30001054:	e5832000 	str	r2, [r3]
30001058:	e3a0244b 	mov	r2, #1258291200	; 0x4b000000
3000105c:	e282200c 	add	r2, r2, #12	; 0xc
30001060:	e3a0344b 	mov	r3, #1258291200	; 0x4b000000
30001064:	e283300c 	add	r3, r3, #12	; 0xc
30001068:	e5933000 	ldr	r3, [r3]
3000106c:	e3833003 	orr	r3, r3, #3	; 0x3
30001070:	e5823000 	str	r3, [r2]
30001074:	e3a0244b 	mov	r2, #1258291200	; 0x4b000000
30001078:	e2822010 	add	r2, r2, #16	; 0x10
3000107c:	e3a0344b 	mov	r3, #1258291200	; 0x4b000000
30001080:	e2833010 	add	r3, r3, #16	; 0x10
30001084:	e5930000 	ldr	r0, [r3]
30001088:	e55b3011 	ldrb	r3, [fp, #-17]
3000108c:	e1a03c03 	lsl	r3, r3, #24
30001090:	e1a01003 	mov	r1, r3
30001094:	e5db3004 	ldrb	r3, [fp, #4]
30001098:	e1a03b83 	lsl	r3, r3, #23
3000109c:	e1811003 	orr	r1, r1, r3
300010a0:	e51b3010 	ldr	r3, [fp, #-16]
300010a4:	e3c334ff 	bic	r3, r3, #-16777216	; 0xff000000
300010a8:	e3c3360f 	bic	r3, r3, #15728640	; 0xf00000
300010ac:	e1813003 	orr	r3, r1, r3
300010b0:	e1803003 	orr	r3, r0, r3
300010b4:	e383320a 	orr	r3, r3, #-1610612736	; 0xa0000000
300010b8:	e3833501 	orr	r3, r3, #4194304	; 0x400000
300010bc:	e5823000 	str	r3, [r2]
300010c0:	e3a0344b 	mov	r3, #1258291200	; 0x4b000000
300010c4:	e2833020 	add	r3, r3, #32	; 0x20
300010c8:	e3a02002 	mov	r2, #2	; 0x2
300010cc:	e5832000 	str	r2, [r3]
300010d0:	e28bd000 	add	sp, fp, #0	; 0x0
300010d4:	e8bd0800 	pop	{fp}
300010d8:	e12fff1e 	bx	lr

300010dc <DMA_UART>:
300010dc:	e92d4800 	push	{fp, lr}
300010e0:	e28db004 	add	fp, sp, #4	; 0x4
300010e4:	e24dd018 	sub	sp, sp, #24	; 0x18
300010e8:	e50b0008 	str	r0, [fp, #-8]
300010ec:	e50b100c 	str	r1, [fp, #-12]
300010f0:	e50b2010 	str	r2, [fp, #-16]
300010f4:	e54b3011 	strb	r3, [fp, #-17]
300010f8:	e55bc011 	ldrb	ip, [fp, #-17]
300010fc:	e5db3004 	ldrb	r3, [fp, #4]
30001100:	e58d3000 	str	r3, [sp]
30001104:	e51b0008 	ldr	r0, [fp, #-8]
30001108:	e51b100c 	ldr	r1, [fp, #-12]
3000110c:	e51b2010 	ldr	r2, [fp, #-16]
30001110:	e1a0300c 	mov	r3, ip
30001114:	ebffffb9 	bl	30001000 <Dma_init>
30001118:	e3a0244a 	mov	r2, #1241513984	; 0x4a000000
3000111c:	e2822008 	add	r2, r2, #8	; 0x8
30001120:	e3a0344a 	mov	r3, #1241513984	; 0x4a000000
30001124:	e2833008 	add	r3, r3, #8	; 0x8
30001128:	e5933000 	ldr	r3, [r3]
3000112c:	e3c33802 	bic	r3, r3, #131072	; 0x20000
30001130:	e5823000 	str	r3, [r2]
30001134:	e24bd004 	sub	sp, fp, #4	; 0x4
30001138:	e8bd4800 	pop	{fp, lr}
3000113c:	e12fff1e 	bx	lr

30001140 <dma_uart_test>:
30001140:	e92d4800 	push	{fp, lr}
30001144:	e28db004 	add	fp, sp, #4	; 0x4
30001148:	e24ddf46 	sub	sp, sp, #280	; 0x118
3000114c:	e59f10c0 	ldr	r1, [pc, #192]	; 30001214 <dma_uart_test+0xd4>
30001150:	e50b1110 	str	r1, [fp, #-272]
30001154:	e51b2110 	ldr	r2, [fp, #-272]
30001158:	e08f2002 	add	r2, pc, r2
3000115c:	e50b2110 	str	r2, [fp, #-272]
30001160:	e3a00011 	mov	r0, #17	; 0x11
30001164:	e59f30ac 	ldr	r3, [pc, #172]	; 30001218 <dma_uart_test+0xd8>
30001168:	e51b1110 	ldr	r1, [fp, #-272]
3000116c:	e0813003 	add	r3, r1, r3
30001170:	e1a01003 	mov	r1, r3
30001174:	ebfffde2 	bl	30000904 <register_interrupt>
30001178:	e1a03000 	mov	r3, r0
3000117c:	e50b3008 	str	r3, [fp, #-8]
30001180:	e51b3008 	ldr	r3, [fp, #-8]
30001184:	e3530000 	cmp	r3, #0	; 0x0
30001188:	0a000005 	beq	300011a4 <dma_uart_test+0x64>
3000118c:	e59f3088 	ldr	r3, [pc, #136]	; 3000121c <dma_uart_test+0xdc>
30001190:	e51b2110 	ldr	r2, [fp, #-272]
30001194:	e0823003 	add	r3, r2, r3
30001198:	e1a00003 	mov	r0, r3
3000119c:	eb0000c9 	bl	300014c8 <puts>
300011a0:	ea000018 	b	30001208 <dma_uart_test+0xc8>
300011a4:	e59f3074 	ldr	r3, [pc, #116]	; 30001220 <dma_uart_test+0xe0>
300011a8:	e51b1110 	ldr	r1, [fp, #-272]
300011ac:	e0812003 	add	r2, r1, r3
300011b0:	e24b3f41 	sub	r3, fp, #260	; 0x104
300011b4:	e2433003 	sub	r3, r3, #3	; 0x3
300011b8:	e3a0c04f 	mov	ip, #79	; 0x4f
300011bc:	e1a00003 	mov	r0, r3
300011c0:	e1a01002 	mov	r1, r2
300011c4:	e1a0200c 	mov	r2, ip
300011c8:	eb0003cc 	bl	30002100 <memcpy>
300011cc:	e24b30b8 	sub	r3, fp, #184	; 0xb8
300011d0:	e3a020b0 	mov	r2, #176	; 0xb0
300011d4:	e1a00003 	mov	r0, r3
300011d8:	e3a01000 	mov	r1, #0	; 0x0
300011dc:	eb000386 	bl	30001ffc <memset>
300011e0:	e24b2f41 	sub	r2, fp, #260	; 0x104
300011e4:	e2422003 	sub	r2, r2, #3	; 0x3
300011e8:	e3a03001 	mov	r3, #1	; 0x1
300011ec:	e58d3000 	str	r3, [sp]
300011f0:	e3a00205 	mov	r0, #1342177280	; 0x50000000
300011f4:	e2800020 	add	r0, r0, #32	; 0x20
300011f8:	e1a01002 	mov	r1, r2
300011fc:	e3a02060 	mov	r2, #96	; 0x60
30001200:	e3a03001 	mov	r3, #1	; 0x1
30001204:	ebffffb4 	bl	300010dc <DMA_UART>
30001208:	e24bd004 	sub	sp, fp, #4	; 0x4
3000120c:	e8bd4800 	pop	{fp, lr}
30001210:	e12fff1e 	bx	lr
30001214:	cfffeea0 	.word	0xcfffeea0
30001218:	30000f00 	.word	0x30000f00
3000121c:	30009e54 	.word	0x30009e54
30001220:	30009e74 	.word	0x30009e74
	...

30001230 <__muldi3>:
30001230:	e92d0810 	push	{r4, fp}
30001234:	e28db004 	add	fp, sp, #4	; 0x4
30001238:	e24dd040 	sub	sp, sp, #64	; 0x40
3000123c:	e50b002c 	str	r0, [fp, #-44]
30001240:	e50b1028 	str	r1, [fp, #-40]
30001244:	e50b2034 	str	r2, [fp, #-52]
30001248:	e50b3030 	str	r3, [fp, #-48]
3000124c:	e24b402c 	sub	r4, fp, #44	; 0x2c
30001250:	e8940018 	ldm	r4, {r3, r4}
30001254:	e50b3014 	str	r3, [fp, #-20]
30001258:	e50b4010 	str	r4, [fp, #-16]
3000125c:	e24b4034 	sub	r4, fp, #52	; 0x34
30001260:	e8940018 	ldm	r4, {r3, r4}
30001264:	e50b301c 	str	r3, [fp, #-28]
30001268:	e50b4018 	str	r4, [fp, #-24]
3000126c:	e51b3014 	ldr	r3, [fp, #-20]
30001270:	e1a02003 	mov	r2, r3
30001274:	e51b301c 	ldr	r3, [fp, #-28]
30001278:	e1a01822 	lsr	r1, r2, #16
3000127c:	e1a00823 	lsr	r0, r3, #16
30001280:	e1c24801 	bic	r4, r2, r1, lsl #16
30001284:	e1c3c800 	bic	ip, r3, r0, lsl #16
30001288:	e0020c94 	mul	r2, r4, ip
3000128c:	e00c0c91 	mul	ip, r1, ip
30001290:	e0040490 	mul	r4, r0, r4
30001294:	e0000091 	mul	r0, r1, r0
30001298:	e09c4004 	adds	r4, ip, r4
3000129c:	22800801 	addcs	r0, r0, #65536	; 0x10000
300012a0:	e0922804 	adds	r2, r2, r4, lsl #16
300012a4:	e0a00824 	adc	r0, r0, r4, lsr #16
300012a8:	e1a03000 	mov	r3, r0
300012ac:	e50b3020 	str	r3, [fp, #-32]
300012b0:	e50b2024 	str	r2, [fp, #-36]
300012b4:	e24b4024 	sub	r4, fp, #36	; 0x24
300012b8:	e8940018 	ldm	r4, {r3, r4}
300012bc:	e50b300c 	str	r3, [fp, #-12]
300012c0:	e50b4008 	str	r4, [fp, #-8]
300012c4:	e51b3008 	ldr	r3, [fp, #-8]
300012c8:	e1a00003 	mov	r0, r3
300012cc:	e51b3014 	ldr	r3, [fp, #-20]
300012d0:	e1a02003 	mov	r2, r3
300012d4:	e51b3018 	ldr	r3, [fp, #-24]
300012d8:	e0010293 	mul	r1, r3, r2
300012dc:	e51b3010 	ldr	r3, [fp, #-16]
300012e0:	e1a02003 	mov	r2, r3
300012e4:	e51b301c 	ldr	r3, [fp, #-28]
300012e8:	e0030392 	mul	r3, r2, r3
300012ec:	e0813003 	add	r3, r1, r3
300012f0:	e0803003 	add	r3, r0, r3
300012f4:	e50b3008 	str	r3, [fp, #-8]
300012f8:	e24b400c 	sub	r4, fp, #12	; 0xc
300012fc:	e8940018 	ldm	r4, {r3, r4}
30001300:	e1a00003 	mov	r0, r3
30001304:	e1a01004 	mov	r1, r4
30001308:	e24bd004 	sub	sp, fp, #4	; 0x4
3000130c:	e8bd0810 	pop	{r4, fp}
30001310:	e12fff1e 	bx	lr

30001314 <printf>:
30001314:	e92d000f 	push	{r0, r1, r2, r3}
30001318:	e92d4810 	push	{r4, fp, lr}
3000131c:	e28db008 	add	fp, sp, #8	; 0x8
30001320:	e24dd01c 	sub	sp, sp, #28	; 0x1c
30001324:	e59f10b0 	ldr	r1, [pc, #176]	; 300013dc <printf+0xc8>
30001328:	e50b1020 	str	r1, [fp, #-32]
3000132c:	e51b2020 	ldr	r2, [fp, #-32]
30001330:	e08f2002 	add	r2, pc, r2
30001334:	e50b2020 	str	r2, [fp, #-32]
30001338:	e28b3004 	add	r3, fp, #4	; 0x4
3000133c:	e2833004 	add	r3, r3, #4	; 0x4
30001340:	e50b3010 	str	r3, [fp, #-16]
30001344:	e59b2004 	ldr	r2, [fp, #4]
30001348:	e59f3090 	ldr	r3, [pc, #144]	; 300013e0 <printf+0xcc>
3000134c:	e51b1020 	ldr	r1, [fp, #-32]
30001350:	e0813003 	add	r3, r1, r3
30001354:	e1a00003 	mov	r0, r3
30001358:	e1a01002 	mov	r1, r2
3000135c:	e51b2010 	ldr	r2, [fp, #-16]
30001360:	eb000ae6 	bl	30003f00 <vsprintf>
30001364:	e1a03000 	mov	r3, r0
30001368:	e50b3014 	str	r3, [fp, #-20]
3000136c:	e3a03000 	mov	r3, #0	; 0x0
30001370:	e50b3018 	str	r3, [fp, #-24]
30001374:	ea000009 	b	300013a0 <printf+0x8c>
30001378:	e51b2018 	ldr	r2, [fp, #-24]
3000137c:	e59f305c 	ldr	r3, [pc, #92]	; 300013e0 <printf+0xcc>
30001380:	e51b1020 	ldr	r1, [fp, #-32]
30001384:	e0813003 	add	r3, r1, r3
30001388:	e7d33002 	ldrb	r3, [r3, r2]
3000138c:	e1a00003 	mov	r0, r3
30001390:	ebfffe52 	bl	30000ce0 <put_c>
30001394:	e51b3018 	ldr	r3, [fp, #-24]
30001398:	e2833001 	add	r3, r3, #1	; 0x1
3000139c:	e50b3018 	str	r3, [fp, #-24]
300013a0:	e51b4018 	ldr	r4, [fp, #-24]
300013a4:	e59f3034 	ldr	r3, [pc, #52]	; 300013e0 <printf+0xcc>
300013a8:	e51b2020 	ldr	r2, [fp, #-32]
300013ac:	e0823003 	add	r3, r2, r3
300013b0:	e1a00003 	mov	r0, r3
300013b4:	eb000208 	bl	30001bdc <strlen>
300013b8:	e1a03000 	mov	r3, r0
300013bc:	e1540003 	cmp	r4, r3
300013c0:	3affffec 	bcc	30001378 <printf+0x64>
300013c4:	e51b3014 	ldr	r3, [fp, #-20]
300013c8:	e1a00003 	mov	r0, r3
300013cc:	e24bd008 	sub	sp, fp, #8	; 0x8
300013d0:	e8bd4810 	pop	{r4, fp, lr}
300013d4:	e28dd010 	add	sp, sp, #16	; 0x10
300013d8:	e12fff1e 	bx	lr
300013dc:	cfffecc8 	.word	0xcfffecc8
300013e0:	3000abc0 	.word	0x3000abc0

300013e4 <scanf>:
300013e4:	e92d000f 	push	{r0, r1, r2, r3}
300013e8:	e92d4800 	push	{fp, lr}
300013ec:	e28db004 	add	fp, sp, #4	; 0x4
300013f0:	e24dd018 	sub	sp, sp, #24	; 0x18
300013f4:	e59f00c4 	ldr	r0, [pc, #196]	; 300014c0 <scanf+0xdc>
300013f8:	e50b0018 	str	r0, [fp, #-24]
300013fc:	e51b1018 	ldr	r1, [fp, #-24]
30001400:	e08f1001 	add	r1, pc, r1
30001404:	e50b1018 	str	r1, [fp, #-24]
30001408:	e3a03000 	mov	r3, #0	; 0x0
3000140c:	e50b3010 	str	r3, [fp, #-16]
30001410:	ebfffe44 	bl	30000d28 <getc>
30001414:	e1a03000 	mov	r3, r0
30001418:	e54b3009 	strb	r3, [fp, #-9]
3000141c:	e55b3009 	ldrb	r3, [fp, #-9]
30001420:	e353000d 	cmp	r3, #13	; 0xd
30001424:	0a000002 	beq	30001434 <scanf+0x50>
30001428:	e55b3009 	ldrb	r3, [fp, #-9]
3000142c:	e353000a 	cmp	r3, #10	; 0xa
30001430:	1a000018 	bne	30001498 <scanf+0xb4>
30001434:	e51b1010 	ldr	r1, [fp, #-16]
30001438:	e59f3084 	ldr	r3, [pc, #132]	; 300014c4 <scanf+0xe0>
3000143c:	e51b0018 	ldr	r0, [fp, #-24]
30001440:	e0802003 	add	r2, r0, r3
30001444:	e3a03000 	mov	r3, #0	; 0x0
30001448:	e7c23001 	strb	r3, [r2, r1]
3000144c:	e28b3004 	add	r3, fp, #4	; 0x4
30001450:	e2833004 	add	r3, r3, #4	; 0x4
30001454:	e50b3008 	str	r3, [fp, #-8]
30001458:	e59b2004 	ldr	r2, [fp, #4]
3000145c:	e59f3060 	ldr	r3, [pc, #96]	; 300014c4 <scanf+0xe0>
30001460:	e51b1018 	ldr	r1, [fp, #-24]
30001464:	e0813003 	add	r3, r1, r3
30001468:	e1a00003 	mov	r0, r3
3000146c:	e1a01002 	mov	r1, r2
30001470:	e51b2008 	ldr	r2, [fp, #-8]
30001474:	eb000ac6 	bl	30003f94 <vsscanf>
30001478:	e1a03000 	mov	r3, r0
3000147c:	e50b3010 	str	r3, [fp, #-16]
30001480:	e51b3010 	ldr	r3, [fp, #-16]
30001484:	e1a00003 	mov	r0, r3
30001488:	e24bd004 	sub	sp, fp, #4	; 0x4
3000148c:	e8bd4800 	pop	{fp, lr}
30001490:	e28dd010 	add	sp, sp, #16	; 0x10
30001494:	e12fff1e 	bx	lr
30001498:	e51b1010 	ldr	r1, [fp, #-16]
3000149c:	e59f3020 	ldr	r3, [pc, #32]	; 300014c4 <scanf+0xe0>
300014a0:	e51b0018 	ldr	r0, [fp, #-24]
300014a4:	e0802003 	add	r2, r0, r3
300014a8:	e55b3009 	ldrb	r3, [fp, #-9]
300014ac:	e7c23001 	strb	r3, [r2, r1]
300014b0:	e51b3010 	ldr	r3, [fp, #-16]
300014b4:	e2833001 	add	r3, r3, #1	; 0x1
300014b8:	e50b3010 	str	r3, [fp, #-16]
300014bc:	eaffffd3 	b	30001410 <scanf+0x2c>
300014c0:	cfffebf8 	.word	0xcfffebf8
300014c4:	3000afc0 	.word	0x3000afc0

300014c8 <puts>:
300014c8:	e92d4800 	push	{fp, lr}
300014cc:	e28db004 	add	fp, sp, #4	; 0x4
300014d0:	e24dd010 	sub	sp, sp, #16	; 0x10
300014d4:	e50b0010 	str	r0, [fp, #-16]
300014d8:	e3a03000 	mov	r3, #0	; 0x0
300014dc:	e50b3008 	str	r3, [fp, #-8]
300014e0:	ea000009 	b	3000150c <puts+0x44>
300014e4:	e51b3010 	ldr	r3, [fp, #-16]
300014e8:	e5d33000 	ldrb	r3, [r3]
300014ec:	e1a00003 	mov	r0, r3
300014f0:	ebfffdfa 	bl	30000ce0 <put_c>
300014f4:	e51b3010 	ldr	r3, [fp, #-16]
300014f8:	e2833001 	add	r3, r3, #1	; 0x1
300014fc:	e50b3010 	str	r3, [fp, #-16]
30001500:	e51b3008 	ldr	r3, [fp, #-8]
30001504:	e2833001 	add	r3, r3, #1	; 0x1
30001508:	e50b3008 	str	r3, [fp, #-8]
3000150c:	e51b3010 	ldr	r3, [fp, #-16]
30001510:	e5d33000 	ldrb	r3, [r3]
30001514:	e3530000 	cmp	r3, #0	; 0x0
30001518:	1afffff1 	bne	300014e4 <puts+0x1c>
3000151c:	e3a0000a 	mov	r0, #10	; 0xa
30001520:	ebfffdee 	bl	30000ce0 <put_c>
30001524:	e3a0000d 	mov	r0, #13	; 0xd
30001528:	ebfffdec 	bl	30000ce0 <put_c>
3000152c:	e51b3008 	ldr	r3, [fp, #-8]
30001530:	e2833002 	add	r3, r3, #2	; 0x2
30001534:	e1a00003 	mov	r0, r3
30001538:	e24bd004 	sub	sp, fp, #4	; 0x4
3000153c:	e8bd4800 	pop	{fp, lr}
30001540:	e12fff1e 	bx	lr

30001544 <putchar>:
30001544:	e92d4800 	push	{fp, lr}
30001548:	e28db004 	add	fp, sp, #4	; 0x4
3000154c:	e24dd008 	sub	sp, sp, #8	; 0x8
30001550:	e50b0008 	str	r0, [fp, #-8]
30001554:	e51b3008 	ldr	r3, [fp, #-8]
30001558:	e20330ff 	and	r3, r3, #255	; 0xff
3000155c:	e1a00003 	mov	r0, r3
30001560:	ebfffdde 	bl	30000ce0 <put_c>
30001564:	e51b3008 	ldr	r3, [fp, #-8]
30001568:	e1a00003 	mov	r0, r3
3000156c:	e24bd004 	sub	sp, fp, #4	; 0x4
30001570:	e8bd4800 	pop	{fp, lr}
30001574:	e12fff1e 	bx	lr

30001578 <strnicmp>:
30001578:	e92d4800 	push	{fp, lr}
3000157c:	e28db004 	add	fp, sp, #4	; 0x4
30001580:	e24dd018 	sub	sp, sp, #24	; 0x18
30001584:	e50b0010 	str	r0, [fp, #-16]
30001588:	e50b1014 	str	r1, [fp, #-20]
3000158c:	e50b2018 	str	r2, [fp, #-24]
30001590:	e3a03000 	mov	r3, #0	; 0x0
30001594:	e54b3006 	strb	r3, [fp, #-6]
30001598:	e3a03000 	mov	r3, #0	; 0x0
3000159c:	e54b3005 	strb	r3, [fp, #-5]
300015a0:	e51b3018 	ldr	r3, [fp, #-24]
300015a4:	e3530000 	cmp	r3, #0	; 0x0
300015a8:	0a000029 	beq	30001654 <strnicmp+0xdc>
300015ac:	e51b3010 	ldr	r3, [fp, #-16]
300015b0:	e5d33000 	ldrb	r3, [r3]
300015b4:	e54b3006 	strb	r3, [fp, #-6]
300015b8:	e51b3014 	ldr	r3, [fp, #-20]
300015bc:	e5d33000 	ldrb	r3, [r3]
300015c0:	e54b3005 	strb	r3, [fp, #-5]
300015c4:	e51b3010 	ldr	r3, [fp, #-16]
300015c8:	e2833001 	add	r3, r3, #1	; 0x1
300015cc:	e50b3010 	str	r3, [fp, #-16]
300015d0:	e51b3014 	ldr	r3, [fp, #-20]
300015d4:	e2833001 	add	r3, r3, #1	; 0x1
300015d8:	e50b3014 	str	r3, [fp, #-20]
300015dc:	e55b3006 	ldrb	r3, [fp, #-6]
300015e0:	e3530000 	cmp	r3, #0	; 0x0
300015e4:	0a00001a 	beq	30001654 <strnicmp+0xdc>
300015e8:	e55b3005 	ldrb	r3, [fp, #-5]
300015ec:	e3530000 	cmp	r3, #0	; 0x0
300015f0:	0a000017 	beq	30001654 <strnicmp+0xdc>
300015f4:	e55b2006 	ldrb	r2, [fp, #-6]
300015f8:	e55b3005 	ldrb	r3, [fp, #-5]
300015fc:	e1520003 	cmp	r2, r3
30001600:	0a00000d 	beq	3000163c <strnicmp+0xc4>
30001604:	e55b3006 	ldrb	r3, [fp, #-6]
30001608:	e1a00003 	mov	r0, r3
3000160c:	eb000017 	bl	30001670 <__tolower>
30001610:	e1a03000 	mov	r3, r0
30001614:	e54b3006 	strb	r3, [fp, #-6]
30001618:	e55b3005 	ldrb	r3, [fp, #-5]
3000161c:	e1a00003 	mov	r0, r3
30001620:	eb000012 	bl	30001670 <__tolower>
30001624:	e1a03000 	mov	r3, r0
30001628:	e54b3005 	strb	r3, [fp, #-5]
3000162c:	e55b2006 	ldrb	r2, [fp, #-6]
30001630:	e55b3005 	ldrb	r3, [fp, #-5]
30001634:	e1520003 	cmp	r2, r3
30001638:	1a000005 	bne	30001654 <strnicmp+0xdc>
3000163c:	e51b3018 	ldr	r3, [fp, #-24]
30001640:	e2433001 	sub	r3, r3, #1	; 0x1
30001644:	e50b3018 	str	r3, [fp, #-24]
30001648:	e51b3018 	ldr	r3, [fp, #-24]
3000164c:	e3530000 	cmp	r3, #0	; 0x0
30001650:	1affffd5 	bne	300015ac <strnicmp+0x34>
30001654:	e55b2006 	ldrb	r2, [fp, #-6]
30001658:	e55b3005 	ldrb	r3, [fp, #-5]
3000165c:	e0633002 	rsb	r3, r3, r2
30001660:	e1a00003 	mov	r0, r3
30001664:	e24bd004 	sub	sp, fp, #4	; 0x4
30001668:	e8bd4800 	pop	{fp, lr}
3000166c:	e12fff1e 	bx	lr

30001670 <__tolower>:
30001670:	e52db004 	push	{fp}		; (str fp, [sp, #-4]!)
30001674:	e28db000 	add	fp, sp, #0	; 0x0
30001678:	e24dd00c 	sub	sp, sp, #12	; 0xc
3000167c:	e59f2048 	ldr	r2, [pc, #72]	; 300016cc <__tolower+0x5c>
30001680:	e08f2002 	add	r2, pc, r2
30001684:	e1a03000 	mov	r3, r0
30001688:	e54b3005 	strb	r3, [fp, #-5]
3000168c:	e55b1005 	ldrb	r1, [fp, #-5]
30001690:	e59f3038 	ldr	r3, [pc, #56]	; 300016d0 <__tolower+0x60>
30001694:	e7923003 	ldr	r3, [r2, r3]
30001698:	e7d33001 	ldrb	r3, [r3, r1]
3000169c:	e2033001 	and	r3, r3, #1	; 0x1
300016a0:	e20330ff 	and	r3, r3, #255	; 0xff
300016a4:	e3530000 	cmp	r3, #0	; 0x0
300016a8:	0a000002 	beq	300016b8 <__tolower+0x48>
300016ac:	e55b3005 	ldrb	r3, [fp, #-5]
300016b0:	e2833020 	add	r3, r3, #32	; 0x20
300016b4:	e54b3005 	strb	r3, [fp, #-5]
300016b8:	e55b3005 	ldrb	r3, [fp, #-5]
300016bc:	e1a00003 	mov	r0, r3
300016c0:	e28bd000 	add	sp, fp, #0	; 0x0
300016c4:	e8bd0800 	pop	{fp}
300016c8:	e12fff1e 	bx	lr
300016cc:	cfffe978 	.word	0xcfffe978
300016d0:	00000580 	.word	0x00000580

300016d4 <strcpy>:
300016d4:	e52db004 	push	{fp}		; (str fp, [sp, #-4]!)
300016d8:	e28db000 	add	fp, sp, #0	; 0x0
300016dc:	e24dd014 	sub	sp, sp, #20	; 0x14
300016e0:	e50b0010 	str	r0, [fp, #-16]
300016e4:	e50b1014 	str	r1, [fp, #-20]
300016e8:	e51b3010 	ldr	r3, [fp, #-16]
300016ec:	e50b3008 	str	r3, [fp, #-8]
300016f0:	e51b3014 	ldr	r3, [fp, #-20]
300016f4:	e5d33000 	ldrb	r3, [r3]
300016f8:	e51b2010 	ldr	r2, [fp, #-16]
300016fc:	e5c23000 	strb	r3, [r2]
30001700:	e51b3010 	ldr	r3, [fp, #-16]
30001704:	e5d33000 	ldrb	r3, [r3]
30001708:	e3530000 	cmp	r3, #0	; 0x0
3000170c:	03a03000 	moveq	r3, #0	; 0x0
30001710:	13a03001 	movne	r3, #1	; 0x1
30001714:	e20320ff 	and	r2, r3, #255	; 0xff
30001718:	e51b3010 	ldr	r3, [fp, #-16]
3000171c:	e2833001 	add	r3, r3, #1	; 0x1
30001720:	e50b3010 	str	r3, [fp, #-16]
30001724:	e51b3014 	ldr	r3, [fp, #-20]
30001728:	e2833001 	add	r3, r3, #1	; 0x1
3000172c:	e50b3014 	str	r3, [fp, #-20]
30001730:	e3520000 	cmp	r2, #0	; 0x0
30001734:	1affffed 	bne	300016f0 <strcpy+0x1c>
30001738:	e51b3008 	ldr	r3, [fp, #-8]
3000173c:	e1a00003 	mov	r0, r3
30001740:	e28bd000 	add	sp, fp, #0	; 0x0
30001744:	e8bd0800 	pop	{fp}
30001748:	e12fff1e 	bx	lr

3000174c <strncpy>:
3000174c:	e52db004 	push	{fp}		; (str fp, [sp, #-4]!)
30001750:	e28db000 	add	fp, sp, #0	; 0x0
30001754:	e24dd01c 	sub	sp, sp, #28	; 0x1c
30001758:	e50b0010 	str	r0, [fp, #-16]
3000175c:	e50b1014 	str	r1, [fp, #-20]
30001760:	e50b2018 	str	r2, [fp, #-24]
30001764:	e51b3010 	ldr	r3, [fp, #-16]
30001768:	e50b3008 	str	r3, [fp, #-8]
3000176c:	e51b3018 	ldr	r3, [fp, #-24]
30001770:	e3530000 	cmp	r3, #0	; 0x0
30001774:	03a03000 	moveq	r3, #0	; 0x0
30001778:	13a03001 	movne	r3, #1	; 0x1
3000177c:	e20320ff 	and	r2, r3, #255	; 0xff
30001780:	e51b3018 	ldr	r3, [fp, #-24]
30001784:	e2433001 	sub	r3, r3, #1	; 0x1
30001788:	e50b3018 	str	r3, [fp, #-24]
3000178c:	e2223001 	eor	r3, r2, #1	; 0x1
30001790:	e20330ff 	and	r3, r3, #255	; 0xff
30001794:	e3530000 	cmp	r3, #0	; 0x0
30001798:	1a000011 	bne	300017e4 <strncpy+0x98>
3000179c:	e51b3014 	ldr	r3, [fp, #-20]
300017a0:	e5d33000 	ldrb	r3, [r3]
300017a4:	e51b2010 	ldr	r2, [fp, #-16]
300017a8:	e5c23000 	strb	r3, [r2]
300017ac:	e51b3010 	ldr	r3, [fp, #-16]
300017b0:	e5d33000 	ldrb	r3, [r3]
300017b4:	e3530000 	cmp	r3, #0	; 0x0
300017b8:	03a03000 	moveq	r3, #0	; 0x0
300017bc:	13a03001 	movne	r3, #1	; 0x1
300017c0:	e20320ff 	and	r2, r3, #255	; 0xff
300017c4:	e51b3010 	ldr	r3, [fp, #-16]
300017c8:	e2833001 	add	r3, r3, #1	; 0x1
300017cc:	e50b3010 	str	r3, [fp, #-16]
300017d0:	e51b3014 	ldr	r3, [fp, #-20]
300017d4:	e2833001 	add	r3, r3, #1	; 0x1
300017d8:	e50b3014 	str	r3, [fp, #-20]
300017dc:	e3520000 	cmp	r2, #0	; 0x0
300017e0:	1affffe1 	bne	3000176c <strncpy+0x20>
300017e4:	e51b3008 	ldr	r3, [fp, #-8]
300017e8:	e1a00003 	mov	r0, r3
300017ec:	e28bd000 	add	sp, fp, #0	; 0x0
300017f0:	e8bd0800 	pop	{fp}
300017f4:	e12fff1e 	bx	lr

300017f8 <strcat>:
300017f8:	e52db004 	push	{fp}		; (str fp, [sp, #-4]!)
300017fc:	e28db000 	add	fp, sp, #0	; 0x0
30001800:	e24dd014 	sub	sp, sp, #20	; 0x14
30001804:	e50b0010 	str	r0, [fp, #-16]
30001808:	e50b1014 	str	r1, [fp, #-20]
3000180c:	e51b3010 	ldr	r3, [fp, #-16]
30001810:	e50b3008 	str	r3, [fp, #-8]
30001814:	ea000002 	b	30001824 <strcat+0x2c>
30001818:	e51b3010 	ldr	r3, [fp, #-16]
3000181c:	e2833001 	add	r3, r3, #1	; 0x1
30001820:	e50b3010 	str	r3, [fp, #-16]
30001824:	e51b3010 	ldr	r3, [fp, #-16]
30001828:	e5d33000 	ldrb	r3, [r3]
3000182c:	e3530000 	cmp	r3, #0	; 0x0
30001830:	1afffff8 	bne	30001818 <strcat+0x20>
30001834:	e51b3014 	ldr	r3, [fp, #-20]
30001838:	e5d33000 	ldrb	r3, [r3]
3000183c:	e51b2010 	ldr	r2, [fp, #-16]
30001840:	e5c23000 	strb	r3, [r2]
30001844:	e51b3010 	ldr	r3, [fp, #-16]
30001848:	e5d33000 	ldrb	r3, [r3]
3000184c:	e3530000 	cmp	r3, #0	; 0x0
30001850:	03a03000 	moveq	r3, #0	; 0x0
30001854:	13a03001 	movne	r3, #1	; 0x1
30001858:	e20320ff 	and	r2, r3, #255	; 0xff
3000185c:	e51b3010 	ldr	r3, [fp, #-16]
30001860:	e2833001 	add	r3, r3, #1	; 0x1
30001864:	e50b3010 	str	r3, [fp, #-16]
30001868:	e51b3014 	ldr	r3, [fp, #-20]
3000186c:	e2833001 	add	r3, r3, #1	; 0x1
30001870:	e50b3014 	str	r3, [fp, #-20]
30001874:	e3520000 	cmp	r2, #0	; 0x0
30001878:	1affffed 	bne	30001834 <strcat+0x3c>
3000187c:	e51b3008 	ldr	r3, [fp, #-8]
30001880:	e1a00003 	mov	r0, r3
30001884:	e28bd000 	add	sp, fp, #0	; 0x0
30001888:	e8bd0800 	pop	{fp}
3000188c:	e12fff1e 	bx	lr

30001890 <strncat>:
30001890:	e52db004 	push	{fp}		; (str fp, [sp, #-4]!)
30001894:	e28db000 	add	fp, sp, #0	; 0x0
30001898:	e24dd01c 	sub	sp, sp, #28	; 0x1c
3000189c:	e50b0010 	str	r0, [fp, #-16]
300018a0:	e50b1014 	str	r1, [fp, #-20]
300018a4:	e50b2018 	str	r2, [fp, #-24]
300018a8:	e51b3010 	ldr	r3, [fp, #-16]
300018ac:	e50b3008 	str	r3, [fp, #-8]
300018b0:	e51b3018 	ldr	r3, [fp, #-24]
300018b4:	e3530000 	cmp	r3, #0	; 0x0
300018b8:	0a000024 	beq	30001950 <strncat+0xc0>
300018bc:	ea000002 	b	300018cc <strncat+0x3c>
300018c0:	e51b3010 	ldr	r3, [fp, #-16]
300018c4:	e2833001 	add	r3, r3, #1	; 0x1
300018c8:	e50b3010 	str	r3, [fp, #-16]
300018cc:	e51b3010 	ldr	r3, [fp, #-16]
300018d0:	e5d33000 	ldrb	r3, [r3]
300018d4:	e3530000 	cmp	r3, #0	; 0x0
300018d8:	1afffff8 	bne	300018c0 <strncat+0x30>
300018dc:	ea000009 	b	30001908 <strncat+0x78>
300018e0:	e51b3018 	ldr	r3, [fp, #-24]
300018e4:	e2433001 	sub	r3, r3, #1	; 0x1
300018e8:	e50b3018 	str	r3, [fp, #-24]
300018ec:	e51b3018 	ldr	r3, [fp, #-24]
300018f0:	e3530000 	cmp	r3, #0	; 0x0
300018f4:	1a000003 	bne	30001908 <strncat+0x78>
300018f8:	e51b3010 	ldr	r3, [fp, #-16]
300018fc:	e3a02000 	mov	r2, #0	; 0x0
30001900:	e5c32000 	strb	r2, [r3]
30001904:	ea000011 	b	30001950 <strncat+0xc0>
30001908:	e51b3014 	ldr	r3, [fp, #-20]
3000190c:	e5d33000 	ldrb	r3, [r3]
30001910:	e51b2010 	ldr	r2, [fp, #-16]
30001914:	e5c23000 	strb	r3, [r2]
30001918:	e51b3010 	ldr	r3, [fp, #-16]
3000191c:	e5d33000 	ldrb	r3, [r3]
30001920:	e3530000 	cmp	r3, #0	; 0x0
30001924:	03a03000 	moveq	r3, #0	; 0x0
30001928:	13a03001 	movne	r3, #1	; 0x1
3000192c:	e20320ff 	and	r2, r3, #255	; 0xff
30001930:	e51b3010 	ldr	r3, [fp, #-16]
30001934:	e2833001 	add	r3, r3, #1	; 0x1
30001938:	e50b3010 	str	r3, [fp, #-16]
3000193c:	e51b3014 	ldr	r3, [fp, #-20]
30001940:	e2833001 	add	r3, r3, #1	; 0x1
30001944:	e50b3014 	str	r3, [fp, #-20]
30001948:	e3520000 	cmp	r2, #0	; 0x0
3000194c:	1affffe3 	bne	300018e0 <strncat+0x50>
30001950:	e51b3008 	ldr	r3, [fp, #-8]
30001954:	e1a00003 	mov	r0, r3
30001958:	e28bd000 	add	sp, fp, #0	; 0x0
3000195c:	e8bd0800 	pop	{fp}
30001960:	e12fff1e 	bx	lr

30001964 <strcmp>:
30001964:	e52db004 	push	{fp}		; (str fp, [sp, #-4]!)
30001968:	e28db000 	add	fp, sp, #0	; 0x0
3000196c:	e24dd014 	sub	sp, sp, #20	; 0x14
30001970:	e50b0008 	str	r0, [fp, #-8]
30001974:	e50b100c 	str	r1, [fp, #-12]
30001978:	e51b3008 	ldr	r3, [fp, #-8]
3000197c:	e5d32000 	ldrb	r2, [r3]
30001980:	e51b300c 	ldr	r3, [fp, #-12]
30001984:	e5d33000 	ldrb	r3, [r3]
30001988:	e0633002 	rsb	r3, r3, r2
3000198c:	e20330ff 	and	r3, r3, #255	; 0xff
30001990:	e50b3010 	str	r3, [fp, #-16]
30001994:	e51b2010 	ldr	r2, [fp, #-16]
30001998:	e1a03c02 	lsl	r3, r2, #24
3000199c:	e1a03c43 	asr	r3, r3, #24
300019a0:	e3530000 	cmp	r3, #0	; 0x0
300019a4:	03a03000 	moveq	r3, #0	; 0x0
300019a8:	13a03001 	movne	r3, #1	; 0x1
300019ac:	e20320ff 	and	r2, r3, #255	; 0xff
300019b0:	e51b300c 	ldr	r3, [fp, #-12]
300019b4:	e2833001 	add	r3, r3, #1	; 0x1
300019b8:	e50b300c 	str	r3, [fp, #-12]
300019bc:	e3520000 	cmp	r2, #0	; 0x0
300019c0:	1a00000a 	bne	300019f0 <strcmp+0x8c>
300019c4:	e51b3008 	ldr	r3, [fp, #-8]
300019c8:	e5d33000 	ldrb	r3, [r3]
300019cc:	e3530000 	cmp	r3, #0	; 0x0
300019d0:	13a03000 	movne	r3, #0	; 0x0
300019d4:	03a03001 	moveq	r3, #1	; 0x1
300019d8:	e20320ff 	and	r2, r3, #255	; 0xff
300019dc:	e51b3008 	ldr	r3, [fp, #-8]
300019e0:	e2833001 	add	r3, r3, #1	; 0x1
300019e4:	e50b3008 	str	r3, [fp, #-8]
300019e8:	e3520000 	cmp	r2, #0	; 0x0
300019ec:	0affffe1 	beq	30001978 <strcmp+0x14>
300019f0:	e51b2010 	ldr	r2, [fp, #-16]
300019f4:	e1a03c02 	lsl	r3, r2, #24
300019f8:	e1a03c43 	asr	r3, r3, #24
300019fc:	e1a00003 	mov	r0, r3
30001a00:	e28bd000 	add	sp, fp, #0	; 0x0
30001a04:	e8bd0800 	pop	{fp}
30001a08:	e12fff1e 	bx	lr

30001a0c <strncmp>:
30001a0c:	e52db004 	push	{fp}		; (str fp, [sp, #-4]!)
30001a10:	e28db000 	add	fp, sp, #0	; 0x0
30001a14:	e24dd014 	sub	sp, sp, #20	; 0x14
30001a18:	e50b0008 	str	r0, [fp, #-8]
30001a1c:	e50b100c 	str	r1, [fp, #-12]
30001a20:	e50b2010 	str	r2, [fp, #-16]
30001a24:	e3a02000 	mov	r2, #0	; 0x0
30001a28:	e50b2014 	str	r2, [fp, #-20]
30001a2c:	ea000020 	b	30001ab4 <strncmp+0xa8>
30001a30:	e51b3008 	ldr	r3, [fp, #-8]
30001a34:	e5d32000 	ldrb	r2, [r3]
30001a38:	e51b300c 	ldr	r3, [fp, #-12]
30001a3c:	e5d33000 	ldrb	r3, [r3]
30001a40:	e0633002 	rsb	r3, r3, r2
30001a44:	e20330ff 	and	r3, r3, #255	; 0xff
30001a48:	e50b3014 	str	r3, [fp, #-20]
30001a4c:	e51b2014 	ldr	r2, [fp, #-20]
30001a50:	e1a03c02 	lsl	r3, r2, #24
30001a54:	e1a03c43 	asr	r3, r3, #24
30001a58:	e3530000 	cmp	r3, #0	; 0x0
30001a5c:	03a03000 	moveq	r3, #0	; 0x0
30001a60:	13a03001 	movne	r3, #1	; 0x1
30001a64:	e20320ff 	and	r2, r3, #255	; 0xff
30001a68:	e51b300c 	ldr	r3, [fp, #-12]
30001a6c:	e2833001 	add	r3, r3, #1	; 0x1
30001a70:	e50b300c 	str	r3, [fp, #-12]
30001a74:	e3520000 	cmp	r2, #0	; 0x0
30001a78:	1a000010 	bne	30001ac0 <strncmp+0xb4>
30001a7c:	e51b3008 	ldr	r3, [fp, #-8]
30001a80:	e5d33000 	ldrb	r3, [r3]
30001a84:	e3530000 	cmp	r3, #0	; 0x0
30001a88:	13a03000 	movne	r3, #0	; 0x0
30001a8c:	03a03001 	moveq	r3, #1	; 0x1
30001a90:	e20320ff 	and	r2, r3, #255	; 0xff
30001a94:	e51b3008 	ldr	r3, [fp, #-8]
30001a98:	e2833001 	add	r3, r3, #1	; 0x1
30001a9c:	e50b3008 	str	r3, [fp, #-8]
30001aa0:	e3520000 	cmp	r2, #0	; 0x0
30001aa4:	1a000005 	bne	30001ac0 <strncmp+0xb4>
30001aa8:	e51b3010 	ldr	r3, [fp, #-16]
30001aac:	e2433001 	sub	r3, r3, #1	; 0x1
30001ab0:	e50b3010 	str	r3, [fp, #-16]
30001ab4:	e51b3010 	ldr	r3, [fp, #-16]
30001ab8:	e3530000 	cmp	r3, #0	; 0x0
30001abc:	1affffdb 	bne	30001a30 <strncmp+0x24>
30001ac0:	e51b2014 	ldr	r2, [fp, #-20]
30001ac4:	e1a03c02 	lsl	r3, r2, #24
30001ac8:	e1a03c43 	asr	r3, r3, #24
30001acc:	e1a00003 	mov	r0, r3
30001ad0:	e28bd000 	add	sp, fp, #0	; 0x0
30001ad4:	e8bd0800 	pop	{fp}
30001ad8:	e12fff1e 	bx	lr

30001adc <strchr>:
30001adc:	e52db004 	push	{fp}		; (str fp, [sp, #-4]!)
30001ae0:	e28db000 	add	fp, sp, #0	; 0x0
30001ae4:	e24dd014 	sub	sp, sp, #20	; 0x14
30001ae8:	e50b0008 	str	r0, [fp, #-8]
30001aec:	e50b100c 	str	r1, [fp, #-12]
30001af0:	ea000009 	b	30001b1c <strchr+0x40>
30001af4:	e51b3008 	ldr	r3, [fp, #-8]
30001af8:	e5d33000 	ldrb	r3, [r3]
30001afc:	e3530000 	cmp	r3, #0	; 0x0
30001b00:	1a000002 	bne	30001b10 <strchr+0x34>
30001b04:	e3a03000 	mov	r3, #0	; 0x0
30001b08:	e50b3010 	str	r3, [fp, #-16]
30001b0c:	ea00000a 	b	30001b3c <strchr+0x60>
30001b10:	e51b3008 	ldr	r3, [fp, #-8]
30001b14:	e2833001 	add	r3, r3, #1	; 0x1
30001b18:	e50b3008 	str	r3, [fp, #-8]
30001b1c:	e51b3008 	ldr	r3, [fp, #-8]
30001b20:	e5d32000 	ldrb	r2, [r3]
30001b24:	e51b300c 	ldr	r3, [fp, #-12]
30001b28:	e20330ff 	and	r3, r3, #255	; 0xff
30001b2c:	e1520003 	cmp	r2, r3
30001b30:	1affffef 	bne	30001af4 <strchr+0x18>
30001b34:	e51b3008 	ldr	r3, [fp, #-8]
30001b38:	e50b3010 	str	r3, [fp, #-16]
30001b3c:	e51b3010 	ldr	r3, [fp, #-16]
30001b40:	e1a00003 	mov	r0, r3
30001b44:	e28bd000 	add	sp, fp, #0	; 0x0
30001b48:	e8bd0800 	pop	{fp}
30001b4c:	e12fff1e 	bx	lr

30001b50 <strrchr>:
30001b50:	e92d4800 	push	{fp, lr}
30001b54:	e28db004 	add	fp, sp, #4	; 0x4
30001b58:	e24dd018 	sub	sp, sp, #24	; 0x18
30001b5c:	e50b0010 	str	r0, [fp, #-16]
30001b60:	e50b1014 	str	r1, [fp, #-20]
30001b64:	e51b0010 	ldr	r0, [fp, #-16]
30001b68:	eb00001b 	bl	30001bdc <strlen>
30001b6c:	e1a03000 	mov	r3, r0
30001b70:	e1a02003 	mov	r2, r3
30001b74:	e51b3010 	ldr	r3, [fp, #-16]
30001b78:	e0833002 	add	r3, r3, r2
30001b7c:	e50b3008 	str	r3, [fp, #-8]
30001b80:	e51b3008 	ldr	r3, [fp, #-8]
30001b84:	e5d32000 	ldrb	r2, [r3]
30001b88:	e51b3014 	ldr	r3, [fp, #-20]
30001b8c:	e20330ff 	and	r3, r3, #255	; 0xff
30001b90:	e1520003 	cmp	r2, r3
30001b94:	1a000002 	bne	30001ba4 <strrchr+0x54>
30001b98:	e51b3008 	ldr	r3, [fp, #-8]
30001b9c:	e50b3018 	str	r3, [fp, #-24]
30001ba0:	ea000008 	b	30001bc8 <strrchr+0x78>
30001ba4:	e51b3008 	ldr	r3, [fp, #-8]
30001ba8:	e2433001 	sub	r3, r3, #1	; 0x1
30001bac:	e50b3008 	str	r3, [fp, #-8]
30001bb0:	e51b2008 	ldr	r2, [fp, #-8]
30001bb4:	e51b3010 	ldr	r3, [fp, #-16]
30001bb8:	e1520003 	cmp	r2, r3
30001bbc:	2affffef 	bcs	30001b80 <strrchr+0x30>
30001bc0:	e3a03000 	mov	r3, #0	; 0x0
30001bc4:	e50b3018 	str	r3, [fp, #-24]
30001bc8:	e51b3018 	ldr	r3, [fp, #-24]
30001bcc:	e1a00003 	mov	r0, r3
30001bd0:	e24bd004 	sub	sp, fp, #4	; 0x4
30001bd4:	e8bd4800 	pop	{fp, lr}
30001bd8:	e12fff1e 	bx	lr

30001bdc <strlen>:
30001bdc:	e52db004 	push	{fp}		; (str fp, [sp, #-4]!)
30001be0:	e28db000 	add	fp, sp, #0	; 0x0
30001be4:	e24dd014 	sub	sp, sp, #20	; 0x14
30001be8:	e50b0010 	str	r0, [fp, #-16]
30001bec:	e51b3010 	ldr	r3, [fp, #-16]
30001bf0:	e50b3008 	str	r3, [fp, #-8]
30001bf4:	ea000002 	b	30001c04 <strlen+0x28>
30001bf8:	e51b3008 	ldr	r3, [fp, #-8]
30001bfc:	e2833001 	add	r3, r3, #1	; 0x1
30001c00:	e50b3008 	str	r3, [fp, #-8]
30001c04:	e51b3008 	ldr	r3, [fp, #-8]
30001c08:	e5d33000 	ldrb	r3, [r3]
30001c0c:	e3530000 	cmp	r3, #0	; 0x0
30001c10:	1afffff8 	bne	30001bf8 <strlen+0x1c>
30001c14:	e51b2008 	ldr	r2, [fp, #-8]
30001c18:	e51b3010 	ldr	r3, [fp, #-16]
30001c1c:	e0633002 	rsb	r3, r3, r2
30001c20:	e1a00003 	mov	r0, r3
30001c24:	e28bd000 	add	sp, fp, #0	; 0x0
30001c28:	e8bd0800 	pop	{fp}
30001c2c:	e12fff1e 	bx	lr

30001c30 <strnlen>:
30001c30:	e52db004 	push	{fp}		; (str fp, [sp, #-4]!)
30001c34:	e28db000 	add	fp, sp, #0	; 0x0
30001c38:	e24dd014 	sub	sp, sp, #20	; 0x14
30001c3c:	e50b0010 	str	r0, [fp, #-16]
30001c40:	e50b1014 	str	r1, [fp, #-20]
30001c44:	e51b3010 	ldr	r3, [fp, #-16]
30001c48:	e50b3008 	str	r3, [fp, #-8]
30001c4c:	ea000002 	b	30001c5c <strnlen+0x2c>
30001c50:	e51b3008 	ldr	r3, [fp, #-8]
30001c54:	e2833001 	add	r3, r3, #1	; 0x1
30001c58:	e50b3008 	str	r3, [fp, #-8]
30001c5c:	e51b3014 	ldr	r3, [fp, #-20]
30001c60:	e3530000 	cmp	r3, #0	; 0x0
30001c64:	03a03000 	moveq	r3, #0	; 0x0
30001c68:	13a03001 	movne	r3, #1	; 0x1
30001c6c:	e20320ff 	and	r2, r3, #255	; 0xff
30001c70:	e51b3014 	ldr	r3, [fp, #-20]
30001c74:	e2433001 	sub	r3, r3, #1	; 0x1
30001c78:	e50b3014 	str	r3, [fp, #-20]
30001c7c:	e2223001 	eor	r3, r2, #1	; 0x1
30001c80:	e20330ff 	and	r3, r3, #255	; 0xff
30001c84:	e3530000 	cmp	r3, #0	; 0x0
30001c88:	1a000003 	bne	30001c9c <strnlen+0x6c>
30001c8c:	e51b3008 	ldr	r3, [fp, #-8]
30001c90:	e5d33000 	ldrb	r3, [r3]
30001c94:	e3530000 	cmp	r3, #0	; 0x0
30001c98:	1affffec 	bne	30001c50 <strnlen+0x20>
30001c9c:	e51b2008 	ldr	r2, [fp, #-8]
30001ca0:	e51b3010 	ldr	r3, [fp, #-16]
30001ca4:	e0633002 	rsb	r3, r3, r2
30001ca8:	e1a00003 	mov	r0, r3
30001cac:	e28bd000 	add	sp, fp, #0	; 0x0
30001cb0:	e8bd0800 	pop	{fp}
30001cb4:	e12fff1e 	bx	lr

30001cb8 <strspn>:
30001cb8:	e52db004 	push	{fp}		; (str fp, [sp, #-4]!)
30001cbc:	e28db000 	add	fp, sp, #0	; 0x0
30001cc0:	e24dd024 	sub	sp, sp, #36	; 0x24
30001cc4:	e50b0018 	str	r0, [fp, #-24]
30001cc8:	e50b101c 	str	r1, [fp, #-28]
30001ccc:	e3a03000 	mov	r3, #0	; 0x0
30001cd0:	e50b3008 	str	r3, [fp, #-8]
30001cd4:	e51b3018 	ldr	r3, [fp, #-24]
30001cd8:	e50b3010 	str	r3, [fp, #-16]
30001cdc:	ea00001c 	b	30001d54 <strspn+0x9c>
30001ce0:	e51b301c 	ldr	r3, [fp, #-28]
30001ce4:	e50b300c 	str	r3, [fp, #-12]
30001ce8:	ea000008 	b	30001d10 <strspn+0x58>
30001cec:	e51b3010 	ldr	r3, [fp, #-16]
30001cf0:	e5d32000 	ldrb	r2, [r3]
30001cf4:	e51b300c 	ldr	r3, [fp, #-12]
30001cf8:	e5d33000 	ldrb	r3, [r3]
30001cfc:	e1520003 	cmp	r2, r3
30001d00:	0a000006 	beq	30001d20 <strspn+0x68>
30001d04:	e51b300c 	ldr	r3, [fp, #-12]
30001d08:	e2833001 	add	r3, r3, #1	; 0x1
30001d0c:	e50b300c 	str	r3, [fp, #-12]
30001d10:	e51b300c 	ldr	r3, [fp, #-12]
30001d14:	e5d33000 	ldrb	r3, [r3]
30001d18:	e3530000 	cmp	r3, #0	; 0x0
30001d1c:	1afffff2 	bne	30001cec <strspn+0x34>
30001d20:	e51b300c 	ldr	r3, [fp, #-12]
30001d24:	e5d33000 	ldrb	r3, [r3]
30001d28:	e3530000 	cmp	r3, #0	; 0x0
30001d2c:	1a000002 	bne	30001d3c <strspn+0x84>
30001d30:	e51b3008 	ldr	r3, [fp, #-8]
30001d34:	e50b3020 	str	r3, [fp, #-32]
30001d38:	ea00000b 	b	30001d6c <strspn+0xb4>
30001d3c:	e51b3008 	ldr	r3, [fp, #-8]
30001d40:	e2833001 	add	r3, r3, #1	; 0x1
30001d44:	e50b3008 	str	r3, [fp, #-8]
30001d48:	e51b3010 	ldr	r3, [fp, #-16]
30001d4c:	e2833001 	add	r3, r3, #1	; 0x1
30001d50:	e50b3010 	str	r3, [fp, #-16]
30001d54:	e51b3010 	ldr	r3, [fp, #-16]
30001d58:	e5d33000 	ldrb	r3, [r3]
30001d5c:	e3530000 	cmp	r3, #0	; 0x0
30001d60:	1affffde 	bne	30001ce0 <strspn+0x28>
30001d64:	e51b3008 	ldr	r3, [fp, #-8]
30001d68:	e50b3020 	str	r3, [fp, #-32]
30001d6c:	e51b3020 	ldr	r3, [fp, #-32]
30001d70:	e1a00003 	mov	r0, r3
30001d74:	e28bd000 	add	sp, fp, #0	; 0x0
30001d78:	e8bd0800 	pop	{fp}
30001d7c:	e12fff1e 	bx	lr

30001d80 <strpbrk>:
30001d80:	e52db004 	push	{fp}		; (str fp, [sp, #-4]!)
30001d84:	e28db000 	add	fp, sp, #0	; 0x0
30001d88:	e24dd01c 	sub	sp, sp, #28	; 0x1c
30001d8c:	e50b0010 	str	r0, [fp, #-16]
30001d90:	e50b1014 	str	r1, [fp, #-20]
30001d94:	e51b3010 	ldr	r3, [fp, #-16]
30001d98:	e50b300c 	str	r3, [fp, #-12]
30001d9c:	ea000015 	b	30001df8 <strpbrk+0x78>
30001da0:	e51b3014 	ldr	r3, [fp, #-20]
30001da4:	e50b3008 	str	r3, [fp, #-8]
30001da8:	ea00000b 	b	30001ddc <strpbrk+0x5c>
30001dac:	e51b300c 	ldr	r3, [fp, #-12]
30001db0:	e5d32000 	ldrb	r2, [r3]
30001db4:	e51b3008 	ldr	r3, [fp, #-8]
30001db8:	e5d33000 	ldrb	r3, [r3]
30001dbc:	e1520003 	cmp	r2, r3
30001dc0:	1a000002 	bne	30001dd0 <strpbrk+0x50>
30001dc4:	e51b300c 	ldr	r3, [fp, #-12]
30001dc8:	e50b3018 	str	r3, [fp, #-24]
30001dcc:	ea00000f 	b	30001e10 <strpbrk+0x90>
30001dd0:	e51b3008 	ldr	r3, [fp, #-8]
30001dd4:	e2833001 	add	r3, r3, #1	; 0x1
30001dd8:	e50b3008 	str	r3, [fp, #-8]
30001ddc:	e51b3008 	ldr	r3, [fp, #-8]
30001de0:	e5d33000 	ldrb	r3, [r3]
30001de4:	e3530000 	cmp	r3, #0	; 0x0
30001de8:	1affffef 	bne	30001dac <strpbrk+0x2c>
30001dec:	e51b300c 	ldr	r3, [fp, #-12]
30001df0:	e2833001 	add	r3, r3, #1	; 0x1
30001df4:	e50b300c 	str	r3, [fp, #-12]
30001df8:	e51b300c 	ldr	r3, [fp, #-12]
30001dfc:	e5d33000 	ldrb	r3, [r3]
30001e00:	e3530000 	cmp	r3, #0	; 0x0
30001e04:	1affffe5 	bne	30001da0 <strpbrk+0x20>
30001e08:	e3a03000 	mov	r3, #0	; 0x0
30001e0c:	e50b3018 	str	r3, [fp, #-24]
30001e10:	e51b3018 	ldr	r3, [fp, #-24]
30001e14:	e1a00003 	mov	r0, r3
30001e18:	e28bd000 	add	sp, fp, #0	; 0x0
30001e1c:	e8bd0800 	pop	{fp}
30001e20:	e12fff1e 	bx	lr

30001e24 <strtok>:
30001e24:	e92d4800 	push	{fp, lr}
30001e28:	e28db004 	add	fp, sp, #4	; 0x4
30001e2c:	e24dd020 	sub	sp, sp, #32	; 0x20
30001e30:	e59f2124 	ldr	r2, [pc, #292]	; 30001f5c <strtok+0x138>
30001e34:	e50b2020 	str	r2, [fp, #-32]
30001e38:	e51b3020 	ldr	r3, [fp, #-32]
30001e3c:	e08f3003 	add	r3, pc, r3
30001e40:	e50b3020 	str	r3, [fp, #-32]
30001e44:	e50b0010 	str	r0, [fp, #-16]
30001e48:	e50b1014 	str	r1, [fp, #-20]
30001e4c:	e51b3010 	ldr	r3, [fp, #-16]
30001e50:	e3530000 	cmp	r3, #0	; 0x0
30001e54:	0a000002 	beq	30001e64 <strtok+0x40>
30001e58:	e51b1010 	ldr	r1, [fp, #-16]
30001e5c:	e50b101c 	str	r1, [fp, #-28]
30001e60:	ea000004 	b	30001e78 <strtok+0x54>
30001e64:	e59f30f4 	ldr	r3, [pc, #244]	; 30001f60 <strtok+0x13c>
30001e68:	e51b2020 	ldr	r2, [fp, #-32]
30001e6c:	e7923003 	ldr	r3, [r2, r3]
30001e70:	e5933000 	ldr	r3, [r3]
30001e74:	e50b301c 	str	r3, [fp, #-28]
30001e78:	e51b301c 	ldr	r3, [fp, #-28]
30001e7c:	e50b300c 	str	r3, [fp, #-12]
30001e80:	e51b300c 	ldr	r3, [fp, #-12]
30001e84:	e3530000 	cmp	r3, #0	; 0x0
30001e88:	1a000002 	bne	30001e98 <strtok+0x74>
30001e8c:	e3a01000 	mov	r1, #0	; 0x0
30001e90:	e50b1018 	str	r1, [fp, #-24]
30001e94:	ea00002b 	b	30001f48 <strtok+0x124>
30001e98:	e51b000c 	ldr	r0, [fp, #-12]
30001e9c:	e51b1014 	ldr	r1, [fp, #-20]
30001ea0:	ebffff84 	bl	30001cb8 <strspn>
30001ea4:	e1a02000 	mov	r2, r0
30001ea8:	e51b300c 	ldr	r3, [fp, #-12]
30001eac:	e0833002 	add	r3, r3, r2
30001eb0:	e50b300c 	str	r3, [fp, #-12]
30001eb4:	e51b300c 	ldr	r3, [fp, #-12]
30001eb8:	e5d33000 	ldrb	r3, [r3]
30001ebc:	e3530000 	cmp	r3, #0	; 0x0
30001ec0:	1a000007 	bne	30001ee4 <strtok+0xc0>
30001ec4:	e59f3094 	ldr	r3, [pc, #148]	; 30001f60 <strtok+0x13c>
30001ec8:	e51b1020 	ldr	r1, [fp, #-32]
30001ecc:	e7912003 	ldr	r2, [r1, r3]
30001ed0:	e3a03000 	mov	r3, #0	; 0x0
30001ed4:	e5823000 	str	r3, [r2]
30001ed8:	e3a02000 	mov	r2, #0	; 0x0
30001edc:	e50b2018 	str	r2, [fp, #-24]
30001ee0:	ea000018 	b	30001f48 <strtok+0x124>
30001ee4:	e51b000c 	ldr	r0, [fp, #-12]
30001ee8:	e51b1014 	ldr	r1, [fp, #-20]
30001eec:	ebffffa3 	bl	30001d80 <strpbrk>
30001ef0:	e1a03000 	mov	r3, r0
30001ef4:	e50b3008 	str	r3, [fp, #-8]
30001ef8:	e51b3008 	ldr	r3, [fp, #-8]
30001efc:	e3530000 	cmp	r3, #0	; 0x0
30001f00:	0a000009 	beq	30001f2c <strtok+0x108>
30001f04:	e51b3008 	ldr	r3, [fp, #-8]
30001f08:	e5d33000 	ldrb	r3, [r3]
30001f0c:	e3530000 	cmp	r3, #0	; 0x0
30001f10:	0a000005 	beq	30001f2c <strtok+0x108>
30001f14:	e51b2008 	ldr	r2, [fp, #-8]
30001f18:	e3a03000 	mov	r3, #0	; 0x0
30001f1c:	e5c23000 	strb	r3, [r2]
30001f20:	e51b3008 	ldr	r3, [fp, #-8]
30001f24:	e2833001 	add	r3, r3, #1	; 0x1
30001f28:	e50b3008 	str	r3, [fp, #-8]
30001f2c:	e59f302c 	ldr	r3, [pc, #44]	; 30001f60 <strtok+0x13c>
30001f30:	e51b1020 	ldr	r1, [fp, #-32]
30001f34:	e7912003 	ldr	r2, [r1, r3]
30001f38:	e51b3008 	ldr	r3, [fp, #-8]
30001f3c:	e5823000 	str	r3, [r2]
30001f40:	e51b200c 	ldr	r2, [fp, #-12]
30001f44:	e50b2018 	str	r2, [fp, #-24]
30001f48:	e51b3018 	ldr	r3, [fp, #-24]
30001f4c:	e1a00003 	mov	r0, r3
30001f50:	e24bd004 	sub	sp, fp, #4	; 0x4
30001f54:	e8bd4800 	pop	{fp, lr}
30001f58:	e12fff1e 	bx	lr
30001f5c:	cfffe1bc 	.word	0xcfffe1bc
30001f60:	00000570 	.word	0x00000570

30001f64 <strsep>:
30001f64:	e92d4800 	push	{fp, lr}
30001f68:	e28db004 	add	fp, sp, #4	; 0x4
30001f6c:	e24dd018 	sub	sp, sp, #24	; 0x18
30001f70:	e50b0010 	str	r0, [fp, #-16]
30001f74:	e50b1014 	str	r1, [fp, #-20]
30001f78:	e51b3010 	ldr	r3, [fp, #-16]
30001f7c:	e5933000 	ldr	r3, [r3]
30001f80:	e50b300c 	str	r3, [fp, #-12]
30001f84:	e51b300c 	ldr	r3, [fp, #-12]
30001f88:	e3530000 	cmp	r3, #0	; 0x0
30001f8c:	1a000002 	bne	30001f9c <strsep+0x38>
30001f90:	e3a03000 	mov	r3, #0	; 0x0
30001f94:	e50b3018 	str	r3, [fp, #-24]
30001f98:	ea000012 	b	30001fe8 <strsep+0x84>
30001f9c:	e51b000c 	ldr	r0, [fp, #-12]
30001fa0:	e51b1014 	ldr	r1, [fp, #-20]
30001fa4:	ebffff75 	bl	30001d80 <strpbrk>
30001fa8:	e1a03000 	mov	r3, r0
30001fac:	e50b3008 	str	r3, [fp, #-8]
30001fb0:	e51b3008 	ldr	r3, [fp, #-8]
30001fb4:	e3530000 	cmp	r3, #0	; 0x0
30001fb8:	0a000005 	beq	30001fd4 <strsep+0x70>
30001fbc:	e51b2008 	ldr	r2, [fp, #-8]
30001fc0:	e3a03000 	mov	r3, #0	; 0x0
30001fc4:	e5c23000 	strb	r3, [r2]
30001fc8:	e51b3008 	ldr	r3, [fp, #-8]
30001fcc:	e2833001 	add	r3, r3, #1	; 0x1
30001fd0:	e50b3008 	str	r3, [fp, #-8]
30001fd4:	e51b2010 	ldr	r2, [fp, #-16]
30001fd8:	e51b3008 	ldr	r3, [fp, #-8]
30001fdc:	e5823000 	str	r3, [r2]
30001fe0:	e51b300c 	ldr	r3, [fp, #-12]
30001fe4:	e50b3018 	str	r3, [fp, #-24]
30001fe8:	e51b3018 	ldr	r3, [fp, #-24]
30001fec:	e1a00003 	mov	r0, r3
30001ff0:	e24bd004 	sub	sp, fp, #4	; 0x4
30001ff4:	e8bd4800 	pop	{fp, lr}
30001ff8:	e12fff1e 	bx	lr

30001ffc <memset>:
30001ffc:	e52db004 	push	{fp}		; (str fp, [sp, #-4]!)
30002000:	e28db000 	add	fp, sp, #0	; 0x0
30002004:	e24dd01c 	sub	sp, sp, #28	; 0x1c
30002008:	e50b0010 	str	r0, [fp, #-16]
3000200c:	e50b1014 	str	r1, [fp, #-20]
30002010:	e50b2018 	str	r2, [fp, #-24]
30002014:	e51b3010 	ldr	r3, [fp, #-16]
30002018:	e50b3008 	str	r3, [fp, #-8]
3000201c:	ea000006 	b	3000203c <memset+0x40>
30002020:	e51b3014 	ldr	r3, [fp, #-20]
30002024:	e20330ff 	and	r3, r3, #255	; 0xff
30002028:	e51b2008 	ldr	r2, [fp, #-8]
3000202c:	e5c23000 	strb	r3, [r2]
30002030:	e51b3008 	ldr	r3, [fp, #-8]
30002034:	e2833001 	add	r3, r3, #1	; 0x1
30002038:	e50b3008 	str	r3, [fp, #-8]
3000203c:	e51b3018 	ldr	r3, [fp, #-24]
30002040:	e3530000 	cmp	r3, #0	; 0x0
30002044:	03a03000 	moveq	r3, #0	; 0x0
30002048:	13a03001 	movne	r3, #1	; 0x1
3000204c:	e20320ff 	and	r2, r3, #255	; 0xff
30002050:	e51b3018 	ldr	r3, [fp, #-24]
30002054:	e2433001 	sub	r3, r3, #1	; 0x1
30002058:	e50b3018 	str	r3, [fp, #-24]
3000205c:	e3520000 	cmp	r2, #0	; 0x0
30002060:	1affffee 	bne	30002020 <memset+0x24>
30002064:	e51b3010 	ldr	r3, [fp, #-16]
30002068:	e1a00003 	mov	r0, r3
3000206c:	e28bd000 	add	sp, fp, #0	; 0x0
30002070:	e8bd0800 	pop	{fp}
30002074:	e12fff1e 	bx	lr

30002078 <bcopy>:
30002078:	e52db004 	push	{fp}		; (str fp, [sp, #-4]!)
3000207c:	e28db000 	add	fp, sp, #0	; 0x0
30002080:	e24dd01c 	sub	sp, sp, #28	; 0x1c
30002084:	e50b0010 	str	r0, [fp, #-16]
30002088:	e50b1014 	str	r1, [fp, #-20]
3000208c:	e50b2018 	str	r2, [fp, #-24]
30002090:	e51b3014 	ldr	r3, [fp, #-20]
30002094:	e50b300c 	str	r3, [fp, #-12]
30002098:	e51b3010 	ldr	r3, [fp, #-16]
3000209c:	e50b3008 	str	r3, [fp, #-8]
300020a0:	ea000009 	b	300020cc <bcopy+0x54>
300020a4:	e51b3008 	ldr	r3, [fp, #-8]
300020a8:	e5d33000 	ldrb	r3, [r3]
300020ac:	e51b200c 	ldr	r2, [fp, #-12]
300020b0:	e5c23000 	strb	r3, [r2]
300020b4:	e51b300c 	ldr	r3, [fp, #-12]
300020b8:	e2833001 	add	r3, r3, #1	; 0x1
300020bc:	e50b300c 	str	r3, [fp, #-12]
300020c0:	e51b3008 	ldr	r3, [fp, #-8]
300020c4:	e2833001 	add	r3, r3, #1	; 0x1
300020c8:	e50b3008 	str	r3, [fp, #-8]
300020cc:	e51b3018 	ldr	r3, [fp, #-24]
300020d0:	e3530000 	cmp	r3, #0	; 0x0
300020d4:	03a03000 	moveq	r3, #0	; 0x0
300020d8:	13a03001 	movne	r3, #1	; 0x1
300020dc:	e20320ff 	and	r2, r3, #255	; 0xff
300020e0:	e51b3018 	ldr	r3, [fp, #-24]
300020e4:	e2433001 	sub	r3, r3, #1	; 0x1
300020e8:	e50b3018 	str	r3, [fp, #-24]
300020ec:	e3520000 	cmp	r2, #0	; 0x0
300020f0:	1affffeb 	bne	300020a4 <bcopy+0x2c>
300020f4:	e28bd000 	add	sp, fp, #0	; 0x0
300020f8:	e8bd0800 	pop	{fp}
300020fc:	e12fff1e 	bx	lr

30002100 <memcpy>:
30002100:	e52db004 	push	{fp}		; (str fp, [sp, #-4]!)
30002104:	e28db000 	add	fp, sp, #0	; 0x0
30002108:	e24dd01c 	sub	sp, sp, #28	; 0x1c
3000210c:	e50b0010 	str	r0, [fp, #-16]
30002110:	e50b1014 	str	r1, [fp, #-20]
30002114:	e50b2018 	str	r2, [fp, #-24]
30002118:	e51b3010 	ldr	r3, [fp, #-16]
3000211c:	e50b300c 	str	r3, [fp, #-12]
30002120:	e51b3014 	ldr	r3, [fp, #-20]
30002124:	e50b3008 	str	r3, [fp, #-8]
30002128:	ea000009 	b	30002154 <memcpy+0x54>
3000212c:	e51b3008 	ldr	r3, [fp, #-8]
30002130:	e5d33000 	ldrb	r3, [r3]
30002134:	e51b200c 	ldr	r2, [fp, #-12]
30002138:	e5c23000 	strb	r3, [r2]
3000213c:	e51b300c 	ldr	r3, [fp, #-12]
30002140:	e2833001 	add	r3, r3, #1	; 0x1
30002144:	e50b300c 	str	r3, [fp, #-12]
30002148:	e51b3008 	ldr	r3, [fp, #-8]
3000214c:	e2833001 	add	r3, r3, #1	; 0x1
30002150:	e50b3008 	str	r3, [fp, #-8]
30002154:	e51b3018 	ldr	r3, [fp, #-24]
30002158:	e3530000 	cmp	r3, #0	; 0x0
3000215c:	03a03000 	moveq	r3, #0	; 0x0
30002160:	13a03001 	movne	r3, #1	; 0x1
30002164:	e20320ff 	and	r2, r3, #255	; 0xff
30002168:	e51b3018 	ldr	r3, [fp, #-24]
3000216c:	e2433001 	sub	r3, r3, #1	; 0x1
30002170:	e50b3018 	str	r3, [fp, #-24]
30002174:	e3520000 	cmp	r2, #0	; 0x0
30002178:	1affffeb 	bne	3000212c <memcpy+0x2c>
3000217c:	e51b3010 	ldr	r3, [fp, #-16]
30002180:	e1a00003 	mov	r0, r3
30002184:	e28bd000 	add	sp, fp, #0	; 0x0
30002188:	e8bd0800 	pop	{fp}
3000218c:	e12fff1e 	bx	lr

30002190 <memmove>:
30002190:	e52db004 	push	{fp}		; (str fp, [sp, #-4]!)
30002194:	e28db000 	add	fp, sp, #0	; 0x0
30002198:	e24dd01c 	sub	sp, sp, #28	; 0x1c
3000219c:	e50b0010 	str	r0, [fp, #-16]
300021a0:	e50b1014 	str	r1, [fp, #-20]
300021a4:	e50b2018 	str	r2, [fp, #-24]
300021a8:	e51b2010 	ldr	r2, [fp, #-16]
300021ac:	e51b3014 	ldr	r3, [fp, #-20]
300021b0:	e1520003 	cmp	r2, r3
300021b4:	8a000019 	bhi	30002220 <memmove+0x90>
300021b8:	e51b3010 	ldr	r3, [fp, #-16]
300021bc:	e50b300c 	str	r3, [fp, #-12]
300021c0:	e51b3014 	ldr	r3, [fp, #-20]
300021c4:	e50b3008 	str	r3, [fp, #-8]
300021c8:	ea000009 	b	300021f4 <memmove+0x64>
300021cc:	e51b3008 	ldr	r3, [fp, #-8]
300021d0:	e5d33000 	ldrb	r3, [r3]
300021d4:	e51b200c 	ldr	r2, [fp, #-12]
300021d8:	e5c23000 	strb	r3, [r2]
300021dc:	e51b300c 	ldr	r3, [fp, #-12]
300021e0:	e2833001 	add	r3, r3, #1	; 0x1
300021e4:	e50b300c 	str	r3, [fp, #-12]
300021e8:	e51b3008 	ldr	r3, [fp, #-8]
300021ec:	e2833001 	add	r3, r3, #1	; 0x1
300021f0:	e50b3008 	str	r3, [fp, #-8]
300021f4:	e51b3018 	ldr	r3, [fp, #-24]
300021f8:	e3530000 	cmp	r3, #0	; 0x0
300021fc:	03a03000 	moveq	r3, #0	; 0x0
30002200:	13a03001 	movne	r3, #1	; 0x1
30002204:	e20320ff 	and	r2, r3, #255	; 0xff
30002208:	e51b3018 	ldr	r3, [fp, #-24]
3000220c:	e2433001 	sub	r3, r3, #1	; 0x1
30002210:	e50b3018 	str	r3, [fp, #-24]
30002214:	e3520000 	cmp	r2, #0	; 0x0
30002218:	1affffeb 	bne	300021cc <memmove+0x3c>
3000221c:	ea00001c 	b	30002294 <memmove+0x104>
30002220:	e51b2010 	ldr	r2, [fp, #-16]
30002224:	e51b3018 	ldr	r3, [fp, #-24]
30002228:	e0823003 	add	r3, r2, r3
3000222c:	e50b300c 	str	r3, [fp, #-12]
30002230:	e51b2014 	ldr	r2, [fp, #-20]
30002234:	e51b3018 	ldr	r3, [fp, #-24]
30002238:	e0823003 	add	r3, r2, r3
3000223c:	e50b3008 	str	r3, [fp, #-8]
30002240:	ea000009 	b	3000226c <memmove+0xdc>
30002244:	e51b300c 	ldr	r3, [fp, #-12]
30002248:	e2433001 	sub	r3, r3, #1	; 0x1
3000224c:	e50b300c 	str	r3, [fp, #-12]
30002250:	e51b3008 	ldr	r3, [fp, #-8]
30002254:	e2433001 	sub	r3, r3, #1	; 0x1
30002258:	e50b3008 	str	r3, [fp, #-8]
3000225c:	e51b3008 	ldr	r3, [fp, #-8]
30002260:	e5d33000 	ldrb	r3, [r3]
30002264:	e51b200c 	ldr	r2, [fp, #-12]
30002268:	e5c23000 	strb	r3, [r2]
3000226c:	e51b3018 	ldr	r3, [fp, #-24]
30002270:	e3530000 	cmp	r3, #0	; 0x0
30002274:	03a03000 	moveq	r3, #0	; 0x0
30002278:	13a03001 	movne	r3, #1	; 0x1
3000227c:	e20320ff 	and	r2, r3, #255	; 0xff
30002280:	e51b3018 	ldr	r3, [fp, #-24]
30002284:	e2433001 	sub	r3, r3, #1	; 0x1
30002288:	e50b3018 	str	r3, [fp, #-24]
3000228c:	e3520000 	cmp	r2, #0	; 0x0
30002290:	1affffeb 	bne	30002244 <memmove+0xb4>
30002294:	e51b3010 	ldr	r3, [fp, #-16]
30002298:	e1a00003 	mov	r0, r3
3000229c:	e28bd000 	add	sp, fp, #0	; 0x0
300022a0:	e8bd0800 	pop	{fp}
300022a4:	e12fff1e 	bx	lr

300022a8 <memcmp>:
300022a8:	e52db004 	push	{fp}		; (str fp, [sp, #-4]!)
300022ac:	e28db000 	add	fp, sp, #0	; 0x0
300022b0:	e24dd024 	sub	sp, sp, #36	; 0x24
300022b4:	e50b0018 	str	r0, [fp, #-24]
300022b8:	e50b101c 	str	r1, [fp, #-28]
300022bc:	e50b2020 	str	r2, [fp, #-32]
300022c0:	e3a03000 	mov	r3, #0	; 0x0
300022c4:	e50b3008 	str	r3, [fp, #-8]
300022c8:	e51b3018 	ldr	r3, [fp, #-24]
300022cc:	e50b3010 	str	r3, [fp, #-16]
300022d0:	e51b301c 	ldr	r3, [fp, #-28]
300022d4:	e50b300c 	str	r3, [fp, #-12]
300022d8:	ea000012 	b	30002328 <memcmp+0x80>
300022dc:	e51b3010 	ldr	r3, [fp, #-16]
300022e0:	e5d33000 	ldrb	r3, [r3]
300022e4:	e1a02003 	mov	r2, r3
300022e8:	e51b300c 	ldr	r3, [fp, #-12]
300022ec:	e5d33000 	ldrb	r3, [r3]
300022f0:	e0633002 	rsb	r3, r3, r2
300022f4:	e50b3008 	str	r3, [fp, #-8]
300022f8:	e51b3008 	ldr	r3, [fp, #-8]
300022fc:	e3530000 	cmp	r3, #0	; 0x0
30002300:	1a00000b 	bne	30002334 <memcmp+0x8c>
30002304:	e51b3010 	ldr	r3, [fp, #-16]
30002308:	e2833001 	add	r3, r3, #1	; 0x1
3000230c:	e50b3010 	str	r3, [fp, #-16]
30002310:	e51b300c 	ldr	r3, [fp, #-12]
30002314:	e2833001 	add	r3, r3, #1	; 0x1
30002318:	e50b300c 	str	r3, [fp, #-12]
3000231c:	e51b3020 	ldr	r3, [fp, #-32]
30002320:	e2433001 	sub	r3, r3, #1	; 0x1
30002324:	e50b3020 	str	r3, [fp, #-32]
30002328:	e51b3020 	ldr	r3, [fp, #-32]
3000232c:	e3530000 	cmp	r3, #0	; 0x0
30002330:	1affffe9 	bne	300022dc <memcmp+0x34>
30002334:	e51b3008 	ldr	r3, [fp, #-8]
30002338:	e1a00003 	mov	r0, r3
3000233c:	e28bd000 	add	sp, fp, #0	; 0x0
30002340:	e8bd0800 	pop	{fp}
30002344:	e12fff1e 	bx	lr

30002348 <memscan>:
30002348:	e52db004 	push	{fp}		; (str fp, [sp, #-4]!)
3000234c:	e28db000 	add	fp, sp, #0	; 0x0
30002350:	e24dd01c 	sub	sp, sp, #28	; 0x1c
30002354:	e50b0010 	str	r0, [fp, #-16]
30002358:	e50b1014 	str	r1, [fp, #-20]
3000235c:	e50b2018 	str	r2, [fp, #-24]
30002360:	e51b3010 	ldr	r3, [fp, #-16]
30002364:	e50b3008 	str	r3, [fp, #-8]
30002368:	ea00000e 	b	300023a8 <memscan+0x60>
3000236c:	e51b3008 	ldr	r3, [fp, #-8]
30002370:	e5d33000 	ldrb	r3, [r3]
30002374:	e1a02003 	mov	r2, r3
30002378:	e51b3014 	ldr	r3, [fp, #-20]
3000237c:	e1520003 	cmp	r2, r3
30002380:	1a000002 	bne	30002390 <memscan+0x48>
30002384:	e51b3008 	ldr	r3, [fp, #-8]
30002388:	e50b301c 	str	r3, [fp, #-28]
3000238c:	ea00000a 	b	300023bc <memscan+0x74>
30002390:	e51b3008 	ldr	r3, [fp, #-8]
30002394:	e2833001 	add	r3, r3, #1	; 0x1
30002398:	e50b3008 	str	r3, [fp, #-8]
3000239c:	e51b3018 	ldr	r3, [fp, #-24]
300023a0:	e2433001 	sub	r3, r3, #1	; 0x1
300023a4:	e50b3018 	str	r3, [fp, #-24]
300023a8:	e51b3018 	ldr	r3, [fp, #-24]
300023ac:	e3530000 	cmp	r3, #0	; 0x0
300023b0:	1affffed 	bne	3000236c <memscan+0x24>
300023b4:	e51b3008 	ldr	r3, [fp, #-8]
300023b8:	e50b301c 	str	r3, [fp, #-28]
300023bc:	e51b301c 	ldr	r3, [fp, #-28]
300023c0:	e1a00003 	mov	r0, r3
300023c4:	e28bd000 	add	sp, fp, #0	; 0x0
300023c8:	e8bd0800 	pop	{fp}
300023cc:	e12fff1e 	bx	lr

300023d0 <strstr>:
300023d0:	e92d4800 	push	{fp, lr}
300023d4:	e28db004 	add	fp, sp, #4	; 0x4
300023d8:	e24dd018 	sub	sp, sp, #24	; 0x18
300023dc:	e50b0010 	str	r0, [fp, #-16]
300023e0:	e50b1014 	str	r1, [fp, #-20]
300023e4:	e51b0014 	ldr	r0, [fp, #-20]
300023e8:	ebfffdfb 	bl	30001bdc <strlen>
300023ec:	e1a03000 	mov	r3, r0
300023f0:	e50b3008 	str	r3, [fp, #-8]
300023f4:	e51b3008 	ldr	r3, [fp, #-8]
300023f8:	e3530000 	cmp	r3, #0	; 0x0
300023fc:	1a000002 	bne	3000240c <strstr+0x3c>
30002400:	e51b3010 	ldr	r3, [fp, #-16]
30002404:	e50b3018 	str	r3, [fp, #-24]
30002408:	ea00001b 	b	3000247c <strstr+0xac>
3000240c:	e51b0010 	ldr	r0, [fp, #-16]
30002410:	ebfffdf1 	bl	30001bdc <strlen>
30002414:	e1a03000 	mov	r3, r0
30002418:	e50b300c 	str	r3, [fp, #-12]
3000241c:	ea000010 	b	30002464 <strstr+0x94>
30002420:	e51b300c 	ldr	r3, [fp, #-12]
30002424:	e2433001 	sub	r3, r3, #1	; 0x1
30002428:	e50b300c 	str	r3, [fp, #-12]
3000242c:	e51b3008 	ldr	r3, [fp, #-8]
30002430:	e51b0010 	ldr	r0, [fp, #-16]
30002434:	e51b1014 	ldr	r1, [fp, #-20]
30002438:	e1a02003 	mov	r2, r3
3000243c:	ebffff99 	bl	300022a8 <memcmp>
30002440:	e1a03000 	mov	r3, r0
30002444:	e3530000 	cmp	r3, #0	; 0x0
30002448:	1a000002 	bne	30002458 <strstr+0x88>
3000244c:	e51b3010 	ldr	r3, [fp, #-16]
30002450:	e50b3018 	str	r3, [fp, #-24]
30002454:	ea000008 	b	3000247c <strstr+0xac>
30002458:	e51b3010 	ldr	r3, [fp, #-16]
3000245c:	e2833001 	add	r3, r3, #1	; 0x1
30002460:	e50b3010 	str	r3, [fp, #-16]
30002464:	e51b200c 	ldr	r2, [fp, #-12]
30002468:	e51b3008 	ldr	r3, [fp, #-8]
3000246c:	e1520003 	cmp	r2, r3
30002470:	aaffffea 	bge	30002420 <strstr+0x50>
30002474:	e3a03000 	mov	r3, #0	; 0x0
30002478:	e50b3018 	str	r3, [fp, #-24]
3000247c:	e51b3018 	ldr	r3, [fp, #-24]
30002480:	e1a00003 	mov	r0, r3
30002484:	e24bd004 	sub	sp, fp, #4	; 0x4
30002488:	e8bd4800 	pop	{fp, lr}
3000248c:	e12fff1e 	bx	lr

30002490 <memchr>:
30002490:	e52db004 	push	{fp}		; (str fp, [sp, #-4]!)
30002494:	e28db000 	add	fp, sp, #0	; 0x0
30002498:	e24dd01c 	sub	sp, sp, #28	; 0x1c
3000249c:	e50b0010 	str	r0, [fp, #-16]
300024a0:	e50b1014 	str	r1, [fp, #-20]
300024a4:	e50b2018 	str	r2, [fp, #-24]
300024a8:	e51b3010 	ldr	r3, [fp, #-16]
300024ac:	e50b3008 	str	r3, [fp, #-8]
300024b0:	ea000010 	b	300024f8 <memchr+0x68>
300024b4:	e51b3014 	ldr	r3, [fp, #-20]
300024b8:	e20320ff 	and	r2, r3, #255	; 0xff
300024bc:	e51b3008 	ldr	r3, [fp, #-8]
300024c0:	e5d33000 	ldrb	r3, [r3]
300024c4:	e1520003 	cmp	r2, r3
300024c8:	13a03000 	movne	r3, #0	; 0x0
300024cc:	03a03001 	moveq	r3, #1	; 0x1
300024d0:	e20320ff 	and	r2, r3, #255	; 0xff
300024d4:	e51b3008 	ldr	r3, [fp, #-8]
300024d8:	e2833001 	add	r3, r3, #1	; 0x1
300024dc:	e50b3008 	str	r3, [fp, #-8]
300024e0:	e3520000 	cmp	r2, #0	; 0x0
300024e4:	0a000003 	beq	300024f8 <memchr+0x68>
300024e8:	e51b3008 	ldr	r3, [fp, #-8]
300024ec:	e2433001 	sub	r3, r3, #1	; 0x1
300024f0:	e50b301c 	str	r3, [fp, #-28]
300024f4:	ea00000b 	b	30002528 <memchr+0x98>
300024f8:	e51b3018 	ldr	r3, [fp, #-24]
300024fc:	e3530000 	cmp	r3, #0	; 0x0
30002500:	03a03000 	moveq	r3, #0	; 0x0
30002504:	13a03001 	movne	r3, #1	; 0x1
30002508:	e20320ff 	and	r2, r3, #255	; 0xff
3000250c:	e51b3018 	ldr	r3, [fp, #-24]
30002510:	e2433001 	sub	r3, r3, #1	; 0x1
30002514:	e50b3018 	str	r3, [fp, #-24]
30002518:	e3520000 	cmp	r2, #0	; 0x0
3000251c:	1affffe4 	bne	300024b4 <memchr+0x24>
30002520:	e3a03000 	mov	r3, #0	; 0x0
30002524:	e50b301c 	str	r3, [fp, #-28]
30002528:	e51b301c 	ldr	r3, [fp, #-28]
3000252c:	e1a00003 	mov	r0, r3
30002530:	e28bd000 	add	sp, fp, #0	; 0x0
30002534:	e8bd0800 	pop	{fp}
30002538:	e12fff1e 	bx	lr

3000253c <simple_strtoul>:
3000253c:	e92d4800 	push	{fp, lr}
30002540:	e28db004 	add	fp, sp, #4	; 0x4
30002544:	e24dd020 	sub	sp, sp, #32	; 0x20
30002548:	e59f31ec 	ldr	r3, [pc, #492]	; 3000273c <simple_strtoul+0x200>
3000254c:	e50b3020 	str	r3, [fp, #-32]
30002550:	e51b3020 	ldr	r3, [fp, #-32]
30002554:	e08f3003 	add	r3, pc, r3
30002558:	e50b3020 	str	r3, [fp, #-32]
3000255c:	e50b0010 	str	r0, [fp, #-16]
30002560:	e50b1014 	str	r1, [fp, #-20]
30002564:	e50b2018 	str	r2, [fp, #-24]
30002568:	e3a03000 	mov	r3, #0	; 0x0
3000256c:	e50b300c 	str	r3, [fp, #-12]
30002570:	e51b3018 	ldr	r3, [fp, #-24]
30002574:	e3530000 	cmp	r3, #0	; 0x0
30002578:	1a000022 	bne	30002608 <simple_strtoul+0xcc>
3000257c:	e3a0300a 	mov	r3, #10	; 0xa
30002580:	e50b3018 	str	r3, [fp, #-24]
30002584:	e51b3010 	ldr	r3, [fp, #-16]
30002588:	e5d33000 	ldrb	r3, [r3]
3000258c:	e3530030 	cmp	r3, #48	; 0x30
30002590:	1a000038 	bne	30002678 <simple_strtoul+0x13c>
30002594:	e3a03008 	mov	r3, #8	; 0x8
30002598:	e50b3018 	str	r3, [fp, #-24]
3000259c:	e51b3010 	ldr	r3, [fp, #-16]
300025a0:	e2833001 	add	r3, r3, #1	; 0x1
300025a4:	e50b3010 	str	r3, [fp, #-16]
300025a8:	e51b3010 	ldr	r3, [fp, #-16]
300025ac:	e5d33000 	ldrb	r3, [r3]
300025b0:	e1a00003 	mov	r0, r3
300025b4:	eb000062 	bl	30002744 <__toupper>
300025b8:	e1a03000 	mov	r3, r0
300025bc:	e3530058 	cmp	r3, #88	; 0x58
300025c0:	1a00002c 	bne	30002678 <simple_strtoul+0x13c>
300025c4:	e51b3010 	ldr	r3, [fp, #-16]
300025c8:	e2833001 	add	r3, r3, #1	; 0x1
300025cc:	e5d33000 	ldrb	r3, [r3]
300025d0:	e1a02003 	mov	r2, r3
300025d4:	e59f3164 	ldr	r3, [pc, #356]	; 30002740 <simple_strtoul+0x204>
300025d8:	e51b1020 	ldr	r1, [fp, #-32]
300025dc:	e7913003 	ldr	r3, [r1, r3]
300025e0:	e7d33002 	ldrb	r3, [r3, r2]
300025e4:	e2033044 	and	r3, r3, #68	; 0x44
300025e8:	e3530000 	cmp	r3, #0	; 0x0
300025ec:	0a000021 	beq	30002678 <simple_strtoul+0x13c>
300025f0:	e51b3010 	ldr	r3, [fp, #-16]
300025f4:	e2833001 	add	r3, r3, #1	; 0x1
300025f8:	e50b3010 	str	r3, [fp, #-16]
300025fc:	e3a03010 	mov	r3, #16	; 0x10
30002600:	e50b3018 	str	r3, [fp, #-24]
30002604:	ea00001b 	b	30002678 <simple_strtoul+0x13c>
30002608:	e51b3018 	ldr	r3, [fp, #-24]
3000260c:	e3530010 	cmp	r3, #16	; 0x10
30002610:	1a000018 	bne	30002678 <simple_strtoul+0x13c>
30002614:	e51b3010 	ldr	r3, [fp, #-16]
30002618:	e5d33000 	ldrb	r3, [r3]
3000261c:	e3530030 	cmp	r3, #48	; 0x30
30002620:	1a000014 	bne	30002678 <simple_strtoul+0x13c>
30002624:	e51b3010 	ldr	r3, [fp, #-16]
30002628:	e2833001 	add	r3, r3, #1	; 0x1
3000262c:	e5d33000 	ldrb	r3, [r3]
30002630:	e1a00003 	mov	r0, r3
30002634:	eb000042 	bl	30002744 <__toupper>
30002638:	e1a03000 	mov	r3, r0
3000263c:	e3530058 	cmp	r3, #88	; 0x58
30002640:	1a00000c 	bne	30002678 <simple_strtoul+0x13c>
30002644:	e51b3010 	ldr	r3, [fp, #-16]
30002648:	e2833002 	add	r3, r3, #2	; 0x2
3000264c:	e50b3010 	str	r3, [fp, #-16]
30002650:	ea000008 	b	30002678 <simple_strtoul+0x13c>
30002654:	e51b200c 	ldr	r2, [fp, #-12]
30002658:	e51b3018 	ldr	r3, [fp, #-24]
3000265c:	e0020293 	mul	r2, r3, r2
30002660:	e51b3008 	ldr	r3, [fp, #-8]
30002664:	e0823003 	add	r3, r2, r3
30002668:	e50b300c 	str	r3, [fp, #-12]
3000266c:	e51b3010 	ldr	r3, [fp, #-16]
30002670:	e2833001 	add	r3, r3, #1	; 0x1
30002674:	e50b3010 	str	r3, [fp, #-16]
30002678:	e51b3010 	ldr	r3, [fp, #-16]
3000267c:	e5d33000 	ldrb	r3, [r3]
30002680:	e1a02003 	mov	r2, r3
30002684:	e59f30b4 	ldr	r3, [pc, #180]	; 30002740 <simple_strtoul+0x204>
30002688:	e51b1020 	ldr	r1, [fp, #-32]
3000268c:	e7913003 	ldr	r3, [r1, r3]
30002690:	e7d33002 	ldrb	r3, [r3, r2]
30002694:	e2033044 	and	r3, r3, #68	; 0x44
30002698:	e3530000 	cmp	r3, #0	; 0x0
3000269c:	0a00001b 	beq	30002710 <simple_strtoul+0x1d4>
300026a0:	e51b3010 	ldr	r3, [fp, #-16]
300026a4:	e5d33000 	ldrb	r3, [r3]
300026a8:	e1a02003 	mov	r2, r3
300026ac:	e59f308c 	ldr	r3, [pc, #140]	; 30002740 <simple_strtoul+0x204>
300026b0:	e51b1020 	ldr	r1, [fp, #-32]
300026b4:	e7913003 	ldr	r3, [r1, r3]
300026b8:	e7d33002 	ldrb	r3, [r3, r2]
300026bc:	e2033004 	and	r3, r3, #4	; 0x4
300026c0:	e3530000 	cmp	r3, #0	; 0x0
300026c4:	0a000004 	beq	300026dc <simple_strtoul+0x1a0>
300026c8:	e51b3010 	ldr	r3, [fp, #-16]
300026cc:	e5d33000 	ldrb	r3, [r3]
300026d0:	e2433030 	sub	r3, r3, #48	; 0x30
300026d4:	e50b301c 	str	r3, [fp, #-28]
300026d8:	ea000006 	b	300026f8 <simple_strtoul+0x1bc>
300026dc:	e51b3010 	ldr	r3, [fp, #-16]
300026e0:	e5d33000 	ldrb	r3, [r3]
300026e4:	e1a00003 	mov	r0, r3
300026e8:	eb000015 	bl	30002744 <__toupper>
300026ec:	e1a03000 	mov	r3, r0
300026f0:	e2433037 	sub	r3, r3, #55	; 0x37
300026f4:	e50b301c 	str	r3, [fp, #-28]
300026f8:	e51b301c 	ldr	r3, [fp, #-28]
300026fc:	e50b3008 	str	r3, [fp, #-8]
30002700:	e51b2008 	ldr	r2, [fp, #-8]
30002704:	e51b3018 	ldr	r3, [fp, #-24]
30002708:	e1520003 	cmp	r2, r3
3000270c:	3affffd0 	bcc	30002654 <simple_strtoul+0x118>
30002710:	e51b3014 	ldr	r3, [fp, #-20]
30002714:	e3530000 	cmp	r3, #0	; 0x0
30002718:	0a000002 	beq	30002728 <simple_strtoul+0x1ec>
3000271c:	e51b2010 	ldr	r2, [fp, #-16]
30002720:	e51b3014 	ldr	r3, [fp, #-20]
30002724:	e5832000 	str	r2, [r3]
30002728:	e51b300c 	ldr	r3, [fp, #-12]
3000272c:	e1a00003 	mov	r0, r3
30002730:	e24bd004 	sub	sp, fp, #4	; 0x4
30002734:	e8bd4800 	pop	{fp, lr}
30002738:	e12fff1e 	bx	lr
3000273c:	cfffdaa4 	.word	0xcfffdaa4
30002740:	00000580 	.word	0x00000580

30002744 <__toupper>:
30002744:	e52db004 	push	{fp}		; (str fp, [sp, #-4]!)
30002748:	e28db000 	add	fp, sp, #0	; 0x0
3000274c:	e24dd00c 	sub	sp, sp, #12	; 0xc
30002750:	e59f2044 	ldr	r2, [pc, #68]	; 3000279c <__toupper+0x58>
30002754:	e08f2002 	add	r2, pc, r2
30002758:	e1a03000 	mov	r3, r0
3000275c:	e54b3005 	strb	r3, [fp, #-5]
30002760:	e55b1005 	ldrb	r1, [fp, #-5]
30002764:	e59f3034 	ldr	r3, [pc, #52]	; 300027a0 <__toupper+0x5c>
30002768:	e7923003 	ldr	r3, [r2, r3]
3000276c:	e7d33001 	ldrb	r3, [r3, r1]
30002770:	e2033002 	and	r3, r3, #2	; 0x2
30002774:	e3530000 	cmp	r3, #0	; 0x0
30002778:	0a000002 	beq	30002788 <__toupper+0x44>
3000277c:	e55b3005 	ldrb	r3, [fp, #-5]
30002780:	e2433020 	sub	r3, r3, #32	; 0x20
30002784:	e54b3005 	strb	r3, [fp, #-5]
30002788:	e55b3005 	ldrb	r3, [fp, #-5]
3000278c:	e1a00003 	mov	r0, r3
30002790:	e28bd000 	add	sp, fp, #0	; 0x0
30002794:	e8bd0800 	pop	{fp}
30002798:	e12fff1e 	bx	lr
3000279c:	cfffd8a4 	.word	0xcfffd8a4
300027a0:	00000580 	.word	0x00000580

300027a4 <simple_strtol>:
300027a4:	e92d4800 	push	{fp, lr}
300027a8:	e28db004 	add	fp, sp, #4	; 0x4
300027ac:	e24dd010 	sub	sp, sp, #16	; 0x10
300027b0:	e50b0008 	str	r0, [fp, #-8]
300027b4:	e50b100c 	str	r1, [fp, #-12]
300027b8:	e50b2010 	str	r2, [fp, #-16]
300027bc:	e51b3008 	ldr	r3, [fp, #-8]
300027c0:	e5d33000 	ldrb	r3, [r3]
300027c4:	e353002d 	cmp	r3, #45	; 0x2d
300027c8:	1a000009 	bne	300027f4 <simple_strtol+0x50>
300027cc:	e51b3008 	ldr	r3, [fp, #-8]
300027d0:	e2833001 	add	r3, r3, #1	; 0x1
300027d4:	e1a00003 	mov	r0, r3
300027d8:	e51b100c 	ldr	r1, [fp, #-12]
300027dc:	e51b2010 	ldr	r2, [fp, #-16]
300027e0:	ebffff55 	bl	3000253c <simple_strtoul>
300027e4:	e1a03000 	mov	r3, r0
300027e8:	e2633000 	rsb	r3, r3, #0	; 0x0
300027ec:	e50b3014 	str	r3, [fp, #-20]
300027f0:	ea000005 	b	3000280c <simple_strtol+0x68>
300027f4:	e51b0008 	ldr	r0, [fp, #-8]
300027f8:	e51b100c 	ldr	r1, [fp, #-12]
300027fc:	e51b2010 	ldr	r2, [fp, #-16]
30002800:	ebffff4d 	bl	3000253c <simple_strtoul>
30002804:	e1a03000 	mov	r3, r0
30002808:	e50b3014 	str	r3, [fp, #-20]
3000280c:	e51b3014 	ldr	r3, [fp, #-20]
30002810:	e1a00003 	mov	r0, r3
30002814:	e24bd004 	sub	sp, fp, #4	; 0x4
30002818:	e8bd4800 	pop	{fp, lr}
3000281c:	e12fff1e 	bx	lr

30002820 <simple_strtoull>:
30002820:	e92d4870 	push	{r4, r5, r6, fp, lr}
30002824:	e28db010 	add	fp, sp, #16	; 0x10
30002828:	e24dd03c 	sub	sp, sp, #60	; 0x3c
3000282c:	e59f32c0 	ldr	r3, [pc, #704]	; 30002af4 <simple_strtoull+0x2d4>
30002830:	e50b3048 	str	r3, [fp, #-72]
30002834:	e51b5048 	ldr	r5, [fp, #-72]
30002838:	e08f5005 	add	r5, pc, r5
3000283c:	e50b5048 	str	r5, [fp, #-72]
30002840:	e50b0028 	str	r0, [fp, #-40]
30002844:	e50b102c 	str	r1, [fp, #-44]
30002848:	e50b2030 	str	r2, [fp, #-48]
3000284c:	e3a03000 	mov	r3, #0	; 0x0
30002850:	e3a04000 	mov	r4, #0	; 0x0
30002854:	e50b3024 	str	r3, [fp, #-36]
30002858:	e50b4020 	str	r4, [fp, #-32]
3000285c:	e51b3030 	ldr	r3, [fp, #-48]
30002860:	e3530000 	cmp	r3, #0	; 0x0
30002864:	1a000022 	bne	300028f4 <simple_strtoull+0xd4>
30002868:	e3a0300a 	mov	r3, #10	; 0xa
3000286c:	e50b3030 	str	r3, [fp, #-48]
30002870:	e51b3028 	ldr	r3, [fp, #-40]
30002874:	e5d33000 	ldrb	r3, [r3]
30002878:	e3530030 	cmp	r3, #48	; 0x30
3000287c:	1a000045 	bne	30002998 <simple_strtoull+0x178>
30002880:	e3a03008 	mov	r3, #8	; 0x8
30002884:	e50b3030 	str	r3, [fp, #-48]
30002888:	e51b3028 	ldr	r3, [fp, #-40]
3000288c:	e2833001 	add	r3, r3, #1	; 0x1
30002890:	e50b3028 	str	r3, [fp, #-40]
30002894:	e51b3028 	ldr	r3, [fp, #-40]
30002898:	e5d33000 	ldrb	r3, [r3]
3000289c:	e1a00003 	mov	r0, r3
300028a0:	ebffffa7 	bl	30002744 <__toupper>
300028a4:	e1a03000 	mov	r3, r0
300028a8:	e3530058 	cmp	r3, #88	; 0x58
300028ac:	1a000039 	bne	30002998 <simple_strtoull+0x178>
300028b0:	e51b3028 	ldr	r3, [fp, #-40]
300028b4:	e2833001 	add	r3, r3, #1	; 0x1
300028b8:	e5d33000 	ldrb	r3, [r3]
300028bc:	e1a02003 	mov	r2, r3
300028c0:	e59f3230 	ldr	r3, [pc, #560]	; 30002af8 <simple_strtoull+0x2d8>
300028c4:	e51b6048 	ldr	r6, [fp, #-72]
300028c8:	e7963003 	ldr	r3, [r6, r3]
300028cc:	e7d33002 	ldrb	r3, [r3, r2]
300028d0:	e2033044 	and	r3, r3, #68	; 0x44
300028d4:	e3530000 	cmp	r3, #0	; 0x0
300028d8:	0a00002e 	beq	30002998 <simple_strtoull+0x178>
300028dc:	e51b3028 	ldr	r3, [fp, #-40]
300028e0:	e2833001 	add	r3, r3, #1	; 0x1
300028e4:	e50b3028 	str	r3, [fp, #-40]
300028e8:	e3a03010 	mov	r3, #16	; 0x10
300028ec:	e50b3030 	str	r3, [fp, #-48]
300028f0:	ea000028 	b	30002998 <simple_strtoull+0x178>
300028f4:	e51b3030 	ldr	r3, [fp, #-48]
300028f8:	e3530010 	cmp	r3, #16	; 0x10
300028fc:	1a000025 	bne	30002998 <simple_strtoull+0x178>
30002900:	e51b3028 	ldr	r3, [fp, #-40]
30002904:	e5d33000 	ldrb	r3, [r3]
30002908:	e3530030 	cmp	r3, #48	; 0x30
3000290c:	1a000021 	bne	30002998 <simple_strtoull+0x178>
30002910:	e51b3028 	ldr	r3, [fp, #-40]
30002914:	e2833001 	add	r3, r3, #1	; 0x1
30002918:	e5d33000 	ldrb	r3, [r3]
3000291c:	e1a00003 	mov	r0, r3
30002920:	ebffff87 	bl	30002744 <__toupper>
30002924:	e1a03000 	mov	r3, r0
30002928:	e3530058 	cmp	r3, #88	; 0x58
3000292c:	1a000019 	bne	30002998 <simple_strtoull+0x178>
30002930:	e51b3028 	ldr	r3, [fp, #-40]
30002934:	e2833002 	add	r3, r3, #2	; 0x2
30002938:	e50b3028 	str	r3, [fp, #-40]
3000293c:	ea000015 	b	30002998 <simple_strtoull+0x178>
30002940:	e51b3030 	ldr	r3, [fp, #-48]
30002944:	e3a04000 	mov	r4, #0	; 0x0
30002948:	e51b2024 	ldr	r2, [fp, #-36]
3000294c:	e0010294 	mul	r1, r4, r2
30002950:	e51b2020 	ldr	r2, [fp, #-32]
30002954:	e0020293 	mul	r2, r3, r2
30002958:	e0811002 	add	r1, r1, r2
3000295c:	e51b2024 	ldr	r2, [fp, #-36]
30002960:	e0865392 	umull	r5, r6, r2, r3
30002964:	e1a03005 	mov	r3, r5
30002968:	e1a04006 	mov	r4, r6
3000296c:	e0811004 	add	r1, r1, r4
30002970:	e1a04001 	mov	r4, r1
30002974:	e24b201c 	sub	r2, fp, #28	; 0x1c
30002978:	e8920006 	ldm	r2, {r1, r2}
3000297c:	e0933001 	adds	r3, r3, r1
30002980:	e0a44002 	adc	r4, r4, r2
30002984:	e50b3024 	str	r3, [fp, #-36]
30002988:	e50b4020 	str	r4, [fp, #-32]
3000298c:	e51b3028 	ldr	r3, [fp, #-40]
30002990:	e2833001 	add	r3, r3, #1	; 0x1
30002994:	e50b3028 	str	r3, [fp, #-40]
30002998:	e51b3028 	ldr	r3, [fp, #-40]
3000299c:	e5d33000 	ldrb	r3, [r3]
300029a0:	e1a02003 	mov	r2, r3
300029a4:	e59f314c 	ldr	r3, [pc, #332]	; 30002af8 <simple_strtoull+0x2d8>
300029a8:	e51b6048 	ldr	r6, [fp, #-72]
300029ac:	e7963003 	ldr	r3, [r6, r3]
300029b0:	e7d33002 	ldrb	r3, [r3, r2]
300029b4:	e2033044 	and	r3, r3, #68	; 0x44
300029b8:	e3530000 	cmp	r3, #0	; 0x0
300029bc:	0a00003f 	beq	30002ac0 <simple_strtoull+0x2a0>
300029c0:	e51b3028 	ldr	r3, [fp, #-40]
300029c4:	e5d33000 	ldrb	r3, [r3]
300029c8:	e1a02003 	mov	r2, r3
300029cc:	e59f3124 	ldr	r3, [pc, #292]	; 30002af8 <simple_strtoull+0x2d8>
300029d0:	e51b1048 	ldr	r1, [fp, #-72]
300029d4:	e7913003 	ldr	r3, [r1, r3]
300029d8:	e7d33002 	ldrb	r3, [r3, r2]
300029dc:	e2033004 	and	r3, r3, #4	; 0x4
300029e0:	e3530000 	cmp	r3, #0	; 0x0
300029e4:	0a000004 	beq	300029fc <simple_strtoull+0x1dc>
300029e8:	e51b3028 	ldr	r3, [fp, #-40]
300029ec:	e5d33000 	ldrb	r3, [r3]
300029f0:	e2433030 	sub	r3, r3, #48	; 0x30
300029f4:	e50b3044 	str	r3, [fp, #-68]
300029f8:	ea000017 	b	30002a5c <simple_strtoull+0x23c>
300029fc:	e51b3028 	ldr	r3, [fp, #-40]
30002a00:	e5d33000 	ldrb	r3, [r3]
30002a04:	e1a02003 	mov	r2, r3
30002a08:	e59f30e8 	ldr	r3, [pc, #232]	; 30002af8 <simple_strtoull+0x2d8>
30002a0c:	e51b5048 	ldr	r5, [fp, #-72]
30002a10:	e7953003 	ldr	r3, [r5, r3]
30002a14:	e7d33002 	ldrb	r3, [r3, r2]
30002a18:	e2033002 	and	r3, r3, #2	; 0x2
30002a1c:	e3530000 	cmp	r3, #0	; 0x0
30002a20:	0a000007 	beq	30002a44 <simple_strtoull+0x224>
30002a24:	e51b3028 	ldr	r3, [fp, #-40]
30002a28:	e5d33000 	ldrb	r3, [r3]
30002a2c:	e1a00003 	mov	r0, r3
30002a30:	ebffff43 	bl	30002744 <__toupper>
30002a34:	e1a03000 	mov	r3, r0
30002a38:	e2433037 	sub	r3, r3, #55	; 0x37
30002a3c:	e50b3040 	str	r3, [fp, #-64]
30002a40:	ea000003 	b	30002a54 <simple_strtoull+0x234>
30002a44:	e51b3028 	ldr	r3, [fp, #-40]
30002a48:	e5d33000 	ldrb	r3, [r3]
30002a4c:	e2433037 	sub	r3, r3, #55	; 0x37
30002a50:	e50b3040 	str	r3, [fp, #-64]
30002a54:	e51b6040 	ldr	r6, [fp, #-64]
30002a58:	e50b6044 	str	r6, [fp, #-68]
30002a5c:	e51b1044 	ldr	r1, [fp, #-68]
30002a60:	e1a03001 	mov	r3, r1
30002a64:	e1a04fc3 	asr	r4, r3, #31
30002a68:	e50b301c 	str	r3, [fp, #-28]
30002a6c:	e50b4018 	str	r4, [fp, #-24]
30002a70:	e51b3030 	ldr	r3, [fp, #-48]
30002a74:	e1a05003 	mov	r5, r3
30002a78:	e3a06000 	mov	r6, #0	; 0x0
30002a7c:	e50b503c 	str	r5, [fp, #-60]
30002a80:	e50b6038 	str	r6, [fp, #-56]
30002a84:	e51b3018 	ldr	r3, [fp, #-24]
30002a88:	e51b6038 	ldr	r6, [fp, #-56]
30002a8c:	e1530006 	cmp	r3, r6
30002a90:	3affffaa 	bcc	30002940 <simple_strtoull+0x120>
30002a94:	e51b3018 	ldr	r3, [fp, #-24]
30002a98:	e51b1038 	ldr	r1, [fp, #-56]
30002a9c:	e1530001 	cmp	r3, r1
30002aa0:	1a000006 	bne	30002ac0 <simple_strtoull+0x2a0>
30002aa4:	e51b301c 	ldr	r3, [fp, #-28]
30002aa8:	e51b203c 	ldr	r2, [fp, #-60]
30002aac:	e1530002 	cmp	r3, r2
30002ab0:	3affffa2 	bcc	30002940 <simple_strtoull+0x120>
30002ab4:	e51b301c 	ldr	r3, [fp, #-28]
30002ab8:	e51b503c 	ldr	r5, [fp, #-60]
30002abc:	e1530005 	cmp	r3, r5
30002ac0:	e51b302c 	ldr	r3, [fp, #-44]
30002ac4:	e3530000 	cmp	r3, #0	; 0x0
30002ac8:	0a000002 	beq	30002ad8 <simple_strtoull+0x2b8>
30002acc:	e51b2028 	ldr	r2, [fp, #-40]
30002ad0:	e51b302c 	ldr	r3, [fp, #-44]
30002ad4:	e5832000 	str	r2, [r3]
30002ad8:	e24b4024 	sub	r4, fp, #36	; 0x24
30002adc:	e8940018 	ldm	r4, {r3, r4}
30002ae0:	e1a00003 	mov	r0, r3
30002ae4:	e1a01004 	mov	r1, r4
30002ae8:	e24bd010 	sub	sp, fp, #16	; 0x10
30002aec:	e8bd4870 	pop	{r4, r5, r6, fp, lr}
30002af0:	e12fff1e 	bx	lr
30002af4:	cfffd7c0 	.word	0xcfffd7c0
30002af8:	00000580 	.word	0x00000580

30002afc <simple_strtoll>:
30002afc:	e92d4810 	push	{r4, fp, lr}
30002b00:	e28db008 	add	fp, sp, #8	; 0x8
30002b04:	e24dd01c 	sub	sp, sp, #28	; 0x1c
30002b08:	e50b0010 	str	r0, [fp, #-16]
30002b0c:	e50b1014 	str	r1, [fp, #-20]
30002b10:	e50b2018 	str	r2, [fp, #-24]
30002b14:	e51b3010 	ldr	r3, [fp, #-16]
30002b18:	e5d33000 	ldrb	r3, [r3]
30002b1c:	e353002d 	cmp	r3, #45	; 0x2d
30002b20:	1a00000c 	bne	30002b58 <simple_strtoll+0x5c>
30002b24:	e51b3010 	ldr	r3, [fp, #-16]
30002b28:	e2833001 	add	r3, r3, #1	; 0x1
30002b2c:	e1a00003 	mov	r0, r3
30002b30:	e51b1014 	ldr	r1, [fp, #-20]
30002b34:	e51b2018 	ldr	r2, [fp, #-24]
30002b38:	ebffff38 	bl	30002820 <simple_strtoull>
30002b3c:	e1a03000 	mov	r3, r0
30002b40:	e1a04001 	mov	r4, r1
30002b44:	e2733000 	rsbs	r3, r3, #0	; 0x0
30002b48:	e2e44000 	rsc	r4, r4, #0	; 0x0
30002b4c:	e50b3024 	str	r3, [fp, #-36]
30002b50:	e50b4020 	str	r4, [fp, #-32]
30002b54:	ea000007 	b	30002b78 <simple_strtoll+0x7c>
30002b58:	e51b0010 	ldr	r0, [fp, #-16]
30002b5c:	e51b1014 	ldr	r1, [fp, #-20]
30002b60:	e51b2018 	ldr	r2, [fp, #-24]
30002b64:	ebffff2d 	bl	30002820 <simple_strtoull>
30002b68:	e1a03000 	mov	r3, r0
30002b6c:	e1a04001 	mov	r4, r1
30002b70:	e50b3024 	str	r3, [fp, #-36]
30002b74:	e50b4020 	str	r4, [fp, #-32]
30002b78:	e24b4024 	sub	r4, fp, #36	; 0x24
30002b7c:	e8940018 	ldm	r4, {r3, r4}
30002b80:	e1a00003 	mov	r0, r3
30002b84:	e1a01004 	mov	r1, r4
30002b88:	e24bd008 	sub	sp, fp, #8	; 0x8
30002b8c:	e8bd4810 	pop	{r4, fp, lr}
30002b90:	e12fff1e 	bx	lr

30002b94 <skip_atoi>:
30002b94:	e52db004 	push	{fp}		; (str fp, [sp, #-4]!)
30002b98:	e28db000 	add	fp, sp, #0	; 0x0
30002b9c:	e24dd014 	sub	sp, sp, #20	; 0x14
30002ba0:	e59f1098 	ldr	r1, [pc, #152]	; 30002c40 <skip_atoi+0xac>
30002ba4:	e50b1014 	str	r1, [fp, #-20]
30002ba8:	e51b3014 	ldr	r3, [fp, #-20]
30002bac:	e08f3003 	add	r3, pc, r3
30002bb0:	e50b3014 	str	r3, [fp, #-20]
30002bb4:	e50b0010 	str	r0, [fp, #-16]
30002bb8:	e3a03000 	mov	r3, #0	; 0x0
30002bbc:	e50b3008 	str	r3, [fp, #-8]
30002bc0:	ea00000e 	b	30002c00 <skip_atoi+0x6c>
30002bc4:	e51b2008 	ldr	r2, [fp, #-8]
30002bc8:	e1a03002 	mov	r3, r2
30002bcc:	e1a03103 	lsl	r3, r3, #2
30002bd0:	e0833002 	add	r3, r3, r2
30002bd4:	e1a03083 	lsl	r3, r3, #1
30002bd8:	e1a02003 	mov	r2, r3
30002bdc:	e51b3010 	ldr	r3, [fp, #-16]
30002be0:	e5931000 	ldr	r1, [r3]
30002be4:	e5d13000 	ldrb	r3, [r1]
30002be8:	e0823003 	add	r3, r2, r3
30002bec:	e2433030 	sub	r3, r3, #48	; 0x30
30002bf0:	e50b3008 	str	r3, [fp, #-8]
30002bf4:	e2812001 	add	r2, r1, #1	; 0x1
30002bf8:	e51b3010 	ldr	r3, [fp, #-16]
30002bfc:	e5832000 	str	r2, [r3]
30002c00:	e51b3010 	ldr	r3, [fp, #-16]
30002c04:	e5933000 	ldr	r3, [r3]
30002c08:	e5d33000 	ldrb	r3, [r3]
30002c0c:	e1a02003 	mov	r2, r3
30002c10:	e59f302c 	ldr	r3, [pc, #44]	; 30002c44 <skip_atoi+0xb0>
30002c14:	e51b1014 	ldr	r1, [fp, #-20]
30002c18:	e7913003 	ldr	r3, [r1, r3]
30002c1c:	e7d33002 	ldrb	r3, [r3, r2]
30002c20:	e2033004 	and	r3, r3, #4	; 0x4
30002c24:	e3530000 	cmp	r3, #0	; 0x0
30002c28:	1affffe5 	bne	30002bc4 <skip_atoi+0x30>
30002c2c:	e51b3008 	ldr	r3, [fp, #-8]
30002c30:	e1a00003 	mov	r0, r3
30002c34:	e28bd000 	add	sp, fp, #0	; 0x0
30002c38:	e8bd0800 	pop	{fp}
30002c3c:	e12fff1e 	bx	lr
30002c40:	cfffd44c 	.word	0xcfffd44c
30002c44:	00000580 	.word	0x00000580

30002c48 <number>:
30002c48:	e92d4830 	push	{r4, r5, fp, lr}
30002c4c:	e28db00c 	add	fp, sp, #12	; 0xc
30002c50:	e24dd078 	sub	sp, sp, #120	; 0x78
30002c54:	e59f4588 	ldr	r4, [pc, #1416]	; 300031e4 <number+0x59c>
30002c58:	e50b4084 	str	r4, [fp, #-132]
30002c5c:	e51bc084 	ldr	ip, [fp, #-132]
30002c60:	e08fc00c 	add	ip, pc, ip
30002c64:	e50bc084 	str	ip, [fp, #-132]
30002c68:	e50b0060 	str	r0, [fp, #-96]
30002c6c:	e50b1064 	str	r1, [fp, #-100]
30002c70:	e50b206c 	str	r2, [fp, #-108]
30002c74:	e50b3068 	str	r3, [fp, #-104]
30002c78:	e59b3010 	ldr	r3, [fp, #16]
30002c7c:	e2033040 	and	r3, r3, #64	; 0x40
30002c80:	e3530000 	cmp	r3, #0	; 0x0
30002c84:	0a000004 	beq	30002c9c <number+0x54>
30002c88:	e59f3558 	ldr	r3, [pc, #1368]	; 300031e8 <number+0x5a0>
30002c8c:	e51b0084 	ldr	r0, [fp, #-132]
30002c90:	e0803003 	add	r3, r0, r3
30002c94:	e50b3080 	str	r3, [fp, #-128]
30002c98:	ea000003 	b	30002cac <number+0x64>
30002c9c:	e59f3548 	ldr	r3, [pc, #1352]	; 300031ec <number+0x5a4>
30002ca0:	e51b1084 	ldr	r1, [fp, #-132]
30002ca4:	e0813003 	add	r3, r1, r3
30002ca8:	e50b3080 	str	r3, [fp, #-128]
30002cac:	e51b2080 	ldr	r2, [fp, #-128]
30002cb0:	e50b2014 	str	r2, [fp, #-20]
30002cb4:	e59b3010 	ldr	r3, [fp, #16]
30002cb8:	e2033010 	and	r3, r3, #16	; 0x10
30002cbc:	e3530000 	cmp	r3, #0	; 0x0
30002cc0:	0a000002 	beq	30002cd0 <number+0x88>
30002cc4:	e59b3010 	ldr	r3, [fp, #16]
30002cc8:	e3c33001 	bic	r3, r3, #1	; 0x1
30002ccc:	e58b3010 	str	r3, [fp, #16]
30002cd0:	e59b3004 	ldr	r3, [fp, #4]
30002cd4:	e3530001 	cmp	r3, #1	; 0x1
30002cd8:	da000002 	ble	30002ce8 <number+0xa0>
30002cdc:	e59b3004 	ldr	r3, [fp, #4]
30002ce0:	e3530024 	cmp	r3, #36	; 0x24
30002ce4:	da000002 	ble	30002cf4 <number+0xac>
30002ce8:	e3a03000 	mov	r3, #0	; 0x0
30002cec:	e50b307c 	str	r3, [fp, #-124]
30002cf0:	ea000136 	b	300031d0 <number+0x588>
30002cf4:	e59b3010 	ldr	r3, [fp, #16]
30002cf8:	e2033001 	and	r3, r3, #1	; 0x1
30002cfc:	e20330ff 	and	r3, r3, #255	; 0xff
30002d00:	e3530000 	cmp	r3, #0	; 0x0
30002d04:	0a000002 	beq	30002d14 <number+0xcc>
30002d08:	e3a04030 	mov	r4, #48	; 0x30
30002d0c:	e50b4078 	str	r4, [fp, #-120]
30002d10:	ea000001 	b	30002d1c <number+0xd4>
30002d14:	e3a0c020 	mov	ip, #32	; 0x20
30002d18:	e50bc078 	str	ip, [fp, #-120]
30002d1c:	e51b0078 	ldr	r0, [fp, #-120]
30002d20:	e1a03000 	mov	r3, r0
30002d24:	e54b3016 	strb	r3, [fp, #-22]
30002d28:	e3a03000 	mov	r3, #0	; 0x0
30002d2c:	e54b3015 	strb	r3, [fp, #-21]
30002d30:	e59b3010 	ldr	r3, [fp, #16]
30002d34:	e2033002 	and	r3, r3, #2	; 0x2
30002d38:	e3530000 	cmp	r3, #0	; 0x0
30002d3c:	0a00002b 	beq	30002df0 <number+0x1a8>
30002d40:	e24b206c 	sub	r2, fp, #108	; 0x6c
30002d44:	e8920006 	ldm	r2, {r1, r2}
30002d48:	e50b1074 	str	r1, [fp, #-116]
30002d4c:	e50b2070 	str	r2, [fp, #-112]
30002d50:	e51b2070 	ldr	r2, [fp, #-112]
30002d54:	e3520000 	cmp	r2, #0	; 0x0
30002d58:	ba000005 	blt	30002d74 <number+0x12c>
30002d5c:	e51b3070 	ldr	r3, [fp, #-112]
30002d60:	e3530000 	cmp	r3, #0	; 0x0
30002d64:	1a00000e 	bne	30002da4 <number+0x15c>
30002d68:	e51b4074 	ldr	r4, [fp, #-116]
30002d6c:	e3540000 	cmp	r4, #0	; 0x0
30002d70:	ea00000b 	b	30002da4 <number+0x15c>
30002d74:	e3a0302d 	mov	r3, #45	; 0x2d
30002d78:	e54b3015 	strb	r3, [fp, #-21]
30002d7c:	e24b406c 	sub	r4, fp, #108	; 0x6c
30002d80:	e8940018 	ldm	r4, {r3, r4}
30002d84:	e2733000 	rsbs	r3, r3, #0	; 0x0
30002d88:	e2e44000 	rsc	r4, r4, #0	; 0x0
30002d8c:	e50b306c 	str	r3, [fp, #-108]
30002d90:	e50b4068 	str	r4, [fp, #-104]
30002d94:	e59b3008 	ldr	r3, [fp, #8]
30002d98:	e2433001 	sub	r3, r3, #1	; 0x1
30002d9c:	e58b3008 	str	r3, [fp, #8]
30002da0:	ea000012 	b	30002df0 <number+0x1a8>
30002da4:	e59b3010 	ldr	r3, [fp, #16]
30002da8:	e2033004 	and	r3, r3, #4	; 0x4
30002dac:	e3530000 	cmp	r3, #0	; 0x0
30002db0:	0a000005 	beq	30002dcc <number+0x184>
30002db4:	e3a0302b 	mov	r3, #43	; 0x2b
30002db8:	e54b3015 	strb	r3, [fp, #-21]
30002dbc:	e59b3008 	ldr	r3, [fp, #8]
30002dc0:	e2433001 	sub	r3, r3, #1	; 0x1
30002dc4:	e58b3008 	str	r3, [fp, #8]
30002dc8:	ea000008 	b	30002df0 <number+0x1a8>
30002dcc:	e59b3010 	ldr	r3, [fp, #16]
30002dd0:	e2033008 	and	r3, r3, #8	; 0x8
30002dd4:	e3530000 	cmp	r3, #0	; 0x0
30002dd8:	0a000004 	beq	30002df0 <number+0x1a8>
30002ddc:	e3a03020 	mov	r3, #32	; 0x20
30002de0:	e54b3015 	strb	r3, [fp, #-21]
30002de4:	e59b3008 	ldr	r3, [fp, #8]
30002de8:	e2433001 	sub	r3, r3, #1	; 0x1
30002dec:	e58b3008 	str	r3, [fp, #8]
30002df0:	e59b3010 	ldr	r3, [fp, #16]
30002df4:	e2033020 	and	r3, r3, #32	; 0x20
30002df8:	e3530000 	cmp	r3, #0	; 0x0
30002dfc:	0a00000c 	beq	30002e34 <number+0x1ec>
30002e00:	e59b3004 	ldr	r3, [fp, #4]
30002e04:	e3530010 	cmp	r3, #16	; 0x10
30002e08:	1a000003 	bne	30002e1c <number+0x1d4>
30002e0c:	e59b3008 	ldr	r3, [fp, #8]
30002e10:	e2433002 	sub	r3, r3, #2	; 0x2
30002e14:	e58b3008 	str	r3, [fp, #8]
30002e18:	ea000005 	b	30002e34 <number+0x1ec>
30002e1c:	e59b3004 	ldr	r3, [fp, #4]
30002e20:	e3530008 	cmp	r3, #8	; 0x8
30002e24:	1a000002 	bne	30002e34 <number+0x1ec>
30002e28:	e59b3008 	ldr	r3, [fp, #8]
30002e2c:	e2433001 	sub	r3, r3, #1	; 0x1
30002e30:	e58b3008 	str	r3, [fp, #8]
30002e34:	e3a03000 	mov	r3, #0	; 0x0
30002e38:	e50b3010 	str	r3, [fp, #-16]
30002e3c:	e51b306c 	ldr	r3, [fp, #-108]
30002e40:	e51b2068 	ldr	r2, [fp, #-104]
30002e44:	e1833002 	orr	r3, r3, r2
30002e48:	e3530000 	cmp	r3, #0	; 0x0
30002e4c:	1a00001f 	bne	30002ed0 <number+0x288>
30002e50:	e51b3010 	ldr	r3, [fp, #-16]
30002e54:	e3e0204b 	mvn	r2, #75	; 0x4b
30002e58:	e24bc00c 	sub	ip, fp, #12	; 0xc
30002e5c:	e08c3003 	add	r3, ip, r3
30002e60:	e0832002 	add	r2, r3, r2
30002e64:	e3a03030 	mov	r3, #48	; 0x30
30002e68:	e5c23000 	strb	r3, [r2]
30002e6c:	e51b3010 	ldr	r3, [fp, #-16]
30002e70:	e2833001 	add	r3, r3, #1	; 0x1
30002e74:	e50b3010 	str	r3, [fp, #-16]
30002e78:	ea000019 	b	30002ee4 <number+0x29c>
30002e7c:	e51b5010 	ldr	r5, [fp, #-16]
30002e80:	e59b3004 	ldr	r3, [fp, #4]
30002e84:	e1a04003 	mov	r4, r3
30002e88:	e24b106c 	sub	r1, fp, #108	; 0x6c
30002e8c:	e8910003 	ldm	r1, {r0, r1}
30002e90:	eb00077a 	bl	30004c80 <__do_div64>
30002e94:	e50b206c 	str	r2, [fp, #-108]
30002e98:	e50b3068 	str	r3, [fp, #-104]
30002e9c:	e1a02001 	mov	r2, r1
30002ea0:	e51b3014 	ldr	r3, [fp, #-20]
30002ea4:	e0833002 	add	r3, r3, r2
30002ea8:	e5d31000 	ldrb	r1, [r3]
30002eac:	e3e0204b 	mvn	r2, #75	; 0x4b
30002eb0:	e24b000c 	sub	r0, fp, #12	; 0xc
30002eb4:	e0803005 	add	r3, r0, r5
30002eb8:	e0832002 	add	r2, r3, r2
30002ebc:	e1a03001 	mov	r3, r1
30002ec0:	e5c23000 	strb	r3, [r2]
30002ec4:	e51b3010 	ldr	r3, [fp, #-16]
30002ec8:	e2833001 	add	r3, r3, #1	; 0x1
30002ecc:	e50b3010 	str	r3, [fp, #-16]
30002ed0:	e51b306c 	ldr	r3, [fp, #-108]
30002ed4:	e51b2068 	ldr	r2, [fp, #-104]
30002ed8:	e1833002 	orr	r3, r3, r2
30002edc:	e3530000 	cmp	r3, #0	; 0x0
30002ee0:	1affffe5 	bne	30002e7c <number+0x234>
30002ee4:	e51b2010 	ldr	r2, [fp, #-16]
30002ee8:	e59b300c 	ldr	r3, [fp, #12]
30002eec:	e1520003 	cmp	r2, r3
30002ef0:	da000001 	ble	30002efc <number+0x2b4>
30002ef4:	e51b3010 	ldr	r3, [fp, #-16]
30002ef8:	e58b300c 	str	r3, [fp, #12]
30002efc:	e59b2008 	ldr	r2, [fp, #8]
30002f00:	e59b300c 	ldr	r3, [fp, #12]
30002f04:	e0633002 	rsb	r3, r3, r2
30002f08:	e58b3008 	str	r3, [fp, #8]
30002f0c:	e59b3010 	ldr	r3, [fp, #16]
30002f10:	e2033011 	and	r3, r3, #17	; 0x11
30002f14:	e3530000 	cmp	r3, #0	; 0x0
30002f18:	1a000014 	bne	30002f70 <number+0x328>
30002f1c:	ea000009 	b	30002f48 <number+0x300>
30002f20:	e51b2060 	ldr	r2, [fp, #-96]
30002f24:	e51b3064 	ldr	r3, [fp, #-100]
30002f28:	e1520003 	cmp	r2, r3
30002f2c:	8a000002 	bhi	30002f3c <number+0x2f4>
30002f30:	e51b3060 	ldr	r3, [fp, #-96]
30002f34:	e3a02020 	mov	r2, #32	; 0x20
30002f38:	e5c32000 	strb	r2, [r3]
30002f3c:	e51b3060 	ldr	r3, [fp, #-96]
30002f40:	e2833001 	add	r3, r3, #1	; 0x1
30002f44:	e50b3060 	str	r3, [fp, #-96]
30002f48:	e59b3008 	ldr	r3, [fp, #8]
30002f4c:	e3530000 	cmp	r3, #0	; 0x0
30002f50:	d3a03000 	movle	r3, #0	; 0x0
30002f54:	c3a03001 	movgt	r3, #1	; 0x1
30002f58:	e20320ff 	and	r2, r3, #255	; 0xff
30002f5c:	e59b3008 	ldr	r3, [fp, #8]
30002f60:	e2433001 	sub	r3, r3, #1	; 0x1
30002f64:	e58b3008 	str	r3, [fp, #8]
30002f68:	e3520000 	cmp	r2, #0	; 0x0
30002f6c:	1affffeb 	bne	30002f20 <number+0x2d8>
30002f70:	e55b3015 	ldrb	r3, [fp, #-21]
30002f74:	e3530000 	cmp	r3, #0	; 0x0
30002f78:	0a000009 	beq	30002fa4 <number+0x35c>
30002f7c:	e51b2060 	ldr	r2, [fp, #-96]
30002f80:	e51b3064 	ldr	r3, [fp, #-100]
30002f84:	e1520003 	cmp	r2, r3
30002f88:	8a000002 	bhi	30002f98 <number+0x350>
30002f8c:	e51b2060 	ldr	r2, [fp, #-96]
30002f90:	e55b3015 	ldrb	r3, [fp, #-21]
30002f94:	e5c23000 	strb	r3, [r2]
30002f98:	e51b3060 	ldr	r3, [fp, #-96]
30002f9c:	e2833001 	add	r3, r3, #1	; 0x1
30002fa0:	e50b3060 	str	r3, [fp, #-96]
30002fa4:	e59b3010 	ldr	r3, [fp, #16]
30002fa8:	e2033020 	and	r3, r3, #32	; 0x20
30002fac:	e3530000 	cmp	r3, #0	; 0x0
30002fb0:	0a000026 	beq	30003050 <number+0x408>
30002fb4:	e59b3004 	ldr	r3, [fp, #4]
30002fb8:	e3530008 	cmp	r3, #8	; 0x8
30002fbc:	1a00000a 	bne	30002fec <number+0x3a4>
30002fc0:	e51b2060 	ldr	r2, [fp, #-96]
30002fc4:	e51b3064 	ldr	r3, [fp, #-100]
30002fc8:	e1520003 	cmp	r2, r3
30002fcc:	8a000002 	bhi	30002fdc <number+0x394>
30002fd0:	e51b3060 	ldr	r3, [fp, #-96]
30002fd4:	e3a02030 	mov	r2, #48	; 0x30
30002fd8:	e5c32000 	strb	r2, [r3]
30002fdc:	e51b3060 	ldr	r3, [fp, #-96]
30002fe0:	e2833001 	add	r3, r3, #1	; 0x1
30002fe4:	e50b3060 	str	r3, [fp, #-96]
30002fe8:	ea000018 	b	30003050 <number+0x408>
30002fec:	e59b3004 	ldr	r3, [fp, #4]
30002ff0:	e3530010 	cmp	r3, #16	; 0x10
30002ff4:	1a000015 	bne	30003050 <number+0x408>
30002ff8:	e51b2060 	ldr	r2, [fp, #-96]
30002ffc:	e51b3064 	ldr	r3, [fp, #-100]
30003000:	e1520003 	cmp	r2, r3
30003004:	8a000002 	bhi	30003014 <number+0x3cc>
30003008:	e51b3060 	ldr	r3, [fp, #-96]
3000300c:	e3a02030 	mov	r2, #48	; 0x30
30003010:	e5c32000 	strb	r2, [r3]
30003014:	e51b3060 	ldr	r3, [fp, #-96]
30003018:	e2833001 	add	r3, r3, #1	; 0x1
3000301c:	e50b3060 	str	r3, [fp, #-96]
30003020:	e51b2060 	ldr	r2, [fp, #-96]
30003024:	e51b3064 	ldr	r3, [fp, #-100]
30003028:	e1520003 	cmp	r2, r3
3000302c:	8a000004 	bhi	30003044 <number+0x3fc>
30003030:	e51b3014 	ldr	r3, [fp, #-20]
30003034:	e2833021 	add	r3, r3, #33	; 0x21
30003038:	e5d33000 	ldrb	r3, [r3]
3000303c:	e51b2060 	ldr	r2, [fp, #-96]
30003040:	e5c23000 	strb	r3, [r2]
30003044:	e51b3060 	ldr	r3, [fp, #-96]
30003048:	e2833001 	add	r3, r3, #1	; 0x1
3000304c:	e50b3060 	str	r3, [fp, #-96]
30003050:	e59b3010 	ldr	r3, [fp, #16]
30003054:	e2033010 	and	r3, r3, #16	; 0x10
30003058:	e3530000 	cmp	r3, #0	; 0x0
3000305c:	1a00001f 	bne	300030e0 <number+0x498>
30003060:	ea000009 	b	3000308c <number+0x444>
30003064:	e51b2060 	ldr	r2, [fp, #-96]
30003068:	e51b3064 	ldr	r3, [fp, #-100]
3000306c:	e1520003 	cmp	r2, r3
30003070:	8a000002 	bhi	30003080 <number+0x438>
30003074:	e51b2060 	ldr	r2, [fp, #-96]
30003078:	e55b3016 	ldrb	r3, [fp, #-22]
3000307c:	e5c23000 	strb	r3, [r2]
30003080:	e51b3060 	ldr	r3, [fp, #-96]
30003084:	e2833001 	add	r3, r3, #1	; 0x1
30003088:	e50b3060 	str	r3, [fp, #-96]
3000308c:	e59b3008 	ldr	r3, [fp, #8]
30003090:	e3530000 	cmp	r3, #0	; 0x0
30003094:	d3a03000 	movle	r3, #0	; 0x0
30003098:	c3a03001 	movgt	r3, #1	; 0x1
3000309c:	e20320ff 	and	r2, r3, #255	; 0xff
300030a0:	e59b3008 	ldr	r3, [fp, #8]
300030a4:	e2433001 	sub	r3, r3, #1	; 0x1
300030a8:	e58b3008 	str	r3, [fp, #8]
300030ac:	e3520000 	cmp	r2, #0	; 0x0
300030b0:	1affffeb 	bne	30003064 <number+0x41c>
300030b4:	ea000009 	b	300030e0 <number+0x498>
300030b8:	e51b2060 	ldr	r2, [fp, #-96]
300030bc:	e51b3064 	ldr	r3, [fp, #-100]
300030c0:	e1520003 	cmp	r2, r3
300030c4:	8a000002 	bhi	300030d4 <number+0x48c>
300030c8:	e51b3060 	ldr	r3, [fp, #-96]
300030cc:	e3a02030 	mov	r2, #48	; 0x30
300030d0:	e5c32000 	strb	r2, [r3]
300030d4:	e51b3060 	ldr	r3, [fp, #-96]
300030d8:	e2833001 	add	r3, r3, #1	; 0x1
300030dc:	e50b3060 	str	r3, [fp, #-96]
300030e0:	e59b200c 	ldr	r2, [fp, #12]
300030e4:	e51b3010 	ldr	r3, [fp, #-16]
300030e8:	e1520003 	cmp	r2, r3
300030ec:	d3a03000 	movle	r3, #0	; 0x0
300030f0:	c3a03001 	movgt	r3, #1	; 0x1
300030f4:	e20320ff 	and	r2, r3, #255	; 0xff
300030f8:	e59b300c 	ldr	r3, [fp, #12]
300030fc:	e2433001 	sub	r3, r3, #1	; 0x1
30003100:	e58b300c 	str	r3, [fp, #12]
30003104:	e3520000 	cmp	r2, #0	; 0x0
30003108:	1affffea 	bne	300030b8 <number+0x470>
3000310c:	ea00000e 	b	3000314c <number+0x504>
30003110:	e51b2060 	ldr	r2, [fp, #-96]
30003114:	e51b3064 	ldr	r3, [fp, #-100]
30003118:	e1520003 	cmp	r2, r3
3000311c:	8a000007 	bhi	30003140 <number+0x4f8>
30003120:	e51b3010 	ldr	r3, [fp, #-16]
30003124:	e3e0204b 	mvn	r2, #75	; 0x4b
30003128:	e24b100c 	sub	r1, fp, #12	; 0xc
3000312c:	e0813003 	add	r3, r1, r3
30003130:	e0833002 	add	r3, r3, r2
30003134:	e5d33000 	ldrb	r3, [r3]
30003138:	e51b2060 	ldr	r2, [fp, #-96]
3000313c:	e5c23000 	strb	r3, [r2]
30003140:	e51b3060 	ldr	r3, [fp, #-96]
30003144:	e2833001 	add	r3, r3, #1	; 0x1
30003148:	e50b3060 	str	r3, [fp, #-96]
3000314c:	e51b3010 	ldr	r3, [fp, #-16]
30003150:	e3530000 	cmp	r3, #0	; 0x0
30003154:	d3a03000 	movle	r3, #0	; 0x0
30003158:	c3a03001 	movgt	r3, #1	; 0x1
3000315c:	e20320ff 	and	r2, r3, #255	; 0xff
30003160:	e51b3010 	ldr	r3, [fp, #-16]
30003164:	e2433001 	sub	r3, r3, #1	; 0x1
30003168:	e50b3010 	str	r3, [fp, #-16]
3000316c:	e3520000 	cmp	r2, #0	; 0x0
30003170:	1affffe6 	bne	30003110 <number+0x4c8>
30003174:	ea000009 	b	300031a0 <number+0x558>
30003178:	e51b2060 	ldr	r2, [fp, #-96]
3000317c:	e51b3064 	ldr	r3, [fp, #-100]
30003180:	e1520003 	cmp	r2, r3
30003184:	8a000002 	bhi	30003194 <number+0x54c>
30003188:	e51b3060 	ldr	r3, [fp, #-96]
3000318c:	e3a02020 	mov	r2, #32	; 0x20
30003190:	e5c32000 	strb	r2, [r3]
30003194:	e51b3060 	ldr	r3, [fp, #-96]
30003198:	e2833001 	add	r3, r3, #1	; 0x1
3000319c:	e50b3060 	str	r3, [fp, #-96]
300031a0:	e59b3008 	ldr	r3, [fp, #8]
300031a4:	e3530000 	cmp	r3, #0	; 0x0
300031a8:	d3a03000 	movle	r3, #0	; 0x0
300031ac:	c3a03001 	movgt	r3, #1	; 0x1
300031b0:	e20320ff 	and	r2, r3, #255	; 0xff
300031b4:	e59b3008 	ldr	r3, [fp, #8]
300031b8:	e2433001 	sub	r3, r3, #1	; 0x1
300031bc:	e58b3008 	str	r3, [fp, #8]
300031c0:	e3520000 	cmp	r2, #0	; 0x0
300031c4:	1affffeb 	bne	30003178 <number+0x530>
300031c8:	e51b2060 	ldr	r2, [fp, #-96]
300031cc:	e50b207c 	str	r2, [fp, #-124]
300031d0:	e51b307c 	ldr	r3, [fp, #-124]
300031d4:	e1a00003 	mov	r0, r3
300031d8:	e24bd00c 	sub	sp, fp, #12	; 0xc
300031dc:	e8bd4830 	pop	{r4, r5, fp, lr}
300031e0:	e12fff1e 	bx	lr
300031e4:	cfffd398 	.word	0xcfffd398
300031e8:	30009f74 	.word	0x30009f74
300031ec:	30009f9c 	.word	0x30009f9c

300031f0 <vsnprintf>:
300031f0:	e92d4830 	push	{r4, r5, fp, lr}
300031f4:	e28db00c 	add	fp, sp, #12	; 0xc
300031f8:	e24dd070 	sub	sp, sp, #112	; 0x70
300031fc:	e59fcb98 	ldr	ip, [pc, #2968]	; 30003d9c <vsnprintf+0xbac>
30003200:	e50bc06c 	str	ip, [fp, #-108]
30003204:	e51bc06c 	ldr	ip, [fp, #-108]
30003208:	e08fc00c 	add	ip, pc, ip
3000320c:	e50bc06c 	str	ip, [fp, #-108]
30003210:	e50b0058 	str	r0, [fp, #-88]
30003214:	e50b105c 	str	r1, [fp, #-92]
30003218:	e50b2060 	str	r2, [fp, #-96]
3000321c:	e50b3064 	str	r3, [fp, #-100]
30003220:	e51b305c 	ldr	r3, [fp, #-92]
30003224:	e1a03fa3 	lsr	r3, r3, #31
30003228:	e3530000 	cmp	r3, #0	; 0x0
3000322c:	0a000007 	beq	30003250 <vsnprintf+0x60>
30003230:	e59f3b68 	ldr	r3, [pc, #2920]	; 30003da0 <vsnprintf+0xbb0>
30003234:	e51b106c 	ldr	r1, [fp, #-108]
30003238:	e0812003 	add	r2, r1, r3
3000323c:	e3a03000 	mov	r3, #0	; 0x0
30003240:	e5823000 	str	r3, [r2]
30003244:	e3a02000 	mov	r2, #0	; 0x0
30003248:	e50b2068 	str	r2, [fp, #-104]
3000324c:	ea0002cd 	b	30003d88 <vsnprintf+0xb98>
30003250:	e51b3058 	ldr	r3, [fp, #-88]
30003254:	e50b3038 	str	r3, [fp, #-56]
30003258:	e51b305c 	ldr	r3, [fp, #-92]
3000325c:	e2432001 	sub	r2, r3, #1	; 0x1
30003260:	e51b3058 	ldr	r3, [fp, #-88]
30003264:	e0833002 	add	r3, r3, r2
30003268:	e50b3034 	str	r3, [fp, #-52]
3000326c:	e51b3058 	ldr	r3, [fp, #-88]
30003270:	e2432001 	sub	r2, r3, #1	; 0x1
30003274:	e51b3034 	ldr	r3, [fp, #-52]
30003278:	e1520003 	cmp	r2, r3
3000327c:	9a0002ab 	bls	30003d30 <vsnprintf+0xb40>
30003280:	e3e03000 	mvn	r3, #0	; 0x0
30003284:	e50b3034 	str	r3, [fp, #-52]
30003288:	e51b2034 	ldr	r2, [fp, #-52]
3000328c:	e51b3058 	ldr	r3, [fp, #-88]
30003290:	e0633002 	rsb	r3, r3, r2
30003294:	e2833001 	add	r3, r3, #1	; 0x1
30003298:	e50b305c 	str	r3, [fp, #-92]
3000329c:	ea0002a3 	b	30003d30 <vsnprintf+0xb40>
300032a0:	e51b3060 	ldr	r3, [fp, #-96]
300032a4:	e5d33000 	ldrb	r3, [r3]
300032a8:	e3530025 	cmp	r3, #37	; 0x25
300032ac:	0a00000b 	beq	300032e0 <vsnprintf+0xf0>
300032b0:	e51b2038 	ldr	r2, [fp, #-56]
300032b4:	e51b3034 	ldr	r3, [fp, #-52]
300032b8:	e1520003 	cmp	r2, r3
300032bc:	8a000003 	bhi	300032d0 <vsnprintf+0xe0>
300032c0:	e51b3060 	ldr	r3, [fp, #-96]
300032c4:	e5d33000 	ldrb	r3, [r3]
300032c8:	e51b2038 	ldr	r2, [fp, #-56]
300032cc:	e5c23000 	strb	r3, [r2]
300032d0:	e51b3038 	ldr	r3, [fp, #-56]
300032d4:	e2833001 	add	r3, r3, #1	; 0x1
300032d8:	e50b3038 	str	r3, [fp, #-56]
300032dc:	ea000290 	b	30003d24 <vsnprintf+0xb34>
300032e0:	e3a03000 	mov	r3, #0	; 0x0
300032e4:	e50b3028 	str	r3, [fp, #-40]
300032e8:	e51b3060 	ldr	r3, [fp, #-96]
300032ec:	e2833001 	add	r3, r3, #1	; 0x1
300032f0:	e50b3060 	str	r3, [fp, #-96]
300032f4:	e51b3060 	ldr	r3, [fp, #-96]
300032f8:	e5d33000 	ldrb	r3, [r3]
300032fc:	e2433020 	sub	r3, r3, #32	; 0x20
30003300:	e3530010 	cmp	r3, #16	; 0x10
30003304:	908ff103 	addls	pc, pc, r3, lsl #2
30003308:	ea000024 	b	300033a0 <vsnprintf+0x1b0>
3000330c:	ea000017 	b	30003370 <vsnprintf+0x180>
30003310:	ea000022 	b	300033a0 <vsnprintf+0x1b0>
30003314:	ea000021 	b	300033a0 <vsnprintf+0x1b0>
30003318:	ea000018 	b	30003380 <vsnprintf+0x190>
3000331c:	ea00001f 	b	300033a0 <vsnprintf+0x1b0>
30003320:	ea00001e 	b	300033a0 <vsnprintf+0x1b0>
30003324:	ea00001d 	b	300033a0 <vsnprintf+0x1b0>
30003328:	ea00001c 	b	300033a0 <vsnprintf+0x1b0>
3000332c:	ea00001b 	b	300033a0 <vsnprintf+0x1b0>
30003330:	ea00001a 	b	300033a0 <vsnprintf+0x1b0>
30003334:	ea000019 	b	300033a0 <vsnprintf+0x1b0>
30003338:	ea000008 	b	30003360 <vsnprintf+0x170>
3000333c:	ea000017 	b	300033a0 <vsnprintf+0x1b0>
30003340:	ea000002 	b	30003350 <vsnprintf+0x160>
30003344:	ea000015 	b	300033a0 <vsnprintf+0x1b0>
30003348:	ea000014 	b	300033a0 <vsnprintf+0x1b0>
3000334c:	ea00000f 	b	30003390 <vsnprintf+0x1a0>
30003350:	e51b3028 	ldr	r3, [fp, #-40]
30003354:	e3833010 	orr	r3, r3, #16	; 0x10
30003358:	e50b3028 	str	r3, [fp, #-40]
3000335c:	eaffffe1 	b	300032e8 <vsnprintf+0xf8>
30003360:	e51b3028 	ldr	r3, [fp, #-40]
30003364:	e3833004 	orr	r3, r3, #4	; 0x4
30003368:	e50b3028 	str	r3, [fp, #-40]
3000336c:	eaffffdd 	b	300032e8 <vsnprintf+0xf8>
30003370:	e51b3028 	ldr	r3, [fp, #-40]
30003374:	e3833008 	orr	r3, r3, #8	; 0x8
30003378:	e50b3028 	str	r3, [fp, #-40]
3000337c:	eaffffd9 	b	300032e8 <vsnprintf+0xf8>
30003380:	e51b3028 	ldr	r3, [fp, #-40]
30003384:	e3833020 	orr	r3, r3, #32	; 0x20
30003388:	e50b3028 	str	r3, [fp, #-40]
3000338c:	eaffffd5 	b	300032e8 <vsnprintf+0xf8>
30003390:	e51b3028 	ldr	r3, [fp, #-40]
30003394:	e3833001 	orr	r3, r3, #1	; 0x1
30003398:	e50b3028 	str	r3, [fp, #-40]
3000339c:	eaffffd1 	b	300032e8 <vsnprintf+0xf8>
300033a0:	e3e03000 	mvn	r3, #0	; 0x0
300033a4:	e50b3024 	str	r3, [fp, #-36]
300033a8:	e51b3060 	ldr	r3, [fp, #-96]
300033ac:	e5d33000 	ldrb	r3, [r3]
300033b0:	e1a02003 	mov	r2, r3
300033b4:	e59f39e8 	ldr	r3, [pc, #2536]	; 30003da4 <vsnprintf+0xbb4>
300033b8:	e51bc06c 	ldr	ip, [fp, #-108]
300033bc:	e79c3003 	ldr	r3, [ip, r3]
300033c0:	e7d33002 	ldrb	r3, [r3, r2]
300033c4:	e2033004 	and	r3, r3, #4	; 0x4
300033c8:	e3530000 	cmp	r3, #0	; 0x0
300033cc:	0a000005 	beq	300033e8 <vsnprintf+0x1f8>
300033d0:	e24b3060 	sub	r3, fp, #96	; 0x60
300033d4:	e1a00003 	mov	r0, r3
300033d8:	ebfffded 	bl	30002b94 <skip_atoi>
300033dc:	e1a03000 	mov	r3, r0
300033e0:	e50b3024 	str	r3, [fp, #-36]
300033e4:	ea000016 	b	30003444 <vsnprintf+0x254>
300033e8:	e51b3060 	ldr	r3, [fp, #-96]
300033ec:	e5d33000 	ldrb	r3, [r3]
300033f0:	e353002a 	cmp	r3, #42	; 0x2a
300033f4:	1a000012 	bne	30003444 <vsnprintf+0x254>
300033f8:	e51b3060 	ldr	r3, [fp, #-96]
300033fc:	e2833001 	add	r3, r3, #1	; 0x1
30003400:	e50b3060 	str	r3, [fp, #-96]
30003404:	e51b3064 	ldr	r3, [fp, #-100]
30003408:	e2833004 	add	r3, r3, #4	; 0x4
3000340c:	e50b3064 	str	r3, [fp, #-100]
30003410:	e51b3064 	ldr	r3, [fp, #-100]
30003414:	e2433004 	sub	r3, r3, #4	; 0x4
30003418:	e5933000 	ldr	r3, [r3]
3000341c:	e50b3024 	str	r3, [fp, #-36]
30003420:	e51b3024 	ldr	r3, [fp, #-36]
30003424:	e3530000 	cmp	r3, #0	; 0x0
30003428:	aa000005 	bge	30003444 <vsnprintf+0x254>
3000342c:	e51b3024 	ldr	r3, [fp, #-36]
30003430:	e2633000 	rsb	r3, r3, #0	; 0x0
30003434:	e50b3024 	str	r3, [fp, #-36]
30003438:	e51b3028 	ldr	r3, [fp, #-40]
3000343c:	e3833010 	orr	r3, r3, #16	; 0x10
30003440:	e50b3028 	str	r3, [fp, #-40]
30003444:	e3e03000 	mvn	r3, #0	; 0x0
30003448:	e50b3020 	str	r3, [fp, #-32]
3000344c:	e51b3060 	ldr	r3, [fp, #-96]
30003450:	e5d33000 	ldrb	r3, [r3]
30003454:	e353002e 	cmp	r3, #46	; 0x2e
30003458:	1a000025 	bne	300034f4 <vsnprintf+0x304>
3000345c:	e51b3060 	ldr	r3, [fp, #-96]
30003460:	e2833001 	add	r3, r3, #1	; 0x1
30003464:	e50b3060 	str	r3, [fp, #-96]
30003468:	e51b3060 	ldr	r3, [fp, #-96]
3000346c:	e5d33000 	ldrb	r3, [r3]
30003470:	e1a02003 	mov	r2, r3
30003474:	e59f3928 	ldr	r3, [pc, #2344]	; 30003da4 <vsnprintf+0xbb4>
30003478:	e51b106c 	ldr	r1, [fp, #-108]
3000347c:	e7913003 	ldr	r3, [r1, r3]
30003480:	e7d33002 	ldrb	r3, [r3, r2]
30003484:	e2033004 	and	r3, r3, #4	; 0x4
30003488:	e3530000 	cmp	r3, #0	; 0x0
3000348c:	0a000005 	beq	300034a8 <vsnprintf+0x2b8>
30003490:	e24b3060 	sub	r3, fp, #96	; 0x60
30003494:	e1a00003 	mov	r0, r3
30003498:	ebfffdbd 	bl	30002b94 <skip_atoi>
3000349c:	e1a03000 	mov	r3, r0
300034a0:	e50b3020 	str	r3, [fp, #-32]
300034a4:	ea00000d 	b	300034e0 <vsnprintf+0x2f0>
300034a8:	e51b3060 	ldr	r3, [fp, #-96]
300034ac:	e5d33000 	ldrb	r3, [r3]
300034b0:	e353002a 	cmp	r3, #42	; 0x2a
300034b4:	1a000009 	bne	300034e0 <vsnprintf+0x2f0>
300034b8:	e51b3060 	ldr	r3, [fp, #-96]
300034bc:	e2833001 	add	r3, r3, #1	; 0x1
300034c0:	e50b3060 	str	r3, [fp, #-96]
300034c4:	e51b3064 	ldr	r3, [fp, #-100]
300034c8:	e2833004 	add	r3, r3, #4	; 0x4
300034cc:	e50b3064 	str	r3, [fp, #-100]
300034d0:	e51b3064 	ldr	r3, [fp, #-100]
300034d4:	e2433004 	sub	r3, r3, #4	; 0x4
300034d8:	e5933000 	ldr	r3, [r3]
300034dc:	e50b3020 	str	r3, [fp, #-32]
300034e0:	e51b3020 	ldr	r3, [fp, #-32]
300034e4:	e3530000 	cmp	r3, #0	; 0x0
300034e8:	aa000001 	bge	300034f4 <vsnprintf+0x304>
300034ec:	e3a03000 	mov	r3, #0	; 0x0
300034f0:	e50b3020 	str	r3, [fp, #-32]
300034f4:	e3e03000 	mvn	r3, #0	; 0x0
300034f8:	e50b301c 	str	r3, [fp, #-28]
300034fc:	e51b3060 	ldr	r3, [fp, #-96]
30003500:	e5d33000 	ldrb	r3, [r3]
30003504:	e3530068 	cmp	r3, #104	; 0x68
30003508:	0a00000f 	beq	3000354c <vsnprintf+0x35c>
3000350c:	e51b3060 	ldr	r3, [fp, #-96]
30003510:	e5d33000 	ldrb	r3, [r3]
30003514:	e353006c 	cmp	r3, #108	; 0x6c
30003518:	0a00000b 	beq	3000354c <vsnprintf+0x35c>
3000351c:	e51b3060 	ldr	r3, [fp, #-96]
30003520:	e5d33000 	ldrb	r3, [r3]
30003524:	e353004c 	cmp	r3, #76	; 0x4c
30003528:	0a000007 	beq	3000354c <vsnprintf+0x35c>
3000352c:	e51b3060 	ldr	r3, [fp, #-96]
30003530:	e5d33000 	ldrb	r3, [r3]
30003534:	e353005a 	cmp	r3, #90	; 0x5a
30003538:	0a000003 	beq	3000354c <vsnprintf+0x35c>
3000353c:	e51b3060 	ldr	r3, [fp, #-96]
30003540:	e5d33000 	ldrb	r3, [r3]
30003544:	e353007a 	cmp	r3, #122	; 0x7a
30003548:	1a000011 	bne	30003594 <vsnprintf+0x3a4>
3000354c:	e51b3060 	ldr	r3, [fp, #-96]
30003550:	e5d33000 	ldrb	r3, [r3]
30003554:	e50b301c 	str	r3, [fp, #-28]
30003558:	e51b3060 	ldr	r3, [fp, #-96]
3000355c:	e2833001 	add	r3, r3, #1	; 0x1
30003560:	e50b3060 	str	r3, [fp, #-96]
30003564:	e51b301c 	ldr	r3, [fp, #-28]
30003568:	e353006c 	cmp	r3, #108	; 0x6c
3000356c:	1a000008 	bne	30003594 <vsnprintf+0x3a4>
30003570:	e51b3060 	ldr	r3, [fp, #-96]
30003574:	e5d33000 	ldrb	r3, [r3]
30003578:	e353006c 	cmp	r3, #108	; 0x6c
3000357c:	1a000004 	bne	30003594 <vsnprintf+0x3a4>
30003580:	e3a0304c 	mov	r3, #76	; 0x4c
30003584:	e50b301c 	str	r3, [fp, #-28]
30003588:	e51b3060 	ldr	r3, [fp, #-96]
3000358c:	e2833001 	add	r3, r3, #1	; 0x1
30003590:	e50b3060 	str	r3, [fp, #-96]
30003594:	e3a0300a 	mov	r3, #10	; 0xa
30003598:	e50b303c 	str	r3, [fp, #-60]
3000359c:	e51b3060 	ldr	r3, [fp, #-96]
300035a0:	e5d33000 	ldrb	r3, [r3]
300035a4:	e2433025 	sub	r3, r3, #37	; 0x25
300035a8:	e3530053 	cmp	r3, #83	; 0x53
300035ac:	908ff103 	addls	pc, pc, r3, lsl #2
300035b0:	ea000153 	b	30003b04 <vsnprintf+0x914>
300035b4:	ea00013a 	b	30003aa4 <vsnprintf+0x8b4>
300035b8:	ea000151 	b	30003b04 <vsnprintf+0x914>
300035bc:	ea000150 	b	30003b04 <vsnprintf+0x914>
300035c0:	ea00014f 	b	30003b04 <vsnprintf+0x914>
300035c4:	ea00014e 	b	30003b04 <vsnprintf+0x914>
300035c8:	ea00014d 	b	30003b04 <vsnprintf+0x914>
300035cc:	ea00014c 	b	30003b04 <vsnprintf+0x914>
300035d0:	ea00014b 	b	30003b04 <vsnprintf+0x914>
300035d4:	ea00014a 	b	30003b04 <vsnprintf+0x914>
300035d8:	ea000149 	b	30003b04 <vsnprintf+0x914>
300035dc:	ea000148 	b	30003b04 <vsnprintf+0x914>
300035e0:	ea000147 	b	30003b04 <vsnprintf+0x914>
300035e4:	ea000146 	b	30003b04 <vsnprintf+0x914>
300035e8:	ea000145 	b	30003b04 <vsnprintf+0x914>
300035ec:	ea000144 	b	30003b04 <vsnprintf+0x914>
300035f0:	ea000143 	b	30003b04 <vsnprintf+0x914>
300035f4:	ea000142 	b	30003b04 <vsnprintf+0x914>
300035f8:	ea000141 	b	30003b04 <vsnprintf+0x914>
300035fc:	ea000140 	b	30003b04 <vsnprintf+0x914>
30003600:	ea00013f 	b	30003b04 <vsnprintf+0x914>
30003604:	ea00013e 	b	30003b04 <vsnprintf+0x914>
30003608:	ea00013d 	b	30003b04 <vsnprintf+0x914>
3000360c:	ea00013c 	b	30003b04 <vsnprintf+0x914>
30003610:	ea00013b 	b	30003b04 <vsnprintf+0x914>
30003614:	ea00013a 	b	30003b04 <vsnprintf+0x914>
30003618:	ea000139 	b	30003b04 <vsnprintf+0x914>
3000361c:	ea000138 	b	30003b04 <vsnprintf+0x914>
30003620:	ea000137 	b	30003b04 <vsnprintf+0x914>
30003624:	ea000136 	b	30003b04 <vsnprintf+0x914>
30003628:	ea000135 	b	30003b04 <vsnprintf+0x914>
3000362c:	ea000134 	b	30003b04 <vsnprintf+0x914>
30003630:	ea000133 	b	30003b04 <vsnprintf+0x914>
30003634:	ea000132 	b	30003b04 <vsnprintf+0x914>
30003638:	ea000131 	b	30003b04 <vsnprintf+0x914>
3000363c:	ea000130 	b	30003b04 <vsnprintf+0x914>
30003640:	ea00012f 	b	30003b04 <vsnprintf+0x914>
30003644:	ea00012e 	b	30003b04 <vsnprintf+0x914>
30003648:	ea00012d 	b	30003b04 <vsnprintf+0x914>
3000364c:	ea00012c 	b	30003b04 <vsnprintf+0x914>
30003650:	ea00012b 	b	30003b04 <vsnprintf+0x914>
30003654:	ea00012a 	b	30003b04 <vsnprintf+0x914>
30003658:	ea000129 	b	30003b04 <vsnprintf+0x914>
3000365c:	ea000128 	b	30003b04 <vsnprintf+0x914>
30003660:	ea000127 	b	30003b04 <vsnprintf+0x914>
30003664:	ea000126 	b	30003b04 <vsnprintf+0x914>
30003668:	ea000125 	b	30003b04 <vsnprintf+0x914>
3000366c:	ea000124 	b	30003b04 <vsnprintf+0x914>
30003670:	ea000123 	b	30003b04 <vsnprintf+0x914>
30003674:	ea000122 	b	30003b04 <vsnprintf+0x914>
30003678:	ea000121 	b	30003b04 <vsnprintf+0x914>
3000367c:	ea000120 	b	30003b04 <vsnprintf+0x914>
30003680:	ea000115 	b	30003adc <vsnprintf+0x8ec>
30003684:	ea00011e 	b	30003b04 <vsnprintf+0x914>
30003688:	ea00011d 	b	30003b04 <vsnprintf+0x914>
3000368c:	ea00011c 	b	30003b04 <vsnprintf+0x914>
30003690:	ea00011b 	b	30003b04 <vsnprintf+0x914>
30003694:	ea00011a 	b	30003b04 <vsnprintf+0x914>
30003698:	ea000119 	b	30003b04 <vsnprintf+0x914>
3000369c:	ea000118 	b	30003b04 <vsnprintf+0x914>
300036a0:	ea000117 	b	30003b04 <vsnprintf+0x914>
300036a4:	ea000116 	b	30003b04 <vsnprintf+0x914>
300036a8:	ea000115 	b	30003b04 <vsnprintf+0x914>
300036ac:	ea000014 	b	30003704 <vsnprintf+0x514>
300036b0:	ea00010f 	b	30003af4 <vsnprintf+0x904>
300036b4:	ea000112 	b	30003b04 <vsnprintf+0x914>
300036b8:	ea000111 	b	30003b04 <vsnprintf+0x914>
300036bc:	ea000110 	b	30003b04 <vsnprintf+0x914>
300036c0:	ea00010f 	b	30003b04 <vsnprintf+0x914>
300036c4:	ea00010a 	b	30003af4 <vsnprintf+0x904>
300036c8:	ea00010d 	b	30003b04 <vsnprintf+0x914>
300036cc:	ea00010c 	b	30003b04 <vsnprintf+0x914>
300036d0:	ea00010b 	b	30003b04 <vsnprintf+0x914>
300036d4:	ea00010a 	b	30003b04 <vsnprintf+0x914>
300036d8:	ea0000c0 	b	300039e0 <vsnprintf+0x7f0>
300036dc:	ea0000fb 	b	30003ad0 <vsnprintf+0x8e0>
300036e0:	ea00009e 	b	30003960 <vsnprintf+0x770>
300036e4:	ea000106 	b	30003b04 <vsnprintf+0x914>
300036e8:	ea000105 	b	30003b04 <vsnprintf+0x914>
300036ec:	ea00003c 	b	300037e4 <vsnprintf+0x5f4>
300036f0:	ea000103 	b	30003b04 <vsnprintf+0x914>
300036f4:	ea000120 	b	30003b7c <vsnprintf+0x98c>
300036f8:	ea000101 	b	30003b04 <vsnprintf+0x914>
300036fc:	ea000100 	b	30003b04 <vsnprintf+0x914>
30003700:	ea0000f8 	b	30003ae8 <vsnprintf+0x8f8>
30003704:	e51b3028 	ldr	r3, [fp, #-40]
30003708:	e2033010 	and	r3, r3, #16	; 0x10
3000370c:	e3530000 	cmp	r3, #0	; 0x0
30003710:	1a000010 	bne	30003758 <vsnprintf+0x568>
30003714:	ea000009 	b	30003740 <vsnprintf+0x550>
30003718:	e51b2038 	ldr	r2, [fp, #-56]
3000371c:	e51b3034 	ldr	r3, [fp, #-52]
30003720:	e1520003 	cmp	r2, r3
30003724:	8a000002 	bhi	30003734 <vsnprintf+0x544>
30003728:	e51b3038 	ldr	r3, [fp, #-56]
3000372c:	e3a02020 	mov	r2, #32	; 0x20
30003730:	e5c32000 	strb	r2, [r3]
30003734:	e51b3038 	ldr	r3, [fp, #-56]
30003738:	e2833001 	add	r3, r3, #1	; 0x1
3000373c:	e50b3038 	str	r3, [fp, #-56]
30003740:	e51b3024 	ldr	r3, [fp, #-36]
30003744:	e2433001 	sub	r3, r3, #1	; 0x1
30003748:	e50b3024 	str	r3, [fp, #-36]
3000374c:	e51b3024 	ldr	r3, [fp, #-36]
30003750:	e3530000 	cmp	r3, #0	; 0x0
30003754:	caffffef 	bgt	30003718 <vsnprintf+0x528>
30003758:	e51b3064 	ldr	r3, [fp, #-100]
3000375c:	e2833004 	add	r3, r3, #4	; 0x4
30003760:	e50b3064 	str	r3, [fp, #-100]
30003764:	e51b3064 	ldr	r3, [fp, #-100]
30003768:	e2433004 	sub	r3, r3, #4	; 0x4
3000376c:	e5933000 	ldr	r3, [r3]
30003770:	e54b302d 	strb	r3, [fp, #-45]
30003774:	e51b2038 	ldr	r2, [fp, #-56]
30003778:	e51b3034 	ldr	r3, [fp, #-52]
3000377c:	e1520003 	cmp	r2, r3
30003780:	8a000002 	bhi	30003790 <vsnprintf+0x5a0>
30003784:	e51b2038 	ldr	r2, [fp, #-56]
30003788:	e55b302d 	ldrb	r3, [fp, #-45]
3000378c:	e5c23000 	strb	r3, [r2]
30003790:	e51b3038 	ldr	r3, [fp, #-56]
30003794:	e2833001 	add	r3, r3, #1	; 0x1
30003798:	e50b3038 	str	r3, [fp, #-56]
3000379c:	ea000009 	b	300037c8 <vsnprintf+0x5d8>
300037a0:	e51b2038 	ldr	r2, [fp, #-56]
300037a4:	e51b3034 	ldr	r3, [fp, #-52]
300037a8:	e1520003 	cmp	r2, r3
300037ac:	8a000002 	bhi	300037bc <vsnprintf+0x5cc>
300037b0:	e51b3038 	ldr	r3, [fp, #-56]
300037b4:	e3a02020 	mov	r2, #32	; 0x20
300037b8:	e5c32000 	strb	r2, [r3]
300037bc:	e51b3038 	ldr	r3, [fp, #-56]
300037c0:	e2833001 	add	r3, r3, #1	; 0x1
300037c4:	e50b3038 	str	r3, [fp, #-56]
300037c8:	e51b3024 	ldr	r3, [fp, #-36]
300037cc:	e2433001 	sub	r3, r3, #1	; 0x1
300037d0:	e50b3024 	str	r3, [fp, #-36]
300037d4:	e51b3024 	ldr	r3, [fp, #-36]
300037d8:	e3530000 	cmp	r3, #0	; 0x0
300037dc:	caffffef 	bgt	300037a0 <vsnprintf+0x5b0>
300037e0:	ea00014f 	b	30003d24 <vsnprintf+0xb34>
300037e4:	e51b3064 	ldr	r3, [fp, #-100]
300037e8:	e2833004 	add	r3, r3, #4	; 0x4
300037ec:	e50b3064 	str	r3, [fp, #-100]
300037f0:	e51b3064 	ldr	r3, [fp, #-100]
300037f4:	e2433004 	sub	r3, r3, #4	; 0x4
300037f8:	e5933000 	ldr	r3, [r3]
300037fc:	e50b302c 	str	r3, [fp, #-44]
30003800:	e51b202c 	ldr	r2, [fp, #-44]
30003804:	e3a03fff 	mov	r3, #1020	; 0x3fc
30003808:	e2833003 	add	r3, r3, #3	; 0x3
3000380c:	e1520003 	cmp	r2, r3
30003810:	8a000003 	bhi	30003824 <vsnprintf+0x634>
30003814:	e59f358c 	ldr	r3, [pc, #1420]	; 30003da8 <vsnprintf+0xbb8>
30003818:	e51b206c 	ldr	r2, [fp, #-108]
3000381c:	e0823003 	add	r3, r2, r3
30003820:	e50b302c 	str	r3, [fp, #-44]
30003824:	e51b3020 	ldr	r3, [fp, #-32]
30003828:	e51b002c 	ldr	r0, [fp, #-44]
3000382c:	e1a01003 	mov	r1, r3
30003830:	ebfff8fe 	bl	30001c30 <strnlen>
30003834:	e1a03000 	mov	r3, r0
30003838:	e50b3050 	str	r3, [fp, #-80]
3000383c:	e51b3028 	ldr	r3, [fp, #-40]
30003840:	e2033010 	and	r3, r3, #16	; 0x10
30003844:	e3530000 	cmp	r3, #0	; 0x0
30003848:	1a000015 	bne	300038a4 <vsnprintf+0x6b4>
3000384c:	ea000009 	b	30003878 <vsnprintf+0x688>
30003850:	e51b2038 	ldr	r2, [fp, #-56]
30003854:	e51b3034 	ldr	r3, [fp, #-52]
30003858:	e1520003 	cmp	r2, r3
3000385c:	8a000002 	bhi	3000386c <vsnprintf+0x67c>
30003860:	e51b3038 	ldr	r3, [fp, #-56]
30003864:	e3a02020 	mov	r2, #32	; 0x20
30003868:	e5c32000 	strb	r2, [r3]
3000386c:	e51b3038 	ldr	r3, [fp, #-56]
30003870:	e2833001 	add	r3, r3, #1	; 0x1
30003874:	e50b3038 	str	r3, [fp, #-56]
30003878:	e51b2024 	ldr	r2, [fp, #-36]
3000387c:	e51b3050 	ldr	r3, [fp, #-80]
30003880:	e1520003 	cmp	r2, r3
30003884:	d3a03000 	movle	r3, #0	; 0x0
30003888:	c3a03001 	movgt	r3, #1	; 0x1
3000388c:	e20320ff 	and	r2, r3, #255	; 0xff
30003890:	e51b3024 	ldr	r3, [fp, #-36]
30003894:	e2433001 	sub	r3, r3, #1	; 0x1
30003898:	e50b3024 	str	r3, [fp, #-36]
3000389c:	e3520000 	cmp	r2, #0	; 0x0
300038a0:	1affffea 	bne	30003850 <vsnprintf+0x660>
300038a4:	e3a03000 	mov	r3, #0	; 0x0
300038a8:	e50b3040 	str	r3, [fp, #-64]
300038ac:	ea000010 	b	300038f4 <vsnprintf+0x704>
300038b0:	e51b2038 	ldr	r2, [fp, #-56]
300038b4:	e51b3034 	ldr	r3, [fp, #-52]
300038b8:	e1520003 	cmp	r2, r3
300038bc:	8a000003 	bhi	300038d0 <vsnprintf+0x6e0>
300038c0:	e51b302c 	ldr	r3, [fp, #-44]
300038c4:	e5d33000 	ldrb	r3, [r3]
300038c8:	e51b2038 	ldr	r2, [fp, #-56]
300038cc:	e5c23000 	strb	r3, [r2]
300038d0:	e51b3038 	ldr	r3, [fp, #-56]
300038d4:	e2833001 	add	r3, r3, #1	; 0x1
300038d8:	e50b3038 	str	r3, [fp, #-56]
300038dc:	e51b302c 	ldr	r3, [fp, #-44]
300038e0:	e2833001 	add	r3, r3, #1	; 0x1
300038e4:	e50b302c 	str	r3, [fp, #-44]
300038e8:	e51b3040 	ldr	r3, [fp, #-64]
300038ec:	e2833001 	add	r3, r3, #1	; 0x1
300038f0:	e50b3040 	str	r3, [fp, #-64]
300038f4:	e51b2040 	ldr	r2, [fp, #-64]
300038f8:	e51b3050 	ldr	r3, [fp, #-80]
300038fc:	e1520003 	cmp	r2, r3
30003900:	baffffea 	blt	300038b0 <vsnprintf+0x6c0>
30003904:	ea000009 	b	30003930 <vsnprintf+0x740>
30003908:	e51b2038 	ldr	r2, [fp, #-56]
3000390c:	e51b3034 	ldr	r3, [fp, #-52]
30003910:	e1520003 	cmp	r2, r3
30003914:	8a000002 	bhi	30003924 <vsnprintf+0x734>
30003918:	e51b3038 	ldr	r3, [fp, #-56]
3000391c:	e3a02020 	mov	r2, #32	; 0x20
30003920:	e5c32000 	strb	r2, [r3]
30003924:	e51b3038 	ldr	r3, [fp, #-56]
30003928:	e2833001 	add	r3, r3, #1	; 0x1
3000392c:	e50b3038 	str	r3, [fp, #-56]
30003930:	e51b2024 	ldr	r2, [fp, #-36]
30003934:	e51b3050 	ldr	r3, [fp, #-80]
30003938:	e1520003 	cmp	r2, r3
3000393c:	d3a03000 	movle	r3, #0	; 0x0
30003940:	c3a03001 	movgt	r3, #1	; 0x1
30003944:	e20320ff 	and	r2, r3, #255	; 0xff
30003948:	e51b3024 	ldr	r3, [fp, #-36]
3000394c:	e2433001 	sub	r3, r3, #1	; 0x1
30003950:	e50b3024 	str	r3, [fp, #-36]
30003954:	e3520000 	cmp	r2, #0	; 0x0
30003958:	1affffea 	bne	30003908 <vsnprintf+0x718>
3000395c:	ea0000f0 	b	30003d24 <vsnprintf+0xb34>
30003960:	e51b3024 	ldr	r3, [fp, #-36]
30003964:	e3730001 	cmn	r3, #1	; 0x1
30003968:	1a000004 	bne	30003980 <vsnprintf+0x790>
3000396c:	e3a03008 	mov	r3, #8	; 0x8
30003970:	e50b3024 	str	r3, [fp, #-36]
30003974:	e51b3028 	ldr	r3, [fp, #-40]
30003978:	e3833001 	orr	r3, r3, #1	; 0x1
3000397c:	e50b3028 	str	r3, [fp, #-40]
30003980:	e51b3064 	ldr	r3, [fp, #-100]
30003984:	e2833004 	add	r3, r3, #4	; 0x4
30003988:	e50b3064 	str	r3, [fp, #-100]
3000398c:	e51b3064 	ldr	r3, [fp, #-100]
30003990:	e2433004 	sub	r3, r3, #4	; 0x4
30003994:	e5933000 	ldr	r3, [r3]
30003998:	e1a04003 	mov	r4, r3
3000399c:	e3a05000 	mov	r5, #0	; 0x0
300039a0:	e3a03010 	mov	r3, #16	; 0x10
300039a4:	e58d3000 	str	r3, [sp]
300039a8:	e51b3024 	ldr	r3, [fp, #-36]
300039ac:	e58d3004 	str	r3, [sp, #4]
300039b0:	e51b3020 	ldr	r3, [fp, #-32]
300039b4:	e58d3008 	str	r3, [sp, #8]
300039b8:	e51b3028 	ldr	r3, [fp, #-40]
300039bc:	e58d300c 	str	r3, [sp, #12]
300039c0:	e51b0038 	ldr	r0, [fp, #-56]
300039c4:	e51b1034 	ldr	r1, [fp, #-52]
300039c8:	e1a02004 	mov	r2, r4
300039cc:	e1a03005 	mov	r3, r5
300039d0:	ebfffc9c 	bl	30002c48 <number>
300039d4:	e1a03000 	mov	r3, r0
300039d8:	e50b3038 	str	r3, [fp, #-56]
300039dc:	ea0000d0 	b	30003d24 <vsnprintf+0xb34>
300039e0:	e51b301c 	ldr	r3, [fp, #-28]
300039e4:	e353006c 	cmp	r3, #108	; 0x6c
300039e8:	1a00000c 	bne	30003a20 <vsnprintf+0x830>
300039ec:	e51b3064 	ldr	r3, [fp, #-100]
300039f0:	e2833004 	add	r3, r3, #4	; 0x4
300039f4:	e50b3064 	str	r3, [fp, #-100]
300039f8:	e51b3064 	ldr	r3, [fp, #-100]
300039fc:	e2433004 	sub	r3, r3, #4	; 0x4
30003a00:	e5933000 	ldr	r3, [r3]
30003a04:	e50b3018 	str	r3, [fp, #-24]
30003a08:	e51b2038 	ldr	r2, [fp, #-56]
30003a0c:	e51b3058 	ldr	r3, [fp, #-88]
30003a10:	e0632002 	rsb	r2, r3, r2
30003a14:	e51b3018 	ldr	r3, [fp, #-24]
30003a18:	e5832000 	str	r2, [r3]
30003a1c:	ea0000c0 	b	30003d24 <vsnprintf+0xb34>
30003a20:	e51b301c 	ldr	r3, [fp, #-28]
30003a24:	e353005a 	cmp	r3, #90	; 0x5a
30003a28:	0a000002 	beq	30003a38 <vsnprintf+0x848>
30003a2c:	e51b301c 	ldr	r3, [fp, #-28]
30003a30:	e353007a 	cmp	r3, #122	; 0x7a
30003a34:	1a00000d 	bne	30003a70 <vsnprintf+0x880>
30003a38:	e51b3064 	ldr	r3, [fp, #-100]
30003a3c:	e2833004 	add	r3, r3, #4	; 0x4
30003a40:	e50b3064 	str	r3, [fp, #-100]
30003a44:	e51b3064 	ldr	r3, [fp, #-100]
30003a48:	e2433004 	sub	r3, r3, #4	; 0x4
30003a4c:	e5933000 	ldr	r3, [r3]
30003a50:	e50b3014 	str	r3, [fp, #-20]
30003a54:	e51b2038 	ldr	r2, [fp, #-56]
30003a58:	e51b3058 	ldr	r3, [fp, #-88]
30003a5c:	e0633002 	rsb	r3, r3, r2
30003a60:	e1a02003 	mov	r2, r3
30003a64:	e51b3014 	ldr	r3, [fp, #-20]
30003a68:	e5832000 	str	r2, [r3]
30003a6c:	ea0000ac 	b	30003d24 <vsnprintf+0xb34>
30003a70:	e51b3064 	ldr	r3, [fp, #-100]
30003a74:	e2833004 	add	r3, r3, #4	; 0x4
30003a78:	e50b3064 	str	r3, [fp, #-100]
30003a7c:	e51b3064 	ldr	r3, [fp, #-100]
30003a80:	e2433004 	sub	r3, r3, #4	; 0x4
30003a84:	e5933000 	ldr	r3, [r3]
30003a88:	e50b3010 	str	r3, [fp, #-16]
30003a8c:	e51b2038 	ldr	r2, [fp, #-56]
30003a90:	e51b3058 	ldr	r3, [fp, #-88]
30003a94:	e0632002 	rsb	r2, r3, r2
30003a98:	e51b3010 	ldr	r3, [fp, #-16]
30003a9c:	e5832000 	str	r2, [r3]
30003aa0:	ea00009f 	b	30003d24 <vsnprintf+0xb34>
30003aa4:	e51b2038 	ldr	r2, [fp, #-56]
30003aa8:	e51b3034 	ldr	r3, [fp, #-52]
30003aac:	e1520003 	cmp	r2, r3
30003ab0:	8a000002 	bhi	30003ac0 <vsnprintf+0x8d0>
30003ab4:	e51b3038 	ldr	r3, [fp, #-56]
30003ab8:	e3a02025 	mov	r2, #37	; 0x25
30003abc:	e5c32000 	strb	r2, [r3]
30003ac0:	e51b3038 	ldr	r3, [fp, #-56]
30003ac4:	e2833001 	add	r3, r3, #1	; 0x1
30003ac8:	e50b3038 	str	r3, [fp, #-56]
30003acc:	ea000094 	b	30003d24 <vsnprintf+0xb34>
30003ad0:	e3a03008 	mov	r3, #8	; 0x8
30003ad4:	e50b303c 	str	r3, [fp, #-60]
30003ad8:	ea000027 	b	30003b7c <vsnprintf+0x98c>
30003adc:	e51b3028 	ldr	r3, [fp, #-40]
30003ae0:	e3833040 	orr	r3, r3, #64	; 0x40
30003ae4:	e50b3028 	str	r3, [fp, #-40]
30003ae8:	e3a03010 	mov	r3, #16	; 0x10
30003aec:	e50b303c 	str	r3, [fp, #-60]
30003af0:	ea000021 	b	30003b7c <vsnprintf+0x98c>
30003af4:	e51b3028 	ldr	r3, [fp, #-40]
30003af8:	e3833002 	orr	r3, r3, #2	; 0x2
30003afc:	e50b3028 	str	r3, [fp, #-40]
30003b00:	ea00001d 	b	30003b7c <vsnprintf+0x98c>
30003b04:	e51b2038 	ldr	r2, [fp, #-56]
30003b08:	e51b3034 	ldr	r3, [fp, #-52]
30003b0c:	e1520003 	cmp	r2, r3
30003b10:	8a000002 	bhi	30003b20 <vsnprintf+0x930>
30003b14:	e51b3038 	ldr	r3, [fp, #-56]
30003b18:	e3a02025 	mov	r2, #37	; 0x25
30003b1c:	e5c32000 	strb	r2, [r3]
30003b20:	e51b3038 	ldr	r3, [fp, #-56]
30003b24:	e2833001 	add	r3, r3, #1	; 0x1
30003b28:	e50b3038 	str	r3, [fp, #-56]
30003b2c:	e51b3060 	ldr	r3, [fp, #-96]
30003b30:	e5d33000 	ldrb	r3, [r3]
30003b34:	e3530000 	cmp	r3, #0	; 0x0
30003b38:	0a00000b 	beq	30003b6c <vsnprintf+0x97c>
30003b3c:	e51b2038 	ldr	r2, [fp, #-56]
30003b40:	e51b3034 	ldr	r3, [fp, #-52]
30003b44:	e1520003 	cmp	r2, r3
30003b48:	8a000003 	bhi	30003b5c <vsnprintf+0x96c>
30003b4c:	e51b3060 	ldr	r3, [fp, #-96]
30003b50:	e5d33000 	ldrb	r3, [r3]
30003b54:	e51b2038 	ldr	r2, [fp, #-56]
30003b58:	e5c23000 	strb	r3, [r2]
30003b5c:	e51b3038 	ldr	r3, [fp, #-56]
30003b60:	e2833001 	add	r3, r3, #1	; 0x1
30003b64:	e50b3038 	str	r3, [fp, #-56]
30003b68:	ea00006d 	b	30003d24 <vsnprintf+0xb34>
30003b6c:	e51b3060 	ldr	r3, [fp, #-96]
30003b70:	e2433001 	sub	r3, r3, #1	; 0x1
30003b74:	e50b3060 	str	r3, [fp, #-96]
30003b78:	ea000069 	b	30003d24 <vsnprintf+0xb34>
30003b7c:	e51b301c 	ldr	r3, [fp, #-28]
30003b80:	e353004c 	cmp	r3, #76	; 0x4c
30003b84:	1a000008 	bne	30003bac <vsnprintf+0x9bc>
30003b88:	e51b3064 	ldr	r3, [fp, #-100]
30003b8c:	e2833008 	add	r3, r3, #8	; 0x8
30003b90:	e50b3064 	str	r3, [fp, #-100]
30003b94:	e51b3064 	ldr	r3, [fp, #-100]
30003b98:	e2433008 	sub	r3, r3, #8	; 0x8
30003b9c:	e8930018 	ldm	r3, {r3, r4}
30003ba0:	e50b304c 	str	r3, [fp, #-76]
30003ba4:	e50b4048 	str	r4, [fp, #-72]
30003ba8:	ea00004e 	b	30003ce8 <vsnprintf+0xaf8>
30003bac:	e51b301c 	ldr	r3, [fp, #-28]
30003bb0:	e353006c 	cmp	r3, #108	; 0x6c
30003bb4:	1a000011 	bne	30003c00 <vsnprintf+0xa10>
30003bb8:	e51b3064 	ldr	r3, [fp, #-100]
30003bbc:	e2833004 	add	r3, r3, #4	; 0x4
30003bc0:	e50b3064 	str	r3, [fp, #-100]
30003bc4:	e51b3064 	ldr	r3, [fp, #-100]
30003bc8:	e2433004 	sub	r3, r3, #4	; 0x4
30003bcc:	e5933000 	ldr	r3, [r3]
30003bd0:	e3a04000 	mov	r4, #0	; 0x0
30003bd4:	e50b304c 	str	r3, [fp, #-76]
30003bd8:	e50b4048 	str	r4, [fp, #-72]
30003bdc:	e51b3028 	ldr	r3, [fp, #-40]
30003be0:	e2033002 	and	r3, r3, #2	; 0x2
30003be4:	e3530000 	cmp	r3, #0	; 0x0
30003be8:	0a00003e 	beq	30003ce8 <vsnprintf+0xaf8>
30003bec:	e51b304c 	ldr	r3, [fp, #-76]
30003bf0:	e1a04fc3 	asr	r4, r3, #31
30003bf4:	e50b304c 	str	r3, [fp, #-76]
30003bf8:	e50b4048 	str	r4, [fp, #-72]
30003bfc:	ea000039 	b	30003ce8 <vsnprintf+0xaf8>
30003c00:	e51b301c 	ldr	r3, [fp, #-28]
30003c04:	e353005a 	cmp	r3, #90	; 0x5a
30003c08:	0a000002 	beq	30003c18 <vsnprintf+0xa28>
30003c0c:	e51b301c 	ldr	r3, [fp, #-28]
30003c10:	e353007a 	cmp	r3, #122	; 0x7a
30003c14:	1a000009 	bne	30003c40 <vsnprintf+0xa50>
30003c18:	e51b3064 	ldr	r3, [fp, #-100]
30003c1c:	e2833004 	add	r3, r3, #4	; 0x4
30003c20:	e50b3064 	str	r3, [fp, #-100]
30003c24:	e51b3064 	ldr	r3, [fp, #-100]
30003c28:	e2433004 	sub	r3, r3, #4	; 0x4
30003c2c:	e5933000 	ldr	r3, [r3]
30003c30:	e3a04000 	mov	r4, #0	; 0x0
30003c34:	e50b304c 	str	r3, [fp, #-76]
30003c38:	e50b4048 	str	r4, [fp, #-72]
30003c3c:	ea000029 	b	30003ce8 <vsnprintf+0xaf8>
30003c40:	e51b301c 	ldr	r3, [fp, #-28]
30003c44:	e3530068 	cmp	r3, #104	; 0x68
30003c48:	1a000015 	bne	30003ca4 <vsnprintf+0xab4>
30003c4c:	e51b3064 	ldr	r3, [fp, #-100]
30003c50:	e2833004 	add	r3, r3, #4	; 0x4
30003c54:	e50b3064 	str	r3, [fp, #-100]
30003c58:	e51b3064 	ldr	r3, [fp, #-100]
30003c5c:	e2433004 	sub	r3, r3, #4	; 0x4
30003c60:	e5933000 	ldr	r3, [r3]
30003c64:	e1a03803 	lsl	r3, r3, #16
30003c68:	e1a03823 	lsr	r3, r3, #16
30003c6c:	e3a04000 	mov	r4, #0	; 0x0
30003c70:	e50b304c 	str	r3, [fp, #-76]
30003c74:	e50b4048 	str	r4, [fp, #-72]
30003c78:	e51b3028 	ldr	r3, [fp, #-40]
30003c7c:	e2033002 	and	r3, r3, #2	; 0x2
30003c80:	e3530000 	cmp	r3, #0	; 0x0
30003c84:	0a000017 	beq	30003ce8 <vsnprintf+0xaf8>
30003c88:	e15b34bc 	ldrh	r3, [fp, #-76]
30003c8c:	e1a03803 	lsl	r3, r3, #16
30003c90:	e1a03843 	asr	r3, r3, #16
30003c94:	e1a04fc3 	asr	r4, r3, #31
30003c98:	e50b304c 	str	r3, [fp, #-76]
30003c9c:	e50b4048 	str	r4, [fp, #-72]
30003ca0:	ea000010 	b	30003ce8 <vsnprintf+0xaf8>
30003ca4:	e51b3064 	ldr	r3, [fp, #-100]
30003ca8:	e2833004 	add	r3, r3, #4	; 0x4
30003cac:	e50b3064 	str	r3, [fp, #-100]
30003cb0:	e51b3064 	ldr	r3, [fp, #-100]
30003cb4:	e2433004 	sub	r3, r3, #4	; 0x4
30003cb8:	e5933000 	ldr	r3, [r3]
30003cbc:	e3a04000 	mov	r4, #0	; 0x0
30003cc0:	e50b304c 	str	r3, [fp, #-76]
30003cc4:	e50b4048 	str	r4, [fp, #-72]
30003cc8:	e51b3028 	ldr	r3, [fp, #-40]
30003ccc:	e2033002 	and	r3, r3, #2	; 0x2
30003cd0:	e3530000 	cmp	r3, #0	; 0x0
30003cd4:	0a000003 	beq	30003ce8 <vsnprintf+0xaf8>
30003cd8:	e51b304c 	ldr	r3, [fp, #-76]
30003cdc:	e1a04fc3 	asr	r4, r3, #31
30003ce0:	e50b304c 	str	r3, [fp, #-76]
30003ce4:	e50b4048 	str	r4, [fp, #-72]
30003ce8:	e51b303c 	ldr	r3, [fp, #-60]
30003cec:	e58d3000 	str	r3, [sp]
30003cf0:	e51b3024 	ldr	r3, [fp, #-36]
30003cf4:	e58d3004 	str	r3, [sp, #4]
30003cf8:	e51b3020 	ldr	r3, [fp, #-32]
30003cfc:	e58d3008 	str	r3, [sp, #8]
30003d00:	e51b3028 	ldr	r3, [fp, #-40]
30003d04:	e58d300c 	str	r3, [sp, #12]
30003d08:	e51b0038 	ldr	r0, [fp, #-56]
30003d0c:	e51b1034 	ldr	r1, [fp, #-52]
30003d10:	e24b304c 	sub	r3, fp, #76	; 0x4c
30003d14:	e893000c 	ldm	r3, {r2, r3}
30003d18:	ebfffbca 	bl	30002c48 <number>
30003d1c:	e1a03000 	mov	r3, r0
30003d20:	e50b3038 	str	r3, [fp, #-56]
30003d24:	e51b3060 	ldr	r3, [fp, #-96]
30003d28:	e2833001 	add	r3, r3, #1	; 0x1
30003d2c:	e50b3060 	str	r3, [fp, #-96]
30003d30:	e51b3060 	ldr	r3, [fp, #-96]
30003d34:	e5d33000 	ldrb	r3, [r3]
30003d38:	e3530000 	cmp	r3, #0	; 0x0
30003d3c:	1afffd57 	bne	300032a0 <vsnprintf+0xb0>
30003d40:	e51b2038 	ldr	r2, [fp, #-56]
30003d44:	e51b3034 	ldr	r3, [fp, #-52]
30003d48:	e1520003 	cmp	r2, r3
30003d4c:	8a000003 	bhi	30003d60 <vsnprintf+0xb70>
30003d50:	e51b3038 	ldr	r3, [fp, #-56]
30003d54:	e3a02000 	mov	r2, #0	; 0x0
30003d58:	e5c32000 	strb	r2, [r3]
30003d5c:	ea000005 	b	30003d78 <vsnprintf+0xb88>
30003d60:	e51b305c 	ldr	r3, [fp, #-92]
30003d64:	e3530000 	cmp	r3, #0	; 0x0
30003d68:	0a000002 	beq	30003d78 <vsnprintf+0xb88>
30003d6c:	e51b3034 	ldr	r3, [fp, #-52]
30003d70:	e3a02000 	mov	r2, #0	; 0x0
30003d74:	e5c32000 	strb	r2, [r3]
30003d78:	e51b2038 	ldr	r2, [fp, #-56]
30003d7c:	e51b3058 	ldr	r3, [fp, #-88]
30003d80:	e0632002 	rsb	r2, r3, r2
30003d84:	e50b2068 	str	r2, [fp, #-104]
30003d88:	e51b3068 	ldr	r3, [fp, #-104]
30003d8c:	e1a00003 	mov	r0, r3
30003d90:	e24bd00c 	sub	sp, fp, #12	; 0xc
30003d94:	e8bd4830 	pop	{r4, r5, fp, lr}
30003d98:	e12fff1e 	bx	lr
30003d9c:	cfffcdf0 	.word	0xcfffcdf0
30003da0:	3000aaa0 	.word	0x3000aaa0
30003da4:	00000580 	.word	0x00000580
30003da8:	30009fc4 	.word	0x30009fc4

30003dac <vscnprintf>:
30003dac:	e92d4800 	push	{fp, lr}
30003db0:	e28db004 	add	fp, sp, #4	; 0x4
30003db4:	e24dd020 	sub	sp, sp, #32	; 0x20
30003db8:	e50b0010 	str	r0, [fp, #-16]
30003dbc:	e50b1014 	str	r1, [fp, #-20]
30003dc0:	e50b2018 	str	r2, [fp, #-24]
30003dc4:	e50b301c 	str	r3, [fp, #-28]
30003dc8:	e51b0010 	ldr	r0, [fp, #-16]
30003dcc:	e51b1014 	ldr	r1, [fp, #-20]
30003dd0:	e51b2018 	ldr	r2, [fp, #-24]
30003dd4:	e51b301c 	ldr	r3, [fp, #-28]
30003dd8:	ebfffd04 	bl	300031f0 <vsnprintf>
30003ddc:	e1a03000 	mov	r3, r0
30003de0:	e50b3008 	str	r3, [fp, #-8]
30003de4:	e51b2008 	ldr	r2, [fp, #-8]
30003de8:	e51b3014 	ldr	r3, [fp, #-20]
30003dec:	e1520003 	cmp	r2, r3
30003df0:	3a000003 	bcc	30003e04 <vscnprintf+0x58>
30003df4:	e51b3014 	ldr	r3, [fp, #-20]
30003df8:	e2433001 	sub	r3, r3, #1	; 0x1
30003dfc:	e50b3020 	str	r3, [fp, #-32]
30003e00:	ea000001 	b	30003e0c <vscnprintf+0x60>
30003e04:	e51b3008 	ldr	r3, [fp, #-8]
30003e08:	e50b3020 	str	r3, [fp, #-32]
30003e0c:	e51b3020 	ldr	r3, [fp, #-32]
30003e10:	e1a00003 	mov	r0, r3
30003e14:	e24bd004 	sub	sp, fp, #4	; 0x4
30003e18:	e8bd4800 	pop	{fp, lr}
30003e1c:	e12fff1e 	bx	lr

30003e20 <snprintf>:
30003e20:	e92d000c 	push	{r2, r3}
30003e24:	e92d4800 	push	{fp, lr}
30003e28:	e28db004 	add	fp, sp, #4	; 0x4
30003e2c:	e24dd010 	sub	sp, sp, #16	; 0x10
30003e30:	e50b0010 	str	r0, [fp, #-16]
30003e34:	e50b1014 	str	r1, [fp, #-20]
30003e38:	e28b3004 	add	r3, fp, #4	; 0x4
30003e3c:	e2833004 	add	r3, r3, #4	; 0x4
30003e40:	e50b300c 	str	r3, [fp, #-12]
30003e44:	e59b3004 	ldr	r3, [fp, #4]
30003e48:	e51b0010 	ldr	r0, [fp, #-16]
30003e4c:	e51b1014 	ldr	r1, [fp, #-20]
30003e50:	e1a02003 	mov	r2, r3
30003e54:	e51b300c 	ldr	r3, [fp, #-12]
30003e58:	ebfffce4 	bl	300031f0 <vsnprintf>
30003e5c:	e1a03000 	mov	r3, r0
30003e60:	e50b3008 	str	r3, [fp, #-8]
30003e64:	e51b3008 	ldr	r3, [fp, #-8]
30003e68:	e1a00003 	mov	r0, r3
30003e6c:	e24bd004 	sub	sp, fp, #4	; 0x4
30003e70:	e8bd4800 	pop	{fp, lr}
30003e74:	e28dd008 	add	sp, sp, #8	; 0x8
30003e78:	e12fff1e 	bx	lr

30003e7c <scnprintf>:
30003e7c:	e92d000c 	push	{r2, r3}
30003e80:	e92d4800 	push	{fp, lr}
30003e84:	e28db004 	add	fp, sp, #4	; 0x4
30003e88:	e24dd018 	sub	sp, sp, #24	; 0x18
30003e8c:	e50b0010 	str	r0, [fp, #-16]
30003e90:	e50b1014 	str	r1, [fp, #-20]
30003e94:	e28b3004 	add	r3, fp, #4	; 0x4
30003e98:	e2833004 	add	r3, r3, #4	; 0x4
30003e9c:	e50b300c 	str	r3, [fp, #-12]
30003ea0:	e59b3004 	ldr	r3, [fp, #4]
30003ea4:	e51b0010 	ldr	r0, [fp, #-16]
30003ea8:	e51b1014 	ldr	r1, [fp, #-20]
30003eac:	e1a02003 	mov	r2, r3
30003eb0:	e51b300c 	ldr	r3, [fp, #-12]
30003eb4:	ebfffccd 	bl	300031f0 <vsnprintf>
30003eb8:	e1a03000 	mov	r3, r0
30003ebc:	e50b3008 	str	r3, [fp, #-8]
30003ec0:	e51b2008 	ldr	r2, [fp, #-8]
30003ec4:	e51b3014 	ldr	r3, [fp, #-20]
30003ec8:	e1520003 	cmp	r2, r3
30003ecc:	3a000003 	bcc	30003ee0 <scnprintf+0x64>
30003ed0:	e51b3014 	ldr	r3, [fp, #-20]
30003ed4:	e2433001 	sub	r3, r3, #1	; 0x1
30003ed8:	e50b3018 	str	r3, [fp, #-24]
30003edc:	ea000001 	b	30003ee8 <scnprintf+0x6c>
30003ee0:	e51b3008 	ldr	r3, [fp, #-8]
30003ee4:	e50b3018 	str	r3, [fp, #-24]
30003ee8:	e51b3018 	ldr	r3, [fp, #-24]
30003eec:	e1a00003 	mov	r0, r3
30003ef0:	e24bd004 	sub	sp, fp, #4	; 0x4
30003ef4:	e8bd4800 	pop	{fp, lr}
30003ef8:	e28dd008 	add	sp, sp, #8	; 0x8
30003efc:	e12fff1e 	bx	lr

30003f00 <vsprintf>:
30003f00:	e92d4800 	push	{fp, lr}
30003f04:	e28db004 	add	fp, sp, #4	; 0x4
30003f08:	e24dd010 	sub	sp, sp, #16	; 0x10
30003f0c:	e50b0008 	str	r0, [fp, #-8]
30003f10:	e50b100c 	str	r1, [fp, #-12]
30003f14:	e50b2010 	str	r2, [fp, #-16]
30003f18:	e51b0008 	ldr	r0, [fp, #-8]
30003f1c:	e3e01102 	mvn	r1, #-2147483648	; 0x80000000
30003f20:	e51b200c 	ldr	r2, [fp, #-12]
30003f24:	e51b3010 	ldr	r3, [fp, #-16]
30003f28:	ebfffcb0 	bl	300031f0 <vsnprintf>
30003f2c:	e1a03000 	mov	r3, r0
30003f30:	e1a00003 	mov	r0, r3
30003f34:	e24bd004 	sub	sp, fp, #4	; 0x4
30003f38:	e8bd4800 	pop	{fp, lr}
30003f3c:	e12fff1e 	bx	lr

30003f40 <sprintf>:
30003f40:	e92d000e 	push	{r1, r2, r3}
30003f44:	e92d4800 	push	{fp, lr}
30003f48:	e28db004 	add	fp, sp, #4	; 0x4
30003f4c:	e24dd014 	sub	sp, sp, #20	; 0x14
30003f50:	e50b0014 	str	r0, [fp, #-20]
30003f54:	e28b3004 	add	r3, fp, #4	; 0x4
30003f58:	e2833004 	add	r3, r3, #4	; 0x4
30003f5c:	e50b3010 	str	r3, [fp, #-16]
30003f60:	e59b3004 	ldr	r3, [fp, #4]
30003f64:	e51b0014 	ldr	r0, [fp, #-20]
30003f68:	e1a01003 	mov	r1, r3
30003f6c:	e51b2010 	ldr	r2, [fp, #-16]
30003f70:	ebffffe2 	bl	30003f00 <vsprintf>
30003f74:	e1a03000 	mov	r3, r0
30003f78:	e50b300c 	str	r3, [fp, #-12]
30003f7c:	e51b300c 	ldr	r3, [fp, #-12]
30003f80:	e1a00003 	mov	r0, r3
30003f84:	e24bd004 	sub	sp, fp, #4	; 0x4
30003f88:	e8bd4800 	pop	{fp, lr}
30003f8c:	e28dd00c 	add	sp, sp, #12	; 0xc
30003f90:	e12fff1e 	bx	lr

30003f94 <vsscanf>:
30003f94:	e92d4810 	push	{r4, fp, lr}
30003f98:	e28db008 	add	fp, sp, #8	; 0x8
30003f9c:	e24dd074 	sub	sp, sp, #116	; 0x74
30003fa0:	e59f3c70 	ldr	r3, [pc, #3184]	; 30004c18 <vsscanf+0xc84>
30003fa4:	e50b3078 	str	r3, [fp, #-120]
30003fa8:	e51b3078 	ldr	r3, [fp, #-120]
30003fac:	e08f3003 	add	r3, pc, r3
30003fb0:	e50b3078 	str	r3, [fp, #-120]
30003fb4:	e50b0068 	str	r0, [fp, #-104]
30003fb8:	e50b106c 	str	r1, [fp, #-108]
30003fbc:	e50b2070 	str	r2, [fp, #-112]
30003fc0:	e51b3068 	ldr	r3, [fp, #-104]
30003fc4:	e50b3060 	str	r3, [fp, #-96]
30003fc8:	e3a03000 	mov	r3, #0	; 0x0
30003fcc:	e50b3058 	str	r3, [fp, #-88]
30003fd0:	e3a03000 	mov	r3, #0	; 0x0
30003fd4:	e50b3048 	str	r3, [fp, #-72]
30003fd8:	ea0002ff 	b	30004bdc <vsscanf+0xc48>
30003fdc:	e51b306c 	ldr	r3, [fp, #-108]
30003fe0:	e5d33000 	ldrb	r3, [r3]
30003fe4:	e1a02003 	mov	r2, r3
30003fe8:	e59f3c2c 	ldr	r3, [pc, #3116]	; 30004c1c <vsscanf+0xc88>
30003fec:	e51b1078 	ldr	r1, [fp, #-120]
30003ff0:	e7913003 	ldr	r3, [r1, r3]
30003ff4:	e7d33002 	ldrb	r3, [r3, r2]
30003ff8:	e2033020 	and	r3, r3, #32	; 0x20
30003ffc:	e3530000 	cmp	r3, #0	; 0x0
30004000:	0a00001b 	beq	30004074 <vsscanf+0xe0>
30004004:	ea000002 	b	30004014 <vsscanf+0x80>
30004008:	e51b306c 	ldr	r3, [fp, #-108]
3000400c:	e2833001 	add	r3, r3, #1	; 0x1
30004010:	e50b306c 	str	r3, [fp, #-108]
30004014:	e51b306c 	ldr	r3, [fp, #-108]
30004018:	e5d33000 	ldrb	r3, [r3]
3000401c:	e1a02003 	mov	r2, r3
30004020:	e59f3bf4 	ldr	r3, [pc, #3060]	; 30004c1c <vsscanf+0xc88>
30004024:	e51b1078 	ldr	r1, [fp, #-120]
30004028:	e7913003 	ldr	r3, [r1, r3]
3000402c:	e7d33002 	ldrb	r3, [r3, r2]
30004030:	e2033020 	and	r3, r3, #32	; 0x20
30004034:	e3530000 	cmp	r3, #0	; 0x0
30004038:	1afffff2 	bne	30004008 <vsscanf+0x74>
3000403c:	ea000002 	b	3000404c <vsscanf+0xb8>
30004040:	e51b3060 	ldr	r3, [fp, #-96]
30004044:	e2833001 	add	r3, r3, #1	; 0x1
30004048:	e50b3060 	str	r3, [fp, #-96]
3000404c:	e51b3060 	ldr	r3, [fp, #-96]
30004050:	e5d33000 	ldrb	r3, [r3]
30004054:	e1a02003 	mov	r2, r3
30004058:	e59f3bbc 	ldr	r3, [pc, #3004]	; 30004c1c <vsscanf+0xc88>
3000405c:	e51b1078 	ldr	r1, [fp, #-120]
30004060:	e7913003 	ldr	r3, [r1, r3]
30004064:	e7d33002 	ldrb	r3, [r3, r2]
30004068:	e2033020 	and	r3, r3, #32	; 0x20
3000406c:	e3530000 	cmp	r3, #0	; 0x0
30004070:	1afffff2 	bne	30004040 <vsscanf+0xac>
30004074:	e51b306c 	ldr	r3, [fp, #-108]
30004078:	e5d33000 	ldrb	r3, [r3]
3000407c:	e3530025 	cmp	r3, #37	; 0x25
30004080:	0a000013 	beq	300040d4 <vsscanf+0x140>
30004084:	e51b306c 	ldr	r3, [fp, #-108]
30004088:	e5d33000 	ldrb	r3, [r3]
3000408c:	e3530000 	cmp	r3, #0	; 0x0
30004090:	0a00000f 	beq	300040d4 <vsscanf+0x140>
30004094:	e51b106c 	ldr	r1, [fp, #-108]
30004098:	e5d12000 	ldrb	r2, [r1]
3000409c:	e51b3060 	ldr	r3, [fp, #-96]
300040a0:	e5d33000 	ldrb	r3, [r3]
300040a4:	e1520003 	cmp	r2, r3
300040a8:	03a03000 	moveq	r3, #0	; 0x0
300040ac:	13a03001 	movne	r3, #1	; 0x1
300040b0:	e20320ff 	and	r2, r3, #255	; 0xff
300040b4:	e2813001 	add	r3, r1, #1	; 0x1
300040b8:	e50b306c 	str	r3, [fp, #-108]
300040bc:	e51b3060 	ldr	r3, [fp, #-96]
300040c0:	e2833001 	add	r3, r3, #1	; 0x1
300040c4:	e50b3060 	str	r3, [fp, #-96]
300040c8:	e3520000 	cmp	r2, #0	; 0x0
300040cc:	1a0002ca 	bne	30004bfc <vsscanf+0xc68>
300040d0:	ea0002c1 	b	30004bdc <vsscanf+0xc48>
300040d4:	e51b306c 	ldr	r3, [fp, #-108]
300040d8:	e5d33000 	ldrb	r3, [r3]
300040dc:	e3530000 	cmp	r3, #0	; 0x0
300040e0:	0a0002c5 	beq	30004bfc <vsscanf+0xc68>
300040e4:	e51b306c 	ldr	r3, [fp, #-108]
300040e8:	e2833001 	add	r3, r3, #1	; 0x1
300040ec:	e50b306c 	str	r3, [fp, #-108]
300040f0:	e51b306c 	ldr	r3, [fp, #-108]
300040f4:	e5d33000 	ldrb	r3, [r3]
300040f8:	e353002a 	cmp	r3, #42	; 0x2a
300040fc:	1a000024 	bne	30004194 <vsscanf+0x200>
30004100:	ea000002 	b	30004110 <vsscanf+0x17c>
30004104:	e51b306c 	ldr	r3, [fp, #-108]
30004108:	e2833001 	add	r3, r3, #1	; 0x1
3000410c:	e50b306c 	str	r3, [fp, #-108]
30004110:	e51b306c 	ldr	r3, [fp, #-108]
30004114:	e5d33000 	ldrb	r3, [r3]
30004118:	e1a02003 	mov	r2, r3
3000411c:	e59f3af8 	ldr	r3, [pc, #2808]	; 30004c1c <vsscanf+0xc88>
30004120:	e51b1078 	ldr	r1, [fp, #-120]
30004124:	e7913003 	ldr	r3, [r1, r3]
30004128:	e7d33002 	ldrb	r3, [r3, r2]
3000412c:	e2033020 	and	r3, r3, #32	; 0x20
30004130:	e3530000 	cmp	r3, #0	; 0x0
30004134:	1a000007 	bne	30004158 <vsscanf+0x1c4>
30004138:	e51b306c 	ldr	r3, [fp, #-108]
3000413c:	e5d33000 	ldrb	r3, [r3]
30004140:	e3530000 	cmp	r3, #0	; 0x0
30004144:	1affffee 	bne	30004104 <vsscanf+0x170>
30004148:	ea000002 	b	30004158 <vsscanf+0x1c4>
3000414c:	e51b3060 	ldr	r3, [fp, #-96]
30004150:	e2833001 	add	r3, r3, #1	; 0x1
30004154:	e50b3060 	str	r3, [fp, #-96]
30004158:	e51b3060 	ldr	r3, [fp, #-96]
3000415c:	e5d33000 	ldrb	r3, [r3]
30004160:	e1a02003 	mov	r2, r3
30004164:	e59f3ab0 	ldr	r3, [pc, #2736]	; 30004c1c <vsscanf+0xc88>
30004168:	e51b1078 	ldr	r1, [fp, #-120]
3000416c:	e7913003 	ldr	r3, [r1, r3]
30004170:	e7d33002 	ldrb	r3, [r3, r2]
30004174:	e2033020 	and	r3, r3, #32	; 0x20
30004178:	e3530000 	cmp	r3, #0	; 0x0
3000417c:	1a000296 	bne	30004bdc <vsscanf+0xc48>
30004180:	e51b3060 	ldr	r3, [fp, #-96]
30004184:	e5d33000 	ldrb	r3, [r3]
30004188:	e3530000 	cmp	r3, #0	; 0x0
3000418c:	1affffee 	bne	3000414c <vsscanf+0x1b8>
30004190:	ea000291 	b	30004bdc <vsscanf+0xc48>
30004194:	e3e03000 	mvn	r3, #0	; 0x0
30004198:	e50b304c 	str	r3, [fp, #-76]
3000419c:	e51b306c 	ldr	r3, [fp, #-108]
300041a0:	e5d33000 	ldrb	r3, [r3]
300041a4:	e1a02003 	mov	r2, r3
300041a8:	e59f3a6c 	ldr	r3, [pc, #2668]	; 30004c1c <vsscanf+0xc88>
300041ac:	e51b1078 	ldr	r1, [fp, #-120]
300041b0:	e7913003 	ldr	r3, [r1, r3]
300041b4:	e7d33002 	ldrb	r3, [r3, r2]
300041b8:	e2033004 	and	r3, r3, #4	; 0x4
300041bc:	e3530000 	cmp	r3, #0	; 0x0
300041c0:	0a000004 	beq	300041d8 <vsscanf+0x244>
300041c4:	e24b306c 	sub	r3, fp, #108	; 0x6c
300041c8:	e1a00003 	mov	r0, r3
300041cc:	ebfffa70 	bl	30002b94 <skip_atoi>
300041d0:	e1a03000 	mov	r3, r0
300041d4:	e50b304c 	str	r3, [fp, #-76]
300041d8:	e3e03000 	mvn	r3, #0	; 0x0
300041dc:	e50b3054 	str	r3, [fp, #-84]
300041e0:	e51b306c 	ldr	r3, [fp, #-108]
300041e4:	e5d33000 	ldrb	r3, [r3]
300041e8:	e3530068 	cmp	r3, #104	; 0x68
300041ec:	0a00000f 	beq	30004230 <vsscanf+0x29c>
300041f0:	e51b306c 	ldr	r3, [fp, #-108]
300041f4:	e5d33000 	ldrb	r3, [r3]
300041f8:	e353006c 	cmp	r3, #108	; 0x6c
300041fc:	0a00000b 	beq	30004230 <vsscanf+0x29c>
30004200:	e51b306c 	ldr	r3, [fp, #-108]
30004204:	e5d33000 	ldrb	r3, [r3]
30004208:	e353004c 	cmp	r3, #76	; 0x4c
3000420c:	0a000007 	beq	30004230 <vsscanf+0x29c>
30004210:	e51b306c 	ldr	r3, [fp, #-108]
30004214:	e5d33000 	ldrb	r3, [r3]
30004218:	e353005a 	cmp	r3, #90	; 0x5a
3000421c:	0a000003 	beq	30004230 <vsscanf+0x29c>
30004220:	e51b306c 	ldr	r3, [fp, #-108]
30004224:	e5d33000 	ldrb	r3, [r3]
30004228:	e353007a 	cmp	r3, #122	; 0x7a
3000422c:	1a00001e 	bne	300042ac <vsscanf+0x318>
30004230:	e51b206c 	ldr	r2, [fp, #-108]
30004234:	e5d23000 	ldrb	r3, [r2]
30004238:	e50b3054 	str	r3, [fp, #-84]
3000423c:	e2823001 	add	r3, r2, #1	; 0x1
30004240:	e50b306c 	str	r3, [fp, #-108]
30004244:	e51b306c 	ldr	r3, [fp, #-108]
30004248:	e5d33000 	ldrb	r3, [r3]
3000424c:	e1a02003 	mov	r2, r3
30004250:	e51b3054 	ldr	r3, [fp, #-84]
30004254:	e1520003 	cmp	r2, r3
30004258:	13a03000 	movne	r3, #0	; 0x0
3000425c:	03a03001 	moveq	r3, #1	; 0x1
30004260:	e3530000 	cmp	r3, #0	; 0x0
30004264:	0a000010 	beq	300042ac <vsscanf+0x318>
30004268:	e51b3054 	ldr	r3, [fp, #-84]
3000426c:	e3530068 	cmp	r3, #104	; 0x68
30004270:	1a000005 	bne	3000428c <vsscanf+0x2f8>
30004274:	e3a03048 	mov	r3, #72	; 0x48
30004278:	e50b3054 	str	r3, [fp, #-84]
3000427c:	e51b306c 	ldr	r3, [fp, #-108]
30004280:	e2833001 	add	r3, r3, #1	; 0x1
30004284:	e50b306c 	str	r3, [fp, #-108]
30004288:	ea000007 	b	300042ac <vsscanf+0x318>
3000428c:	e51b3054 	ldr	r3, [fp, #-84]
30004290:	e353006c 	cmp	r3, #108	; 0x6c
30004294:	1a000004 	bne	300042ac <vsscanf+0x318>
30004298:	e3a0304c 	mov	r3, #76	; 0x4c
3000429c:	e50b3054 	str	r3, [fp, #-84]
300042a0:	e51b306c 	ldr	r3, [fp, #-108]
300042a4:	e2833001 	add	r3, r3, #1	; 0x1
300042a8:	e50b306c 	str	r3, [fp, #-108]
300042ac:	e3a0300a 	mov	r3, #10	; 0xa
300042b0:	e50b3050 	str	r3, [fp, #-80]
300042b4:	e3a03000 	mov	r3, #0	; 0x0
300042b8:	e50b3048 	str	r3, [fp, #-72]
300042bc:	e51b306c 	ldr	r3, [fp, #-108]
300042c0:	e5d33000 	ldrb	r3, [r3]
300042c4:	e3530000 	cmp	r3, #0	; 0x0
300042c8:	0a00024b 	beq	30004bfc <vsscanf+0xc68>
300042cc:	e51b3060 	ldr	r3, [fp, #-96]
300042d0:	e5d33000 	ldrb	r3, [r3]
300042d4:	e3530000 	cmp	r3, #0	; 0x0
300042d8:	0a000247 	beq	30004bfc <vsscanf+0xc68>
300042dc:	e51b206c 	ldr	r2, [fp, #-108]
300042e0:	e5d23000 	ldrb	r3, [r2]
300042e4:	e1a01003 	mov	r1, r3
300042e8:	e2823001 	add	r3, r2, #1	; 0x1
300042ec:	e50b306c 	str	r3, [fp, #-108]
300042f0:	e2413025 	sub	r3, r1, #37	; 0x25
300042f4:	e3530053 	cmp	r3, #83	; 0x53
300042f8:	908ff103 	addls	pc, pc, r3, lsl #2
300042fc:	ea0000e1 	b	30004688 <vsscanf+0x6f4>
30004300:	ea0000d2 	b	30004650 <vsscanf+0x6bc>
30004304:	ea0000df 	b	30004688 <vsscanf+0x6f4>
30004308:	ea0000de 	b	30004688 <vsscanf+0x6f4>
3000430c:	ea0000dd 	b	30004688 <vsscanf+0x6f4>
30004310:	ea0000dc 	b	30004688 <vsscanf+0x6f4>
30004314:	ea0000db 	b	30004688 <vsscanf+0x6f4>
30004318:	ea0000da 	b	30004688 <vsscanf+0x6f4>
3000431c:	ea0000d9 	b	30004688 <vsscanf+0x6f4>
30004320:	ea0000d8 	b	30004688 <vsscanf+0x6f4>
30004324:	ea0000d7 	b	30004688 <vsscanf+0x6f4>
30004328:	ea0000d6 	b	30004688 <vsscanf+0x6f4>
3000432c:	ea0000d5 	b	30004688 <vsscanf+0x6f4>
30004330:	ea0000d4 	b	30004688 <vsscanf+0x6f4>
30004334:	ea0000d3 	b	30004688 <vsscanf+0x6f4>
30004338:	ea0000d2 	b	30004688 <vsscanf+0x6f4>
3000433c:	ea0000d1 	b	30004688 <vsscanf+0x6f4>
30004340:	ea0000d0 	b	30004688 <vsscanf+0x6f4>
30004344:	ea0000cf 	b	30004688 <vsscanf+0x6f4>
30004348:	ea0000ce 	b	30004688 <vsscanf+0x6f4>
3000434c:	ea0000cd 	b	30004688 <vsscanf+0x6f4>
30004350:	ea0000cc 	b	30004688 <vsscanf+0x6f4>
30004354:	ea0000cb 	b	30004688 <vsscanf+0x6f4>
30004358:	ea0000ca 	b	30004688 <vsscanf+0x6f4>
3000435c:	ea0000c9 	b	30004688 <vsscanf+0x6f4>
30004360:	ea0000c8 	b	30004688 <vsscanf+0x6f4>
30004364:	ea0000c7 	b	30004688 <vsscanf+0x6f4>
30004368:	ea0000c6 	b	30004688 <vsscanf+0x6f4>
3000436c:	ea0000c5 	b	30004688 <vsscanf+0x6f4>
30004370:	ea0000c4 	b	30004688 <vsscanf+0x6f4>
30004374:	ea0000c3 	b	30004688 <vsscanf+0x6f4>
30004378:	ea0000c2 	b	30004688 <vsscanf+0x6f4>
3000437c:	ea0000c1 	b	30004688 <vsscanf+0x6f4>
30004380:	ea0000c0 	b	30004688 <vsscanf+0x6f4>
30004384:	ea0000bf 	b	30004688 <vsscanf+0x6f4>
30004388:	ea0000be 	b	30004688 <vsscanf+0x6f4>
3000438c:	ea0000bd 	b	30004688 <vsscanf+0x6f4>
30004390:	ea0000bc 	b	30004688 <vsscanf+0x6f4>
30004394:	ea0000bb 	b	30004688 <vsscanf+0x6f4>
30004398:	ea0000ba 	b	30004688 <vsscanf+0x6f4>
3000439c:	ea0000b9 	b	30004688 <vsscanf+0x6f4>
300043a0:	ea0000b8 	b	30004688 <vsscanf+0x6f4>
300043a4:	ea0000b7 	b	30004688 <vsscanf+0x6f4>
300043a8:	ea0000b6 	b	30004688 <vsscanf+0x6f4>
300043ac:	ea0000b5 	b	30004688 <vsscanf+0x6f4>
300043b0:	ea0000b4 	b	30004688 <vsscanf+0x6f4>
300043b4:	ea0000b3 	b	30004688 <vsscanf+0x6f4>
300043b8:	ea0000b2 	b	30004688 <vsscanf+0x6f4>
300043bc:	ea0000b1 	b	30004688 <vsscanf+0x6f4>
300043c0:	ea0000b0 	b	30004688 <vsscanf+0x6f4>
300043c4:	ea0000af 	b	30004688 <vsscanf+0x6f4>
300043c8:	ea0000ae 	b	30004688 <vsscanf+0x6f4>
300043cc:	ea000097 	b	30004630 <vsscanf+0x69c>
300043d0:	ea0000ac 	b	30004688 <vsscanf+0x6f4>
300043d4:	ea0000ab 	b	30004688 <vsscanf+0x6f4>
300043d8:	ea0000aa 	b	30004688 <vsscanf+0x6f4>
300043dc:	ea0000a9 	b	30004688 <vsscanf+0x6f4>
300043e0:	ea0000a8 	b	30004688 <vsscanf+0x6f4>
300043e4:	ea0000a7 	b	30004688 <vsscanf+0x6f4>
300043e8:	ea0000a6 	b	30004688 <vsscanf+0x6f4>
300043ec:	ea0000a5 	b	30004688 <vsscanf+0x6f4>
300043f0:	ea0000a4 	b	30004688 <vsscanf+0x6f4>
300043f4:	ea0000a3 	b	30004688 <vsscanf+0x6f4>
300043f8:	ea000014 	b	30004450 <vsscanf+0x4bc>
300043fc:	ea000090 	b	30004644 <vsscanf+0x6b0>
30004400:	ea0000a0 	b	30004688 <vsscanf+0x6f4>
30004404:	ea00009f 	b	30004688 <vsscanf+0x6f4>
30004408:	ea00009e 	b	30004688 <vsscanf+0x6f4>
3000440c:	ea00009d 	b	30004688 <vsscanf+0x6f4>
30004410:	ea000089 	b	3000463c <vsscanf+0x6a8>
30004414:	ea00009b 	b	30004688 <vsscanf+0x6f4>
30004418:	ea00009a 	b	30004688 <vsscanf+0x6f4>
3000441c:	ea000099 	b	30004688 <vsscanf+0x6f4>
30004420:	ea000098 	b	30004688 <vsscanf+0x6f4>
30004424:	ea000071 	b	300045f0 <vsscanf+0x65c>
30004428:	ea00007d 	b	30004624 <vsscanf+0x690>
3000442c:	ea000095 	b	30004688 <vsscanf+0x6f4>
30004430:	ea000094 	b	30004688 <vsscanf+0x6f4>
30004434:	ea000093 	b	30004688 <vsscanf+0x6f4>
30004438:	ea000028 	b	300044e0 <vsscanf+0x54c>
3000443c:	ea000091 	b	30004688 <vsscanf+0x6f4>
30004440:	ea000096 	b	300046a0 <vsscanf+0x70c>
30004444:	ea00008f 	b	30004688 <vsscanf+0x6f4>
30004448:	ea00008e 	b	30004688 <vsscanf+0x6f4>
3000444c:	ea000077 	b	30004630 <vsscanf+0x69c>
30004450:	e51b3070 	ldr	r3, [fp, #-112]
30004454:	e2833004 	add	r3, r3, #4	; 0x4
30004458:	e50b3070 	str	r3, [fp, #-112]
3000445c:	e51b3070 	ldr	r3, [fp, #-112]
30004460:	e2433004 	sub	r3, r3, #4	; 0x4
30004464:	e5933000 	ldr	r3, [r3]
30004468:	e50b3044 	str	r3, [fp, #-68]
3000446c:	e51b304c 	ldr	r3, [fp, #-76]
30004470:	e3730001 	cmn	r3, #1	; 0x1
30004474:	1a000001 	bne	30004480 <vsscanf+0x4ec>
30004478:	e3a03001 	mov	r3, #1	; 0x1
3000447c:	e50b304c 	str	r3, [fp, #-76]
30004480:	e51b3060 	ldr	r3, [fp, #-96]
30004484:	e5d33000 	ldrb	r3, [r3]
30004488:	e51b2044 	ldr	r2, [fp, #-68]
3000448c:	e5c23000 	strb	r3, [r2]
30004490:	e51b3044 	ldr	r3, [fp, #-68]
30004494:	e2833001 	add	r3, r3, #1	; 0x1
30004498:	e50b3044 	str	r3, [fp, #-68]
3000449c:	e51b3060 	ldr	r3, [fp, #-96]
300044a0:	e2833001 	add	r3, r3, #1	; 0x1
300044a4:	e50b3060 	str	r3, [fp, #-96]
300044a8:	e51b304c 	ldr	r3, [fp, #-76]
300044ac:	e2433001 	sub	r3, r3, #1	; 0x1
300044b0:	e50b304c 	str	r3, [fp, #-76]
300044b4:	e51b304c 	ldr	r3, [fp, #-76]
300044b8:	e3530000 	cmp	r3, #0	; 0x0
300044bc:	da000003 	ble	300044d0 <vsscanf+0x53c>
300044c0:	e51b3060 	ldr	r3, [fp, #-96]
300044c4:	e5d33000 	ldrb	r3, [r3]
300044c8:	e3530000 	cmp	r3, #0	; 0x0
300044cc:	1affffeb 	bne	30004480 <vsscanf+0x4ec>
300044d0:	e51b3058 	ldr	r3, [fp, #-88]
300044d4:	e2833001 	add	r3, r3, #1	; 0x1
300044d8:	e50b3058 	str	r3, [fp, #-88]
300044dc:	ea0001be 	b	30004bdc <vsscanf+0xc48>
300044e0:	e51b3070 	ldr	r3, [fp, #-112]
300044e4:	e2833004 	add	r3, r3, #4	; 0x4
300044e8:	e50b3070 	str	r3, [fp, #-112]
300044ec:	e51b3070 	ldr	r3, [fp, #-112]
300044f0:	e2433004 	sub	r3, r3, #4	; 0x4
300044f4:	e5933000 	ldr	r3, [r3]
300044f8:	e50b3040 	str	r3, [fp, #-64]
300044fc:	e51b304c 	ldr	r3, [fp, #-76]
30004500:	e3730001 	cmn	r3, #1	; 0x1
30004504:	1a000005 	bne	30004520 <vsscanf+0x58c>
30004508:	e3e03102 	mvn	r3, #-2147483648	; 0x80000000
3000450c:	e50b304c 	str	r3, [fp, #-76]
30004510:	ea000002 	b	30004520 <vsscanf+0x58c>
30004514:	e51b3060 	ldr	r3, [fp, #-96]
30004518:	e2833001 	add	r3, r3, #1	; 0x1
3000451c:	e50b3060 	str	r3, [fp, #-96]
30004520:	e51b3060 	ldr	r3, [fp, #-96]
30004524:	e5d33000 	ldrb	r3, [r3]
30004528:	e1a02003 	mov	r2, r3
3000452c:	e59f36e8 	ldr	r3, [pc, #1768]	; 30004c1c <vsscanf+0xc88>
30004530:	e51b1078 	ldr	r1, [fp, #-120]
30004534:	e7913003 	ldr	r3, [r1, r3]
30004538:	e7d33002 	ldrb	r3, [r3, r2]
3000453c:	e2033020 	and	r3, r3, #32	; 0x20
30004540:	e3530000 	cmp	r3, #0	; 0x0
30004544:	1afffff2 	bne	30004514 <vsscanf+0x580>
30004548:	ea000009 	b	30004574 <vsscanf+0x5e0>
3000454c:	e51b3060 	ldr	r3, [fp, #-96]
30004550:	e5d33000 	ldrb	r3, [r3]
30004554:	e51b2040 	ldr	r2, [fp, #-64]
30004558:	e5c23000 	strb	r3, [r2]
3000455c:	e51b3040 	ldr	r3, [fp, #-64]
30004560:	e2833001 	add	r3, r3, #1	; 0x1
30004564:	e50b3040 	str	r3, [fp, #-64]
30004568:	e51b3060 	ldr	r3, [fp, #-96]
3000456c:	e2833001 	add	r3, r3, #1	; 0x1
30004570:	e50b3060 	str	r3, [fp, #-96]
30004574:	e51b3060 	ldr	r3, [fp, #-96]
30004578:	e5d33000 	ldrb	r3, [r3]
3000457c:	e3530000 	cmp	r3, #0	; 0x0
30004580:	0a000013 	beq	300045d4 <vsscanf+0x640>
30004584:	e51b3060 	ldr	r3, [fp, #-96]
30004588:	e5d33000 	ldrb	r3, [r3]
3000458c:	e1a02003 	mov	r2, r3
30004590:	e59f3684 	ldr	r3, [pc, #1668]	; 30004c1c <vsscanf+0xc88>
30004594:	e51b1078 	ldr	r1, [fp, #-120]
30004598:	e7913003 	ldr	r3, [r1, r3]
3000459c:	e7d33002 	ldrb	r3, [r3, r2]
300045a0:	e2033020 	and	r3, r3, #32	; 0x20
300045a4:	e3530000 	cmp	r3, #0	; 0x0
300045a8:	1a000009 	bne	300045d4 <vsscanf+0x640>
300045ac:	e51b304c 	ldr	r3, [fp, #-76]
300045b0:	e3530000 	cmp	r3, #0	; 0x0
300045b4:	03a03000 	moveq	r3, #0	; 0x0
300045b8:	13a03001 	movne	r3, #1	; 0x1
300045bc:	e20320ff 	and	r2, r3, #255	; 0xff
300045c0:	e51b304c 	ldr	r3, [fp, #-76]
300045c4:	e2433001 	sub	r3, r3, #1	; 0x1
300045c8:	e50b304c 	str	r3, [fp, #-76]
300045cc:	e3520000 	cmp	r2, #0	; 0x0
300045d0:	1affffdd 	bne	3000454c <vsscanf+0x5b8>
300045d4:	e51b2040 	ldr	r2, [fp, #-64]
300045d8:	e3a03000 	mov	r3, #0	; 0x0
300045dc:	e5c23000 	strb	r3, [r2]
300045e0:	e51b3058 	ldr	r3, [fp, #-88]
300045e4:	e2833001 	add	r3, r3, #1	; 0x1
300045e8:	e50b3058 	str	r3, [fp, #-88]
300045ec:	ea00017a 	b	30004bdc <vsscanf+0xc48>
300045f0:	e51b3070 	ldr	r3, [fp, #-112]
300045f4:	e2833004 	add	r3, r3, #4	; 0x4
300045f8:	e50b3070 	str	r3, [fp, #-112]
300045fc:	e51b3070 	ldr	r3, [fp, #-112]
30004600:	e2433004 	sub	r3, r3, #4	; 0x4
30004604:	e5933000 	ldr	r3, [r3]
30004608:	e50b303c 	str	r3, [fp, #-60]
3000460c:	e51b2060 	ldr	r2, [fp, #-96]
30004610:	e51b3068 	ldr	r3, [fp, #-104]
30004614:	e0632002 	rsb	r2, r3, r2
30004618:	e51b303c 	ldr	r3, [fp, #-60]
3000461c:	e5832000 	str	r2, [r3]
30004620:	ea00016d 	b	30004bdc <vsscanf+0xc48>
30004624:	e3a03008 	mov	r3, #8	; 0x8
30004628:	e50b3050 	str	r3, [fp, #-80]
3000462c:	ea00001b 	b	300046a0 <vsscanf+0x70c>
30004630:	e3a03010 	mov	r3, #16	; 0x10
30004634:	e50b3050 	str	r3, [fp, #-80]
30004638:	ea000018 	b	300046a0 <vsscanf+0x70c>
3000463c:	e3a03000 	mov	r3, #0	; 0x0
30004640:	e50b3050 	str	r3, [fp, #-80]
30004644:	e3a03001 	mov	r3, #1	; 0x1
30004648:	e50b3048 	str	r3, [fp, #-72]
3000464c:	ea000013 	b	300046a0 <vsscanf+0x70c>
30004650:	e51b3060 	ldr	r3, [fp, #-96]
30004654:	e5d33000 	ldrb	r3, [r3]
30004658:	e3530025 	cmp	r3, #37	; 0x25
3000465c:	03a03000 	moveq	r3, #0	; 0x0
30004660:	13a03001 	movne	r3, #1	; 0x1
30004664:	e20320ff 	and	r2, r3, #255	; 0xff
30004668:	e51b3060 	ldr	r3, [fp, #-96]
3000466c:	e2833001 	add	r3, r3, #1	; 0x1
30004670:	e50b3060 	str	r3, [fp, #-96]
30004674:	e3520000 	cmp	r2, #0	; 0x0
30004678:	0a000157 	beq	30004bdc <vsscanf+0xc48>
3000467c:	e51b3058 	ldr	r3, [fp, #-88]
30004680:	e50b3074 	str	r3, [fp, #-116]
30004684:	ea00015e 	b	30004c04 <vsscanf+0xc70>
30004688:	e51b1058 	ldr	r1, [fp, #-88]
3000468c:	e50b1074 	str	r1, [fp, #-116]
30004690:	ea00015b 	b	30004c04 <vsscanf+0xc70>
30004694:	e51b3060 	ldr	r3, [fp, #-96]
30004698:	e2833001 	add	r3, r3, #1	; 0x1
3000469c:	e50b3060 	str	r3, [fp, #-96]
300046a0:	e51b3060 	ldr	r3, [fp, #-96]
300046a4:	e5d33000 	ldrb	r3, [r3]
300046a8:	e1a02003 	mov	r2, r3
300046ac:	e59f3568 	ldr	r3, [pc, #1384]	; 30004c1c <vsscanf+0xc88>
300046b0:	e51b1078 	ldr	r1, [fp, #-120]
300046b4:	e7913003 	ldr	r3, [r1, r3]
300046b8:	e7d33002 	ldrb	r3, [r3, r2]
300046bc:	e2033020 	and	r3, r3, #32	; 0x20
300046c0:	e3530000 	cmp	r3, #0	; 0x0
300046c4:	1afffff2 	bne	30004694 <vsscanf+0x700>
300046c8:	e51b3060 	ldr	r3, [fp, #-96]
300046cc:	e5d33000 	ldrb	r3, [r3]
300046d0:	e54b3059 	strb	r3, [fp, #-89]
300046d4:	e51b3048 	ldr	r3, [fp, #-72]
300046d8:	e3530000 	cmp	r3, #0	; 0x0
300046dc:	0a000006 	beq	300046fc <vsscanf+0x768>
300046e0:	e55b3059 	ldrb	r3, [fp, #-89]
300046e4:	e353002d 	cmp	r3, #45	; 0x2d
300046e8:	1a000003 	bne	300046fc <vsscanf+0x768>
300046ec:	e51b3060 	ldr	r3, [fp, #-96]
300046f0:	e2833001 	add	r3, r3, #1	; 0x1
300046f4:	e5d33000 	ldrb	r3, [r3]
300046f8:	e54b3059 	strb	r3, [fp, #-89]
300046fc:	e55b3059 	ldrb	r3, [fp, #-89]
30004700:	e3530000 	cmp	r3, #0	; 0x0
30004704:	0a00013c 	beq	30004bfc <vsscanf+0xc68>
30004708:	e51b3050 	ldr	r3, [fp, #-80]
3000470c:	e3530010 	cmp	r3, #16	; 0x10
30004710:	1a000007 	bne	30004734 <vsscanf+0x7a0>
30004714:	e55b2059 	ldrb	r2, [fp, #-89]
30004718:	e59f34fc 	ldr	r3, [pc, #1276]	; 30004c1c <vsscanf+0xc88>
3000471c:	e51b1078 	ldr	r1, [fp, #-120]
30004720:	e7913003 	ldr	r3, [r1, r3]
30004724:	e7d33002 	ldrb	r3, [r3, r2]
30004728:	e2033044 	and	r3, r3, #68	; 0x44
3000472c:	e3530000 	cmp	r3, #0	; 0x0
30004730:	0a000131 	beq	30004bfc <vsscanf+0xc68>
30004734:	e51b3050 	ldr	r3, [fp, #-80]
30004738:	e353000a 	cmp	r3, #10	; 0xa
3000473c:	1a000007 	bne	30004760 <vsscanf+0x7cc>
30004740:	e55b2059 	ldrb	r2, [fp, #-89]
30004744:	e59f34d0 	ldr	r3, [pc, #1232]	; 30004c1c <vsscanf+0xc88>
30004748:	e51b1078 	ldr	r1, [fp, #-120]
3000474c:	e7913003 	ldr	r3, [r1, r3]
30004750:	e7d33002 	ldrb	r3, [r3, r2]
30004754:	e2033004 	and	r3, r3, #4	; 0x4
30004758:	e3530000 	cmp	r3, #0	; 0x0
3000475c:	0a000126 	beq	30004bfc <vsscanf+0xc68>
30004760:	e51b3050 	ldr	r3, [fp, #-80]
30004764:	e3530008 	cmp	r3, #8	; 0x8
30004768:	1a00000a 	bne	30004798 <vsscanf+0x804>
3000476c:	e55b2059 	ldrb	r2, [fp, #-89]
30004770:	e59f34a4 	ldr	r3, [pc, #1188]	; 30004c1c <vsscanf+0xc88>
30004774:	e51b1078 	ldr	r1, [fp, #-120]
30004778:	e7913003 	ldr	r3, [r1, r3]
3000477c:	e7d33002 	ldrb	r3, [r3, r2]
30004780:	e2033004 	and	r3, r3, #4	; 0x4
30004784:	e3530000 	cmp	r3, #0	; 0x0
30004788:	0a00011b 	beq	30004bfc <vsscanf+0xc68>
3000478c:	e55b3059 	ldrb	r3, [fp, #-89]
30004790:	e3530037 	cmp	r3, #55	; 0x37
30004794:	8a000118 	bhi	30004bfc <vsscanf+0xc68>
30004798:	e51b3050 	ldr	r3, [fp, #-80]
3000479c:	e3530000 	cmp	r3, #0	; 0x0
300047a0:	1a000007 	bne	300047c4 <vsscanf+0x830>
300047a4:	e55b2059 	ldrb	r2, [fp, #-89]
300047a8:	e59f346c 	ldr	r3, [pc, #1132]	; 30004c1c <vsscanf+0xc88>
300047ac:	e51b1078 	ldr	r1, [fp, #-120]
300047b0:	e7913003 	ldr	r3, [r1, r3]
300047b4:	e7d33002 	ldrb	r3, [r3, r2]
300047b8:	e2033004 	and	r3, r3, #4	; 0x4
300047bc:	e3530000 	cmp	r3, #0	; 0x0
300047c0:	0a00010d 	beq	30004bfc <vsscanf+0xc68>
300047c4:	e51b3054 	ldr	r3, [fp, #-84]
300047c8:	e2433048 	sub	r3, r3, #72	; 0x48
300047cc:	e3530032 	cmp	r3, #50	; 0x32
300047d0:	908ff103 	addls	pc, pc, r3, lsl #2
300047d4:	ea0000d6 	b	30004b34 <vsscanf+0xba0>
300047d8:	ea000031 	b	300048a4 <vsscanf+0x910>
300047dc:	ea0000d4 	b	30004b34 <vsscanf+0xba0>
300047e0:	ea0000d3 	b	30004b34 <vsscanf+0xba0>
300047e4:	ea0000d2 	b	30004b34 <vsscanf+0xba0>
300047e8:	ea00009c 	b	30004a60 <vsscanf+0xacc>
300047ec:	ea0000d0 	b	30004b34 <vsscanf+0xba0>
300047f0:	ea0000cf 	b	30004b34 <vsscanf+0xba0>
300047f4:	ea0000ce 	b	30004b34 <vsscanf+0xba0>
300047f8:	ea0000cd 	b	30004b34 <vsscanf+0xba0>
300047fc:	ea0000cc 	b	30004b34 <vsscanf+0xba0>
30004800:	ea0000cb 	b	30004b34 <vsscanf+0xba0>
30004804:	ea0000ca 	b	30004b34 <vsscanf+0xba0>
30004808:	ea0000c9 	b	30004b34 <vsscanf+0xba0>
3000480c:	ea0000c8 	b	30004b34 <vsscanf+0xba0>
30004810:	ea0000c7 	b	30004b34 <vsscanf+0xba0>
30004814:	ea0000c6 	b	30004b34 <vsscanf+0xba0>
30004818:	ea0000c5 	b	30004b34 <vsscanf+0xba0>
3000481c:	ea0000c4 	b	30004b34 <vsscanf+0xba0>
30004820:	ea0000b3 	b	30004af4 <vsscanf+0xb60>
30004824:	ea0000c2 	b	30004b34 <vsscanf+0xba0>
30004828:	ea0000c1 	b	30004b34 <vsscanf+0xba0>
3000482c:	ea0000c0 	b	30004b34 <vsscanf+0xba0>
30004830:	ea0000bf 	b	30004b34 <vsscanf+0xba0>
30004834:	ea0000be 	b	30004b34 <vsscanf+0xba0>
30004838:	ea0000bd 	b	30004b34 <vsscanf+0xba0>
3000483c:	ea0000bc 	b	30004b34 <vsscanf+0xba0>
30004840:	ea0000bb 	b	30004b34 <vsscanf+0xba0>
30004844:	ea0000ba 	b	30004b34 <vsscanf+0xba0>
30004848:	ea0000b9 	b	30004b34 <vsscanf+0xba0>
3000484c:	ea0000b8 	b	30004b34 <vsscanf+0xba0>
30004850:	ea0000b7 	b	30004b34 <vsscanf+0xba0>
30004854:	ea0000b6 	b	30004b34 <vsscanf+0xba0>
30004858:	ea000036 	b	30004938 <vsscanf+0x9a4>
3000485c:	ea0000b4 	b	30004b34 <vsscanf+0xba0>
30004860:	ea0000b3 	b	30004b34 <vsscanf+0xba0>
30004864:	ea0000b2 	b	30004b34 <vsscanf+0xba0>
30004868:	ea000059 	b	300049d4 <vsscanf+0xa40>
3000486c:	ea0000b0 	b	30004b34 <vsscanf+0xba0>
30004870:	ea0000af 	b	30004b34 <vsscanf+0xba0>
30004874:	ea0000ae 	b	30004b34 <vsscanf+0xba0>
30004878:	ea0000ad 	b	30004b34 <vsscanf+0xba0>
3000487c:	ea0000ac 	b	30004b34 <vsscanf+0xba0>
30004880:	ea0000ab 	b	30004b34 <vsscanf+0xba0>
30004884:	ea0000aa 	b	30004b34 <vsscanf+0xba0>
30004888:	ea0000a9 	b	30004b34 <vsscanf+0xba0>
3000488c:	ea0000a8 	b	30004b34 <vsscanf+0xba0>
30004890:	ea0000a7 	b	30004b34 <vsscanf+0xba0>
30004894:	ea0000a6 	b	30004b34 <vsscanf+0xba0>
30004898:	ea0000a5 	b	30004b34 <vsscanf+0xba0>
3000489c:	ea0000a4 	b	30004b34 <vsscanf+0xba0>
300048a0:	ea000093 	b	30004af4 <vsscanf+0xb60>
300048a4:	e51b3048 	ldr	r3, [fp, #-72]
300048a8:	e3530000 	cmp	r3, #0	; 0x0
300048ac:	0a000010 	beq	300048f4 <vsscanf+0x960>
300048b0:	e51b3070 	ldr	r3, [fp, #-112]
300048b4:	e2833004 	add	r3, r3, #4	; 0x4
300048b8:	e50b3070 	str	r3, [fp, #-112]
300048bc:	e51b3070 	ldr	r3, [fp, #-112]
300048c0:	e2433004 	sub	r3, r3, #4	; 0x4
300048c4:	e5933000 	ldr	r3, [r3]
300048c8:	e50b3038 	str	r3, [fp, #-56]
300048cc:	e51b2050 	ldr	r2, [fp, #-80]
300048d0:	e24b3064 	sub	r3, fp, #100	; 0x64
300048d4:	e51b0060 	ldr	r0, [fp, #-96]
300048d8:	e1a01003 	mov	r1, r3
300048dc:	ebfff7b0 	bl	300027a4 <simple_strtol>
300048e0:	e1a03000 	mov	r3, r0
300048e4:	e20330ff 	and	r3, r3, #255	; 0xff
300048e8:	e51b2038 	ldr	r2, [fp, #-56]
300048ec:	e5c23000 	strb	r3, [r2]
300048f0:	ea0000b1 	b	30004bbc <vsscanf+0xc28>
300048f4:	e51b3070 	ldr	r3, [fp, #-112]
300048f8:	e2833004 	add	r3, r3, #4	; 0x4
300048fc:	e50b3070 	str	r3, [fp, #-112]
30004900:	e51b3070 	ldr	r3, [fp, #-112]
30004904:	e2433004 	sub	r3, r3, #4	; 0x4
30004908:	e5933000 	ldr	r3, [r3]
3000490c:	e50b3034 	str	r3, [fp, #-52]
30004910:	e51b2050 	ldr	r2, [fp, #-80]
30004914:	e24b3064 	sub	r3, fp, #100	; 0x64
30004918:	e51b0060 	ldr	r0, [fp, #-96]
3000491c:	e1a01003 	mov	r1, r3
30004920:	ebfff705 	bl	3000253c <simple_strtoul>
30004924:	e1a03000 	mov	r3, r0
30004928:	e20330ff 	and	r3, r3, #255	; 0xff
3000492c:	e51b2034 	ldr	r2, [fp, #-52]
30004930:	e5c23000 	strb	r3, [r2]
30004934:	ea0000a0 	b	30004bbc <vsscanf+0xc28>
30004938:	e51b3048 	ldr	r3, [fp, #-72]
3000493c:	e3530000 	cmp	r3, #0	; 0x0
30004940:	0a000011 	beq	3000498c <vsscanf+0x9f8>
30004944:	e51b3070 	ldr	r3, [fp, #-112]
30004948:	e2833004 	add	r3, r3, #4	; 0x4
3000494c:	e50b3070 	str	r3, [fp, #-112]
30004950:	e51b3070 	ldr	r3, [fp, #-112]
30004954:	e2433004 	sub	r3, r3, #4	; 0x4
30004958:	e5933000 	ldr	r3, [r3]
3000495c:	e50b3030 	str	r3, [fp, #-48]
30004960:	e51b2050 	ldr	r2, [fp, #-80]
30004964:	e24b3064 	sub	r3, fp, #100	; 0x64
30004968:	e51b0060 	ldr	r0, [fp, #-96]
3000496c:	e1a01003 	mov	r1, r3
30004970:	ebfff78b 	bl	300027a4 <simple_strtol>
30004974:	e1a03000 	mov	r3, r0
30004978:	e1a03803 	lsl	r3, r3, #16
3000497c:	e1a02823 	lsr	r2, r3, #16
30004980:	e51b3030 	ldr	r3, [fp, #-48]
30004984:	e1c320b0 	strh	r2, [r3]
30004988:	ea00008b 	b	30004bbc <vsscanf+0xc28>
3000498c:	e51b3070 	ldr	r3, [fp, #-112]
30004990:	e2833004 	add	r3, r3, #4	; 0x4
30004994:	e50b3070 	str	r3, [fp, #-112]
30004998:	e51b3070 	ldr	r3, [fp, #-112]
3000499c:	e2433004 	sub	r3, r3, #4	; 0x4
300049a0:	e5933000 	ldr	r3, [r3]
300049a4:	e50b302c 	str	r3, [fp, #-44]
300049a8:	e51b2050 	ldr	r2, [fp, #-80]
300049ac:	e24b3064 	sub	r3, fp, #100	; 0x64
300049b0:	e51b0060 	ldr	r0, [fp, #-96]
300049b4:	e1a01003 	mov	r1, r3
300049b8:	ebfff6df 	bl	3000253c <simple_strtoul>
300049bc:	e1a03000 	mov	r3, r0
300049c0:	e1a03803 	lsl	r3, r3, #16
300049c4:	e1a02823 	lsr	r2, r3, #16
300049c8:	e51b302c 	ldr	r3, [fp, #-44]
300049cc:	e1c320b0 	strh	r2, [r3]
300049d0:	ea000079 	b	30004bbc <vsscanf+0xc28>
300049d4:	e51b3048 	ldr	r3, [fp, #-72]
300049d8:	e3530000 	cmp	r3, #0	; 0x0
300049dc:	0a00000f 	beq	30004a20 <vsscanf+0xa8c>
300049e0:	e51b3070 	ldr	r3, [fp, #-112]
300049e4:	e2833004 	add	r3, r3, #4	; 0x4
300049e8:	e50b3070 	str	r3, [fp, #-112]
300049ec:	e51b3070 	ldr	r3, [fp, #-112]
300049f0:	e2433004 	sub	r3, r3, #4	; 0x4
300049f4:	e5933000 	ldr	r3, [r3]
300049f8:	e50b3028 	str	r3, [fp, #-40]
300049fc:	e51b2050 	ldr	r2, [fp, #-80]
30004a00:	e24b3064 	sub	r3, fp, #100	; 0x64
30004a04:	e51b0060 	ldr	r0, [fp, #-96]
30004a08:	e1a01003 	mov	r1, r3
30004a0c:	ebfff764 	bl	300027a4 <simple_strtol>
30004a10:	e1a02000 	mov	r2, r0
30004a14:	e51b3028 	ldr	r3, [fp, #-40]
30004a18:	e5832000 	str	r2, [r3]
30004a1c:	ea000066 	b	30004bbc <vsscanf+0xc28>
30004a20:	e51b3070 	ldr	r3, [fp, #-112]
30004a24:	e2833004 	add	r3, r3, #4	; 0x4
30004a28:	e50b3070 	str	r3, [fp, #-112]
30004a2c:	e51b3070 	ldr	r3, [fp, #-112]
30004a30:	e2433004 	sub	r3, r3, #4	; 0x4
30004a34:	e5933000 	ldr	r3, [r3]
30004a38:	e50b3024 	str	r3, [fp, #-36]
30004a3c:	e51b2050 	ldr	r2, [fp, #-80]
30004a40:	e24b3064 	sub	r3, fp, #100	; 0x64
30004a44:	e51b0060 	ldr	r0, [fp, #-96]
30004a48:	e1a01003 	mov	r1, r3
30004a4c:	ebfff6ba 	bl	3000253c <simple_strtoul>
30004a50:	e1a02000 	mov	r2, r0
30004a54:	e51b3024 	ldr	r3, [fp, #-36]
30004a58:	e5832000 	str	r2, [r3]
30004a5c:	ea000056 	b	30004bbc <vsscanf+0xc28>
30004a60:	e51b3048 	ldr	r3, [fp, #-72]
30004a64:	e3530000 	cmp	r3, #0	; 0x0
30004a68:	0a000010 	beq	30004ab0 <vsscanf+0xb1c>
30004a6c:	e51b3070 	ldr	r3, [fp, #-112]
30004a70:	e2833004 	add	r3, r3, #4	; 0x4
30004a74:	e50b3070 	str	r3, [fp, #-112]
30004a78:	e51b3070 	ldr	r3, [fp, #-112]
30004a7c:	e2433004 	sub	r3, r3, #4	; 0x4
30004a80:	e5933000 	ldr	r3, [r3]
30004a84:	e50b3020 	str	r3, [fp, #-32]
30004a88:	e51b2050 	ldr	r2, [fp, #-80]
30004a8c:	e24b3064 	sub	r3, fp, #100	; 0x64
30004a90:	e51b0060 	ldr	r0, [fp, #-96]
30004a94:	e1a01003 	mov	r1, r3
30004a98:	ebfff817 	bl	30002afc <simple_strtoll>
30004a9c:	e1a03000 	mov	r3, r0
30004aa0:	e1a04001 	mov	r4, r1
30004aa4:	e51b2020 	ldr	r2, [fp, #-32]
30004aa8:	e8820018 	stm	r2, {r3, r4}
30004aac:	ea000042 	b	30004bbc <vsscanf+0xc28>
30004ab0:	e51b3070 	ldr	r3, [fp, #-112]
30004ab4:	e2833004 	add	r3, r3, #4	; 0x4
30004ab8:	e50b3070 	str	r3, [fp, #-112]
30004abc:	e51b3070 	ldr	r3, [fp, #-112]
30004ac0:	e2433004 	sub	r3, r3, #4	; 0x4
30004ac4:	e5933000 	ldr	r3, [r3]
30004ac8:	e50b301c 	str	r3, [fp, #-28]
30004acc:	e51b2050 	ldr	r2, [fp, #-80]
30004ad0:	e24b3064 	sub	r3, fp, #100	; 0x64
30004ad4:	e51b0060 	ldr	r0, [fp, #-96]
30004ad8:	e1a01003 	mov	r1, r3
30004adc:	ebfff74f 	bl	30002820 <simple_strtoull>
30004ae0:	e1a03000 	mov	r3, r0
30004ae4:	e1a04001 	mov	r4, r1
30004ae8:	e51b201c 	ldr	r2, [fp, #-28]
30004aec:	e8820018 	stm	r2, {r3, r4}
30004af0:	ea000031 	b	30004bbc <vsscanf+0xc28>
30004af4:	e51b3070 	ldr	r3, [fp, #-112]
30004af8:	e2833004 	add	r3, r3, #4	; 0x4
30004afc:	e50b3070 	str	r3, [fp, #-112]
30004b00:	e51b3070 	ldr	r3, [fp, #-112]
30004b04:	e2433004 	sub	r3, r3, #4	; 0x4
30004b08:	e5933000 	ldr	r3, [r3]
30004b0c:	e50b3018 	str	r3, [fp, #-24]
30004b10:	e51b2050 	ldr	r2, [fp, #-80]
30004b14:	e24b3064 	sub	r3, fp, #100	; 0x64
30004b18:	e51b0060 	ldr	r0, [fp, #-96]
30004b1c:	e1a01003 	mov	r1, r3
30004b20:	ebfff685 	bl	3000253c <simple_strtoul>
30004b24:	e1a02000 	mov	r2, r0
30004b28:	e51b3018 	ldr	r3, [fp, #-24]
30004b2c:	e5832000 	str	r2, [r3]
30004b30:	ea000021 	b	30004bbc <vsscanf+0xc28>
30004b34:	e51b3048 	ldr	r3, [fp, #-72]
30004b38:	e3530000 	cmp	r3, #0	; 0x0
30004b3c:	0a00000f 	beq	30004b80 <vsscanf+0xbec>
30004b40:	e51b3070 	ldr	r3, [fp, #-112]
30004b44:	e2833004 	add	r3, r3, #4	; 0x4
30004b48:	e50b3070 	str	r3, [fp, #-112]
30004b4c:	e51b3070 	ldr	r3, [fp, #-112]
30004b50:	e2433004 	sub	r3, r3, #4	; 0x4
30004b54:	e5933000 	ldr	r3, [r3]
30004b58:	e50b3014 	str	r3, [fp, #-20]
30004b5c:	e51b2050 	ldr	r2, [fp, #-80]
30004b60:	e24b3064 	sub	r3, fp, #100	; 0x64
30004b64:	e51b0060 	ldr	r0, [fp, #-96]
30004b68:	e1a01003 	mov	r1, r3
30004b6c:	ebfff70c 	bl	300027a4 <simple_strtol>
30004b70:	e1a02000 	mov	r2, r0
30004b74:	e51b3014 	ldr	r3, [fp, #-20]
30004b78:	e5832000 	str	r2, [r3]
30004b7c:	ea00000e 	b	30004bbc <vsscanf+0xc28>
30004b80:	e51b3070 	ldr	r3, [fp, #-112]
30004b84:	e2833004 	add	r3, r3, #4	; 0x4
30004b88:	e50b3070 	str	r3, [fp, #-112]
30004b8c:	e51b3070 	ldr	r3, [fp, #-112]
30004b90:	e2433004 	sub	r3, r3, #4	; 0x4
30004b94:	e5933000 	ldr	r3, [r3]
30004b98:	e50b3010 	str	r3, [fp, #-16]
30004b9c:	e51b2050 	ldr	r2, [fp, #-80]
30004ba0:	e24b3064 	sub	r3, fp, #100	; 0x64
30004ba4:	e51b0060 	ldr	r0, [fp, #-96]
30004ba8:	e1a01003 	mov	r1, r3
30004bac:	ebfff662 	bl	3000253c <simple_strtoul>
30004bb0:	e1a02000 	mov	r2, r0
30004bb4:	e51b3010 	ldr	r3, [fp, #-16]
30004bb8:	e5832000 	str	r2, [r3]
30004bbc:	e51b3058 	ldr	r3, [fp, #-88]
30004bc0:	e2833001 	add	r3, r3, #1	; 0x1
30004bc4:	e50b3058 	str	r3, [fp, #-88]
30004bc8:	e51b3064 	ldr	r3, [fp, #-100]
30004bcc:	e3530000 	cmp	r3, #0	; 0x0
30004bd0:	0a000009 	beq	30004bfc <vsscanf+0xc68>
30004bd4:	e51b3064 	ldr	r3, [fp, #-100]
30004bd8:	e50b3060 	str	r3, [fp, #-96]
30004bdc:	e51b306c 	ldr	r3, [fp, #-108]
30004be0:	e5d33000 	ldrb	r3, [r3]
30004be4:	e3530000 	cmp	r3, #0	; 0x0
30004be8:	0a000003 	beq	30004bfc <vsscanf+0xc68>
30004bec:	e51b3060 	ldr	r3, [fp, #-96]
30004bf0:	e5d33000 	ldrb	r3, [r3]
30004bf4:	e3530000 	cmp	r3, #0	; 0x0
30004bf8:	1afffcf7 	bne	30003fdc <vsscanf+0x48>
30004bfc:	e51b3058 	ldr	r3, [fp, #-88]
30004c00:	e50b3074 	str	r3, [fp, #-116]
30004c04:	e51b3074 	ldr	r3, [fp, #-116]
30004c08:	e1a00003 	mov	r0, r3
30004c0c:	e24bd008 	sub	sp, fp, #8	; 0x8
30004c10:	e8bd4810 	pop	{r4, fp, lr}
30004c14:	e12fff1e 	bx	lr
30004c18:	cfffc04c 	.word	0xcfffc04c
30004c1c:	00000580 	.word	0x00000580

30004c20 <sscanf>:
30004c20:	e92d000e 	push	{r1, r2, r3}
30004c24:	e92d4800 	push	{fp, lr}
30004c28:	e28db004 	add	fp, sp, #4	; 0x4
30004c2c:	e24dd014 	sub	sp, sp, #20	; 0x14
30004c30:	e50b0014 	str	r0, [fp, #-20]
30004c34:	e28b3004 	add	r3, fp, #4	; 0x4
30004c38:	e2833004 	add	r3, r3, #4	; 0x4
30004c3c:	e50b3010 	str	r3, [fp, #-16]
30004c40:	e59b3004 	ldr	r3, [fp, #4]
30004c44:	e51b0014 	ldr	r0, [fp, #-20]
30004c48:	e1a01003 	mov	r1, r3
30004c4c:	e51b2010 	ldr	r2, [fp, #-16]
30004c50:	ebfffccf 	bl	30003f94 <vsscanf>
30004c54:	e1a03000 	mov	r3, r0
30004c58:	e50b300c 	str	r3, [fp, #-12]
30004c5c:	e51b300c 	ldr	r3, [fp, #-12]
30004c60:	e1a00003 	mov	r0, r3
30004c64:	e24bd004 	sub	sp, fp, #4	; 0x4
30004c68:	e8bd4800 	pop	{fp, lr}
30004c6c:	e28dd00c 	add	sp, sp, #12	; 0xc
30004c70:	e12fff1e 	bx	lr
	...

30004c80 <__do_div64>:
30004c80:	e254c001 	subs	ip, r4, #1	; 0x1
30004c84:	9a00003f 	bls	30004d88 <__do_div64+0x108>
30004c88:	e11c0004 	tst	ip, r4
30004c8c:	0a000028 	beq	30004d34 <__do_div64+0xb4>
30004c90:	e1510004 	cmp	r1, r4
30004c94:	e3a03000 	mov	r3, #0	; 0x0
30004c98:	3a00000c 	bcc	30004cd0 <__do_div64+0x50>
30004c9c:	e1a02004 	mov	r2, r4
30004ca0:	e3a0c001 	mov	ip, #1	; 0x1
30004ca4:	e3520102 	cmp	r2, #-2147483648	; 0x80000000
30004ca8:	31520001 	cmpcc	r2, r1
30004cac:	31a02082 	lslcc	r2, r2, #1
30004cb0:	31a0c08c 	lslcc	ip, ip, #1
30004cb4:	3afffffa 	bcc	30004ca4 <__do_div64+0x24>
30004cb8:	e1510002 	cmp	r1, r2
30004cbc:	2183300c 	orrcs	r3, r3, ip
30004cc0:	20511002 	subscs	r1, r1, r2
30004cc4:	11b0c0ac 	lsrsne	ip, ip, #1
30004cc8:	e1a020a2 	lsr	r2, r2, #1
30004ccc:	1afffff9 	bne	30004cb8 <__do_div64+0x38>
30004cd0:	e3510000 	cmp	r1, #0	; 0x0
30004cd4:	e3a02000 	mov	r2, #0	; 0x0
30004cd8:	01500004 	cmpeq	r0, r4
30004cdc:	31a01000 	movcc	r1, r0
30004ce0:	31a0f00e 	movcc	pc, lr
30004ce4:	e3a0c102 	mov	ip, #-2147483648	; 0x80000000
30004ce8:	e1b00080 	lsls	r0, r0, #1
30004cec:	e0b11001 	adcs	r1, r1, r1
30004cf0:	0a000005 	beq	30004d0c <__do_div64+0x8c>
30004cf4:	31510004 	cmpcc	r1, r4
30004cf8:	2182200c 	orrcs	r2, r2, ip
30004cfc:	20411004 	subcs	r1, r1, r4
30004d00:	e1b0c0ac 	lsrs	ip, ip, #1
30004d04:	1afffff7 	bne	30004ce8 <__do_div64+0x68>
30004d08:	e1a0f00e 	mov	pc, lr
30004d0c:	2afffff9 	bcs	30004cf8 <__do_div64+0x78>
30004d10:	e3500000 	cmp	r0, #0	; 0x0
30004d14:	01a0f00e 	moveq	pc, lr
30004d18:	e1b00080 	lsls	r0, r0, #1
30004d1c:	e1a0c0ac 	lsr	ip, ip, #1
30004d20:	3afffffc 	bcc	30004d18 <__do_div64+0x98>
30004d24:	e1b0c0ac 	lsrs	ip, ip, #1
30004d28:	e3a01001 	mov	r1, #1	; 0x1
30004d2c:	1affffed 	bne	30004ce8 <__do_div64+0x68>
30004d30:	e1a0f00e 	mov	pc, lr
30004d34:	e1a02004 	mov	r2, r4
30004d38:	e3540801 	cmp	r4, #65536	; 0x10000
30004d3c:	e3a0c000 	mov	ip, #0	; 0x0
30004d40:	21a02822 	lsrcs	r2, r2, #16
30004d44:	23a0c010 	movcs	ip, #16	; 0x10
30004d48:	e3520c01 	cmp	r2, #256	; 0x100
30004d4c:	21a02422 	lsrcs	r2, r2, #8
30004d50:	228cc008 	addcs	ip, ip, #8	; 0x8
30004d54:	e3520010 	cmp	r2, #16	; 0x10
30004d58:	21a02222 	lsrcs	r2, r2, #4
30004d5c:	228cc004 	addcs	ip, ip, #4	; 0x4
30004d60:	e3520004 	cmp	r2, #4	; 0x4
30004d64:	828cc003 	addhi	ip, ip, #3	; 0x3
30004d68:	908cc0a2 	addls	ip, ip, r2, lsr #1
30004d6c:	e1a03c31 	lsr	r3, r1, ip
30004d70:	e1a02c30 	lsr	r2, r0, ip
30004d74:	e26cc020 	rsb	ip, ip, #32	; 0x20
30004d78:	e1822c11 	orr	r2, r2, r1, lsl ip
30004d7c:	e1a01c10 	lsl	r1, r0, ip
30004d80:	e1a01c31 	lsr	r1, r1, ip
30004d84:	e1a0f00e 	mov	pc, lr
30004d88:	01a02000 	moveq	r2, r0
30004d8c:	01a03001 	moveq	r3, r1
30004d90:	03a01000 	moveq	r1, #0	; 0x0
30004d94:	01a0f00e 	moveq	pc, lr
30004d98:	e52de004 	push	{lr}		; (str lr, [sp, #-4]!)
30004d9c:	e3a02000 	mov	r2, #0	; 0x0
30004da0:	e3a03000 	mov	r3, #0	; 0x0
30004da4:	e3a01000 	mov	r1, #0	; 0x0
30004da8:	e49df004 	pop	{pc}		; (ldr pc, [sp], #4)
30004dac:	e1a00000 	nop			(mov r0,r0)

30004db0 <__udivsi3>:
30004db0:	e2512001 	subs	r2, r1, #1	; 0x1
30004db4:	01a0f00e 	moveq	pc, lr
30004db8:	3a0000e5 	bcc	30005154 <Ldiv0>
30004dbc:	e1500001 	cmp	r0, r1
30004dc0:	9a000022 	bls	30004e50 <__udivsi3+0xa0>
30004dc4:	e1110002 	tst	r1, r2
30004dc8:	0a000023 	beq	30004e5c <__udivsi3+0xac>
30004dcc:	e311020e 	tst	r1, #-536870912	; 0xe0000000
30004dd0:	01a01181 	lsleq	r1, r1, #3
30004dd4:	03a03008 	moveq	r3, #8	; 0x8
30004dd8:	13a03001 	movne	r3, #1	; 0x1
30004ddc:	e3510201 	cmp	r1, #268435456	; 0x10000000
30004de0:	31510000 	cmpcc	r1, r0
30004de4:	31a01201 	lslcc	r1, r1, #4
30004de8:	31a03203 	lslcc	r3, r3, #4
30004dec:	3afffffa 	bcc	30004ddc <__udivsi3+0x2c>
30004df0:	e3510102 	cmp	r1, #-2147483648	; 0x80000000
30004df4:	31510000 	cmpcc	r1, r0
30004df8:	31a01081 	lslcc	r1, r1, #1
30004dfc:	31a03083 	lslcc	r3, r3, #1
30004e00:	3afffffa 	bcc	30004df0 <__udivsi3+0x40>
30004e04:	e3a02000 	mov	r2, #0	; 0x0
30004e08:	e1500001 	cmp	r0, r1
30004e0c:	20400001 	subcs	r0, r0, r1
30004e10:	21822003 	orrcs	r2, r2, r3
30004e14:	e15000a1 	cmp	r0, r1, lsr #1
30004e18:	204000a1 	subcs	r0, r0, r1, lsr #1
30004e1c:	218220a3 	orrcs	r2, r2, r3, lsr #1
30004e20:	e1500121 	cmp	r0, r1, lsr #2
30004e24:	20400121 	subcs	r0, r0, r1, lsr #2
30004e28:	21822123 	orrcs	r2, r2, r3, lsr #2
30004e2c:	e15001a1 	cmp	r0, r1, lsr #3
30004e30:	204001a1 	subcs	r0, r0, r1, lsr #3
30004e34:	218221a3 	orrcs	r2, r2, r3, lsr #3
30004e38:	e3500000 	cmp	r0, #0	; 0x0
30004e3c:	11b03223 	lsrsne	r3, r3, #4
30004e40:	11a01221 	lsrne	r1, r1, #4
30004e44:	1affffef 	bne	30004e08 <__udivsi3+0x58>
30004e48:	e1a00002 	mov	r0, r2
30004e4c:	e1a0f00e 	mov	pc, lr
30004e50:	03a00001 	moveq	r0, #1	; 0x1
30004e54:	13a00000 	movne	r0, #0	; 0x0
30004e58:	e1a0f00e 	mov	pc, lr
30004e5c:	e3510801 	cmp	r1, #65536	; 0x10000
30004e60:	21a01821 	lsrcs	r1, r1, #16
30004e64:	23a02010 	movcs	r2, #16	; 0x10
30004e68:	33a02000 	movcc	r2, #0	; 0x0
30004e6c:	e3510c01 	cmp	r1, #256	; 0x100
30004e70:	21a01421 	lsrcs	r1, r1, #8
30004e74:	22822008 	addcs	r2, r2, #8	; 0x8
30004e78:	e3510010 	cmp	r1, #16	; 0x10
30004e7c:	21a01221 	lsrcs	r1, r1, #4
30004e80:	22822004 	addcs	r2, r2, #4	; 0x4
30004e84:	e3510004 	cmp	r1, #4	; 0x4
30004e88:	82822003 	addhi	r2, r2, #3	; 0x3
30004e8c:	908220a1 	addls	r2, r2, r1, lsr #1
30004e90:	e1a00230 	lsr	r0, r0, r2
30004e94:	e1a0f00e 	mov	pc, lr
30004e98:	90909090 	.word	0x90909090
30004e9c:	90909090 	.word	0x90909090

30004ea0 <__umodsi3>:
30004ea0:	e2512001 	subs	r2, r1, #1	; 0x1
30004ea4:	3a0000aa 	bcc	30005154 <Ldiv0>
30004ea8:	11500001 	cmpne	r0, r1
30004eac:	03a00000 	moveq	r0, #0	; 0x0
30004eb0:	81110002 	tsthi	r1, r2
30004eb4:	00000002 	andeq	r0, r0, r2
30004eb8:	91a0f00e 	movls	pc, lr
30004ebc:	e3a02000 	mov	r2, #0	; 0x0
30004ec0:	e3510201 	cmp	r1, #268435456	; 0x10000000
30004ec4:	31510000 	cmpcc	r1, r0
30004ec8:	31a01201 	lslcc	r1, r1, #4
30004ecc:	32822004 	addcc	r2, r2, #4	; 0x4
30004ed0:	3afffffa 	bcc	30004ec0 <__umodsi3+0x20>
30004ed4:	e3510102 	cmp	r1, #-2147483648	; 0x80000000
30004ed8:	31510000 	cmpcc	r1, r0
30004edc:	31a01081 	lslcc	r1, r1, #1
30004ee0:	32822001 	addcc	r2, r2, #1	; 0x1
30004ee4:	3afffffa 	bcc	30004ed4 <__umodsi3+0x34>
30004ee8:	e2522003 	subs	r2, r2, #3	; 0x3
30004eec:	ba00000e 	blt	30004f2c <__umodsi3+0x8c>
30004ef0:	e1500001 	cmp	r0, r1
30004ef4:	20400001 	subcs	r0, r0, r1
30004ef8:	e15000a1 	cmp	r0, r1, lsr #1
30004efc:	204000a1 	subcs	r0, r0, r1, lsr #1
30004f00:	e1500121 	cmp	r0, r1, lsr #2
30004f04:	20400121 	subcs	r0, r0, r1, lsr #2
30004f08:	e15001a1 	cmp	r0, r1, lsr #3
30004f0c:	204001a1 	subcs	r0, r0, r1, lsr #3
30004f10:	e3500001 	cmp	r0, #1	; 0x1
30004f14:	e1a01221 	lsr	r1, r1, #4
30004f18:	a2522004 	subsge	r2, r2, #4	; 0x4
30004f1c:	aafffff3 	bge	30004ef0 <__umodsi3+0x50>
30004f20:	e3120003 	tst	r2, #3	; 0x3
30004f24:	13300000 	teqne	r0, #0	; 0x0
30004f28:	0a00000a 	beq	30004f58 <__umodsi3+0xb8>
30004f2c:	e3720002 	cmn	r2, #2	; 0x2
30004f30:	ba000006 	blt	30004f50 <__umodsi3+0xb0>
30004f34:	0a000002 	beq	30004f44 <__umodsi3+0xa4>
30004f38:	e1500001 	cmp	r0, r1
30004f3c:	20400001 	subcs	r0, r0, r1
30004f40:	e1a010a1 	lsr	r1, r1, #1
30004f44:	e1500001 	cmp	r0, r1
30004f48:	20400001 	subcs	r0, r0, r1
30004f4c:	e1a010a1 	lsr	r1, r1, #1
30004f50:	e1500001 	cmp	r0, r1
30004f54:	20400001 	subcs	r0, r0, r1
30004f58:	e1a0f00e 	mov	pc, lr
30004f5c:	90909090 	.word	0x90909090

30004f60 <__divsi3>:
30004f60:	e3510000 	cmp	r1, #0	; 0x0
30004f64:	e020c001 	eor	ip, r0, r1
30004f68:	0a000079 	beq	30005154 <Ldiv0>
30004f6c:	42611000 	rsbmi	r1, r1, #0	; 0x0
30004f70:	e2512001 	subs	r2, r1, #1	; 0x1
30004f74:	0a000027 	beq	30005018 <__divsi3+0xb8>
30004f78:	e1b03000 	movs	r3, r0
30004f7c:	42603000 	rsbmi	r3, r0, #0	; 0x0
30004f80:	e1530001 	cmp	r3, r1
30004f84:	9a000026 	bls	30005024 <__divsi3+0xc4>
30004f88:	e1110002 	tst	r1, r2
30004f8c:	0a000028 	beq	30005034 <__divsi3+0xd4>
30004f90:	e311020e 	tst	r1, #-536870912	; 0xe0000000
30004f94:	01a01181 	lsleq	r1, r1, #3
30004f98:	03a02008 	moveq	r2, #8	; 0x8
30004f9c:	13a02001 	movne	r2, #1	; 0x1
30004fa0:	e3510201 	cmp	r1, #268435456	; 0x10000000
30004fa4:	31510003 	cmpcc	r1, r3
30004fa8:	31a01201 	lslcc	r1, r1, #4
30004fac:	31a02202 	lslcc	r2, r2, #4
30004fb0:	3afffffa 	bcc	30004fa0 <__divsi3+0x40>
30004fb4:	e3510102 	cmp	r1, #-2147483648	; 0x80000000
30004fb8:	31510003 	cmpcc	r1, r3
30004fbc:	31a01081 	lslcc	r1, r1, #1
30004fc0:	31a02082 	lslcc	r2, r2, #1
30004fc4:	3afffffa 	bcc	30004fb4 <__divsi3+0x54>
30004fc8:	e3a00000 	mov	r0, #0	; 0x0
30004fcc:	e1530001 	cmp	r3, r1
30004fd0:	20433001 	subcs	r3, r3, r1
30004fd4:	21800002 	orrcs	r0, r0, r2
30004fd8:	e15300a1 	cmp	r3, r1, lsr #1
30004fdc:	204330a1 	subcs	r3, r3, r1, lsr #1
30004fe0:	218000a2 	orrcs	r0, r0, r2, lsr #1
30004fe4:	e1530121 	cmp	r3, r1, lsr #2
30004fe8:	20433121 	subcs	r3, r3, r1, lsr #2
30004fec:	21800122 	orrcs	r0, r0, r2, lsr #2
30004ff0:	e15301a1 	cmp	r3, r1, lsr #3
30004ff4:	204331a1 	subcs	r3, r3, r1, lsr #3
30004ff8:	218001a2 	orrcs	r0, r0, r2, lsr #3
30004ffc:	e3530000 	cmp	r3, #0	; 0x0
30005000:	11b02222 	lsrsne	r2, r2, #4
30005004:	11a01221 	lsrne	r1, r1, #4
30005008:	1affffef 	bne	30004fcc <__divsi3+0x6c>
3000500c:	e35c0000 	cmp	ip, #0	; 0x0
30005010:	42600000 	rsbmi	r0, r0, #0	; 0x0
30005014:	e1a0f00e 	mov	pc, lr
30005018:	e13c0000 	teq	ip, r0
3000501c:	42600000 	rsbmi	r0, r0, #0	; 0x0
30005020:	e1a0f00e 	mov	pc, lr
30005024:	33a00000 	movcc	r0, #0	; 0x0
30005028:	01a00fcc 	asreq	r0, ip, #31
3000502c:	03800001 	orreq	r0, r0, #1	; 0x1
30005030:	e1a0f00e 	mov	pc, lr
30005034:	e3510801 	cmp	r1, #65536	; 0x10000
30005038:	21a01821 	lsrcs	r1, r1, #16
3000503c:	23a02010 	movcs	r2, #16	; 0x10
30005040:	33a02000 	movcc	r2, #0	; 0x0
30005044:	e3510c01 	cmp	r1, #256	; 0x100
30005048:	21a01421 	lsrcs	r1, r1, #8
3000504c:	22822008 	addcs	r2, r2, #8	; 0x8
30005050:	e3510010 	cmp	r1, #16	; 0x10
30005054:	21a01221 	lsrcs	r1, r1, #4
30005058:	22822004 	addcs	r2, r2, #4	; 0x4
3000505c:	e3510004 	cmp	r1, #4	; 0x4
30005060:	82822003 	addhi	r2, r2, #3	; 0x3
30005064:	908220a1 	addls	r2, r2, r1, lsr #1
30005068:	e35c0000 	cmp	ip, #0	; 0x0
3000506c:	e1a00233 	lsr	r0, r3, r2
30005070:	42600000 	rsbmi	r0, r0, #0	; 0x0
30005074:	e1a0f00e 	mov	pc, lr
30005078:	90909090 	.word	0x90909090
3000507c:	90909090 	.word	0x90909090

30005080 <__modsi3>:
30005080:	e3510000 	cmp	r1, #0	; 0x0
30005084:	0a000032 	beq	30005154 <Ldiv0>
30005088:	42611000 	rsbmi	r1, r1, #0	; 0x0
3000508c:	e1b0c000 	movs	ip, r0
30005090:	42600000 	rsbmi	r0, r0, #0	; 0x0
30005094:	e2512001 	subs	r2, r1, #1	; 0x1
30005098:	11500001 	cmpne	r0, r1
3000509c:	03a00000 	moveq	r0, #0	; 0x0
300050a0:	81110002 	tsthi	r1, r2
300050a4:	00000002 	andeq	r0, r0, r2
300050a8:	9a000026 	bls	30005148 <__modsi3+0xc8>
300050ac:	e3a02000 	mov	r2, #0	; 0x0
300050b0:	e3510201 	cmp	r1, #268435456	; 0x10000000
300050b4:	31510000 	cmpcc	r1, r0
300050b8:	31a01201 	lslcc	r1, r1, #4
300050bc:	32822004 	addcc	r2, r2, #4	; 0x4
300050c0:	3afffffa 	bcc	300050b0 <__modsi3+0x30>
300050c4:	e3510102 	cmp	r1, #-2147483648	; 0x80000000
300050c8:	31510000 	cmpcc	r1, r0
300050cc:	31a01081 	lslcc	r1, r1, #1
300050d0:	32822001 	addcc	r2, r2, #1	; 0x1
300050d4:	3afffffa 	bcc	300050c4 <__modsi3+0x44>
300050d8:	e2522003 	subs	r2, r2, #3	; 0x3
300050dc:	ba00000e 	blt	3000511c <__modsi3+0x9c>
300050e0:	e1500001 	cmp	r0, r1
300050e4:	20400001 	subcs	r0, r0, r1
300050e8:	e15000a1 	cmp	r0, r1, lsr #1
300050ec:	204000a1 	subcs	r0, r0, r1, lsr #1
300050f0:	e1500121 	cmp	r0, r1, lsr #2
300050f4:	20400121 	subcs	r0, r0, r1, lsr #2
300050f8:	e15001a1 	cmp	r0, r1, lsr #3
300050fc:	204001a1 	subcs	r0, r0, r1, lsr #3
30005100:	e3500001 	cmp	r0, #1	; 0x1
30005104:	e1a01221 	lsr	r1, r1, #4
30005108:	a2522004 	subsge	r2, r2, #4	; 0x4
3000510c:	aafffff3 	bge	300050e0 <__modsi3+0x60>
30005110:	e3120003 	tst	r2, #3	; 0x3
30005114:	13300000 	teqne	r0, #0	; 0x0
30005118:	0a00000a 	beq	30005148 <__modsi3+0xc8>
3000511c:	e3720002 	cmn	r2, #2	; 0x2
30005120:	ba000006 	blt	30005140 <__modsi3+0xc0>
30005124:	0a000002 	beq	30005134 <__modsi3+0xb4>
30005128:	e1500001 	cmp	r0, r1
3000512c:	20400001 	subcs	r0, r0, r1
30005130:	e1a010a1 	lsr	r1, r1, #1
30005134:	e1500001 	cmp	r0, r1
30005138:	20400001 	subcs	r0, r0, r1
3000513c:	e1a010a1 	lsr	r1, r1, #1
30005140:	e1500001 	cmp	r0, r1
30005144:	20400001 	subcs	r0, r0, r1
30005148:	e35c0000 	cmp	ip, #0	; 0x0
3000514c:	42600000 	rsbmi	r0, r0, #0	; 0x0
30005150:	e1a0f00e 	mov	pc, lr

30005154 <Ldiv0>:
30005154:	e52de004 	push	{lr}		; (str lr, [sp, #-4]!)
30005158:	e3a00000 	mov	r0, #0	; 0x0
3000515c:	e49df004 	pop	{pc}		; (ldr pc, [sp], #4)

30005160 <PutPixel>:
30005160:	e92d4800 	push	{fp, lr}
30005164:	e28db004 	add	fp, sp, #4	; 0x4
30005168:	e24dd030 	sub	sp, sp, #48	; 0x30
3000516c:	e50b0028 	str	r0, [fp, #-40]
30005170:	e50b102c 	str	r1, [fp, #-44]
30005174:	e50b2030 	str	r2, [fp, #-48]
30005178:	eb000478 	bl	30006360 <GetLcdBpp>
3000517c:	e1a03000 	mov	r3, r0
30005180:	e50b301c 	str	r3, [fp, #-28]
30005184:	eb000468 	bl	3000632c <GetLcdFBbase>
30005188:	e1a03000 	mov	r3, r0
3000518c:	e50b3018 	str	r3, [fp, #-24]
30005190:	eb00047f 	bl	30006394 <GetLcdXsize>
30005194:	e1a03000 	mov	r3, r0
30005198:	e50b3014 	str	r3, [fp, #-20]
3000519c:	e51b301c 	ldr	r3, [fp, #-28]
300051a0:	e50b3034 	str	r3, [fp, #-52]
300051a4:	e51b3034 	ldr	r3, [fp, #-52]
300051a8:	e3530010 	cmp	r3, #16	; 0x10
300051ac:	0a000013 	beq	30005200 <PutPixel+0xa0>
300051b0:	e51b3034 	ldr	r3, [fp, #-52]
300051b4:	e3530018 	cmp	r3, #24	; 0x18
300051b8:	0a000003 	beq	300051cc <PutPixel+0x6c>
300051bc:	e51b3034 	ldr	r3, [fp, #-52]
300051c0:	e3530008 	cmp	r3, #8	; 0x8
300051c4:	0a00002d 	beq	30005280 <PutPixel+0x120>
300051c8:	ea000038 	b	300052b0 <PutPixel+0x150>
300051cc:	e51b202c 	ldr	r2, [fp, #-44]
300051d0:	e51b3014 	ldr	r3, [fp, #-20]
300051d4:	e0020293 	mul	r2, r3, r2
300051d8:	e51b3028 	ldr	r3, [fp, #-40]
300051dc:	e0823003 	add	r3, r2, r3
300051e0:	e1a02103 	lsl	r2, r3, #2
300051e4:	e51b3018 	ldr	r3, [fp, #-24]
300051e8:	e0823003 	add	r3, r2, r3
300051ec:	e50b3010 	str	r3, [fp, #-16]
300051f0:	e51b2010 	ldr	r2, [fp, #-16]
300051f4:	e51b3030 	ldr	r3, [fp, #-48]
300051f8:	e5823000 	str	r3, [r2]
300051fc:	ea00002b 	b	300052b0 <PutPixel+0x150>
30005200:	e51b202c 	ldr	r2, [fp, #-44]
30005204:	e51b3014 	ldr	r3, [fp, #-20]
30005208:	e0020293 	mul	r2, r3, r2
3000520c:	e51b3028 	ldr	r3, [fp, #-40]
30005210:	e0823003 	add	r3, r2, r3
30005214:	e1a02083 	lsl	r2, r3, #1
30005218:	e51b3018 	ldr	r3, [fp, #-24]
3000521c:	e0823003 	add	r3, r2, r3
30005220:	e50b300c 	str	r3, [fp, #-12]
30005224:	e51b3030 	ldr	r3, [fp, #-48]
30005228:	e1a039a3 	lsr	r3, r3, #19
3000522c:	e54b301f 	strb	r3, [fp, #-31]
30005230:	e51b3030 	ldr	r3, [fp, #-48]
30005234:	e1a03523 	lsr	r3, r3, #10
30005238:	e54b301e 	strb	r3, [fp, #-30]
3000523c:	e51b3030 	ldr	r3, [fp, #-48]
30005240:	e1a031a3 	lsr	r3, r3, #3
30005244:	e54b301d 	strb	r3, [fp, #-29]
30005248:	e55b301f 	ldrb	r3, [fp, #-31]
3000524c:	e1a02583 	lsl	r2, r3, #11
30005250:	e55b301e 	ldrb	r3, [fp, #-30]
30005254:	e1a03283 	lsl	r3, r3, #5
30005258:	e1822003 	orr	r2, r2, r3
3000525c:	e55b301d 	ldrb	r3, [fp, #-29]
30005260:	e1823003 	orr	r3, r2, r3
30005264:	e50b3030 	str	r3, [fp, #-48]
30005268:	e51b3030 	ldr	r3, [fp, #-48]
3000526c:	e1a03803 	lsl	r3, r3, #16
30005270:	e1a02823 	lsr	r2, r3, #16
30005274:	e51b300c 	ldr	r3, [fp, #-12]
30005278:	e1c320b0 	strh	r2, [r3]
3000527c:	ea00000b 	b	300052b0 <PutPixel+0x150>
30005280:	e51b202c 	ldr	r2, [fp, #-44]
30005284:	e51b3014 	ldr	r3, [fp, #-20]
30005288:	e0020293 	mul	r2, r3, r2
3000528c:	e51b3028 	ldr	r3, [fp, #-40]
30005290:	e0822003 	add	r2, r2, r3
30005294:	e51b3018 	ldr	r3, [fp, #-24]
30005298:	e0823003 	add	r3, r2, r3
3000529c:	e50b3008 	str	r3, [fp, #-8]
300052a0:	e51b3030 	ldr	r3, [fp, #-48]
300052a4:	e20330ff 	and	r3, r3, #255	; 0xff
300052a8:	e51b2008 	ldr	r2, [fp, #-8]
300052ac:	e5c23000 	strb	r3, [r2]
300052b0:	e24bd004 	sub	sp, fp, #4	; 0x4
300052b4:	e8bd4800 	pop	{fp, lr}
300052b8:	e12fff1e 	bx	lr

300052bc <DrawLine>:
300052bc:	e92d4800 	push	{fp, lr}
300052c0:	e28db004 	add	fp, sp, #4	; 0x4
300052c4:	e24dd020 	sub	sp, sp, #32	; 0x20
300052c8:	e50b0018 	str	r0, [fp, #-24]
300052cc:	e50b101c 	str	r1, [fp, #-28]
300052d0:	e50b2020 	str	r2, [fp, #-32]
300052d4:	e50b3024 	str	r3, [fp, #-36]
300052d8:	e51b2020 	ldr	r2, [fp, #-32]
300052dc:	e51b3018 	ldr	r3, [fp, #-24]
300052e0:	e0633002 	rsb	r3, r3, r2
300052e4:	e50b3010 	str	r3, [fp, #-16]
300052e8:	e51b2024 	ldr	r2, [fp, #-36]
300052ec:	e51b301c 	ldr	r3, [fp, #-28]
300052f0:	e0633002 	rsb	r3, r3, r2
300052f4:	e50b300c 	str	r3, [fp, #-12]
300052f8:	e51b3010 	ldr	r3, [fp, #-16]
300052fc:	e3530000 	cmp	r3, #0	; 0x0
30005300:	ba0000a5 	blt	3000559c <DrawLine+0x2e0>
30005304:	e51b300c 	ldr	r3, [fp, #-12]
30005308:	e3530000 	cmp	r3, #0	; 0x0
3000530c:	ba00004f 	blt	30005450 <DrawLine+0x194>
30005310:	e51b2010 	ldr	r2, [fp, #-16]
30005314:	e51b300c 	ldr	r3, [fp, #-12]
30005318:	e1520003 	cmp	r2, r3
3000531c:	ba000025 	blt	300053b8 <DrawLine+0xfc>
30005320:	e51b2010 	ldr	r2, [fp, #-16]
30005324:	e1a03fa2 	lsr	r3, r2, #31
30005328:	e0833002 	add	r3, r3, r2
3000532c:	e1a030c3 	asr	r3, r3, #1
30005330:	e1a02003 	mov	r2, r3
30005334:	e51b300c 	ldr	r3, [fp, #-12]
30005338:	e0623003 	rsb	r3, r2, r3
3000533c:	e50b3008 	str	r3, [fp, #-8]
30005340:	ea000017 	b	300053a4 <DrawLine+0xe8>
30005344:	e51b3018 	ldr	r3, [fp, #-24]
30005348:	e51b201c 	ldr	r2, [fp, #-28]
3000534c:	e59bc004 	ldr	ip, [fp, #4]
30005350:	e1a00003 	mov	r0, r3
30005354:	e1a01002 	mov	r1, r2
30005358:	e1a0200c 	mov	r2, ip
3000535c:	ebffff7f 	bl	30005160 <PutPixel>
30005360:	e51b3008 	ldr	r3, [fp, #-8]
30005364:	e3530000 	cmp	r3, #0	; 0x0
30005368:	da000006 	ble	30005388 <DrawLine+0xcc>
3000536c:	e51b301c 	ldr	r3, [fp, #-28]
30005370:	e2833001 	add	r3, r3, #1	; 0x1
30005374:	e50b301c 	str	r3, [fp, #-28]
30005378:	e51b2008 	ldr	r2, [fp, #-8]
3000537c:	e51b3010 	ldr	r3, [fp, #-16]
30005380:	e0633002 	rsb	r3, r3, r2
30005384:	e50b3008 	str	r3, [fp, #-8]
30005388:	e51b3018 	ldr	r3, [fp, #-24]
3000538c:	e2833001 	add	r3, r3, #1	; 0x1
30005390:	e50b3018 	str	r3, [fp, #-24]
30005394:	e51b2008 	ldr	r2, [fp, #-8]
30005398:	e51b300c 	ldr	r3, [fp, #-12]
3000539c:	e0823003 	add	r3, r2, r3
300053a0:	e50b3008 	str	r3, [fp, #-8]
300053a4:	e51b2018 	ldr	r2, [fp, #-24]
300053a8:	e51b3020 	ldr	r3, [fp, #-32]
300053ac:	e1520003 	cmp	r2, r3
300053b0:	daffffe3 	ble	30005344 <DrawLine+0x88>
300053b4:	ea000120 	b	3000583c <DrawLine+0x580>
300053b8:	e51b200c 	ldr	r2, [fp, #-12]
300053bc:	e1a03fa2 	lsr	r3, r2, #31
300053c0:	e0833002 	add	r3, r3, r2
300053c4:	e1a030c3 	asr	r3, r3, #1
300053c8:	e1a02003 	mov	r2, r3
300053cc:	e51b3010 	ldr	r3, [fp, #-16]
300053d0:	e0623003 	rsb	r3, r2, r3
300053d4:	e50b3008 	str	r3, [fp, #-8]
300053d8:	ea000017 	b	3000543c <DrawLine+0x180>
300053dc:	e51b3018 	ldr	r3, [fp, #-24]
300053e0:	e51b201c 	ldr	r2, [fp, #-28]
300053e4:	e59bc004 	ldr	ip, [fp, #4]
300053e8:	e1a00003 	mov	r0, r3
300053ec:	e1a01002 	mov	r1, r2
300053f0:	e1a0200c 	mov	r2, ip
300053f4:	ebffff59 	bl	30005160 <PutPixel>
300053f8:	e51b3008 	ldr	r3, [fp, #-8]
300053fc:	e3530000 	cmp	r3, #0	; 0x0
30005400:	da000006 	ble	30005420 <DrawLine+0x164>
30005404:	e51b3018 	ldr	r3, [fp, #-24]
30005408:	e2833001 	add	r3, r3, #1	; 0x1
3000540c:	e50b3018 	str	r3, [fp, #-24]
30005410:	e51b2008 	ldr	r2, [fp, #-8]
30005414:	e51b300c 	ldr	r3, [fp, #-12]
30005418:	e0633002 	rsb	r3, r3, r2
3000541c:	e50b3008 	str	r3, [fp, #-8]
30005420:	e51b301c 	ldr	r3, [fp, #-28]
30005424:	e2833001 	add	r3, r3, #1	; 0x1
30005428:	e50b301c 	str	r3, [fp, #-28]
3000542c:	e51b2008 	ldr	r2, [fp, #-8]
30005430:	e51b3010 	ldr	r3, [fp, #-16]
30005434:	e0823003 	add	r3, r2, r3
30005438:	e50b3008 	str	r3, [fp, #-8]
3000543c:	e51b201c 	ldr	r2, [fp, #-28]
30005440:	e51b3024 	ldr	r3, [fp, #-36]
30005444:	e1520003 	cmp	r2, r3
30005448:	daffffe3 	ble	300053dc <DrawLine+0x120>
3000544c:	ea0000fa 	b	3000583c <DrawLine+0x580>
30005450:	e51b300c 	ldr	r3, [fp, #-12]
30005454:	e2633000 	rsb	r3, r3, #0	; 0x0
30005458:	e50b300c 	str	r3, [fp, #-12]
3000545c:	e51b2010 	ldr	r2, [fp, #-16]
30005460:	e51b300c 	ldr	r3, [fp, #-12]
30005464:	e1520003 	cmp	r2, r3
30005468:	ba000025 	blt	30005504 <DrawLine+0x248>
3000546c:	e51b2010 	ldr	r2, [fp, #-16]
30005470:	e1a03fa2 	lsr	r3, r2, #31
30005474:	e0833002 	add	r3, r3, r2
30005478:	e1a030c3 	asr	r3, r3, #1
3000547c:	e1a02003 	mov	r2, r3
30005480:	e51b300c 	ldr	r3, [fp, #-12]
30005484:	e0623003 	rsb	r3, r2, r3
30005488:	e50b3008 	str	r3, [fp, #-8]
3000548c:	ea000017 	b	300054f0 <DrawLine+0x234>
30005490:	e51b3018 	ldr	r3, [fp, #-24]
30005494:	e51b201c 	ldr	r2, [fp, #-28]
30005498:	e59bc004 	ldr	ip, [fp, #4]
3000549c:	e1a00003 	mov	r0, r3
300054a0:	e1a01002 	mov	r1, r2
300054a4:	e1a0200c 	mov	r2, ip
300054a8:	ebffff2c 	bl	30005160 <PutPixel>
300054ac:	e51b3008 	ldr	r3, [fp, #-8]
300054b0:	e3530000 	cmp	r3, #0	; 0x0
300054b4:	da000006 	ble	300054d4 <DrawLine+0x218>
300054b8:	e51b301c 	ldr	r3, [fp, #-28]
300054bc:	e2433001 	sub	r3, r3, #1	; 0x1
300054c0:	e50b301c 	str	r3, [fp, #-28]
300054c4:	e51b2008 	ldr	r2, [fp, #-8]
300054c8:	e51b3010 	ldr	r3, [fp, #-16]
300054cc:	e0633002 	rsb	r3, r3, r2
300054d0:	e50b3008 	str	r3, [fp, #-8]
300054d4:	e51b3018 	ldr	r3, [fp, #-24]
300054d8:	e2833001 	add	r3, r3, #1	; 0x1
300054dc:	e50b3018 	str	r3, [fp, #-24]
300054e0:	e51b2008 	ldr	r2, [fp, #-8]
300054e4:	e51b300c 	ldr	r3, [fp, #-12]
300054e8:	e0823003 	add	r3, r2, r3
300054ec:	e50b3008 	str	r3, [fp, #-8]
300054f0:	e51b2018 	ldr	r2, [fp, #-24]
300054f4:	e51b3020 	ldr	r3, [fp, #-32]
300054f8:	e1520003 	cmp	r2, r3
300054fc:	daffffe3 	ble	30005490 <DrawLine+0x1d4>
30005500:	ea0000cd 	b	3000583c <DrawLine+0x580>
30005504:	e51b200c 	ldr	r2, [fp, #-12]
30005508:	e1a03fa2 	lsr	r3, r2, #31
3000550c:	e0833002 	add	r3, r3, r2
30005510:	e1a030c3 	asr	r3, r3, #1
30005514:	e1a02003 	mov	r2, r3
30005518:	e51b3010 	ldr	r3, [fp, #-16]
3000551c:	e0623003 	rsb	r3, r2, r3
30005520:	e50b3008 	str	r3, [fp, #-8]
30005524:	ea000017 	b	30005588 <DrawLine+0x2cc>
30005528:	e51b3018 	ldr	r3, [fp, #-24]
3000552c:	e51b201c 	ldr	r2, [fp, #-28]
30005530:	e59bc004 	ldr	ip, [fp, #4]
30005534:	e1a00003 	mov	r0, r3
30005538:	e1a01002 	mov	r1, r2
3000553c:	e1a0200c 	mov	r2, ip
30005540:	ebffff06 	bl	30005160 <PutPixel>
30005544:	e51b3008 	ldr	r3, [fp, #-8]
30005548:	e3530000 	cmp	r3, #0	; 0x0
3000554c:	da000006 	ble	3000556c <DrawLine+0x2b0>
30005550:	e51b3018 	ldr	r3, [fp, #-24]
30005554:	e2833001 	add	r3, r3, #1	; 0x1
30005558:	e50b3018 	str	r3, [fp, #-24]
3000555c:	e51b2008 	ldr	r2, [fp, #-8]
30005560:	e51b300c 	ldr	r3, [fp, #-12]
30005564:	e0633002 	rsb	r3, r3, r2
30005568:	e50b3008 	str	r3, [fp, #-8]
3000556c:	e51b301c 	ldr	r3, [fp, #-28]
30005570:	e2433001 	sub	r3, r3, #1	; 0x1
30005574:	e50b301c 	str	r3, [fp, #-28]
30005578:	e51b2008 	ldr	r2, [fp, #-8]
3000557c:	e51b3010 	ldr	r3, [fp, #-16]
30005580:	e0823003 	add	r3, r2, r3
30005584:	e50b3008 	str	r3, [fp, #-8]
30005588:	e51b201c 	ldr	r2, [fp, #-28]
3000558c:	e51b3024 	ldr	r3, [fp, #-36]
30005590:	e1520003 	cmp	r2, r3
30005594:	aaffffe3 	bge	30005528 <DrawLine+0x26c>
30005598:	ea0000a7 	b	3000583c <DrawLine+0x580>
3000559c:	e51b3010 	ldr	r3, [fp, #-16]
300055a0:	e2633000 	rsb	r3, r3, #0	; 0x0
300055a4:	e50b3010 	str	r3, [fp, #-16]
300055a8:	e51b300c 	ldr	r3, [fp, #-12]
300055ac:	e3530000 	cmp	r3, #0	; 0x0
300055b0:	ba00004f 	blt	300056f4 <DrawLine+0x438>
300055b4:	e51b2010 	ldr	r2, [fp, #-16]
300055b8:	e51b300c 	ldr	r3, [fp, #-12]
300055bc:	e1520003 	cmp	r2, r3
300055c0:	ba000025 	blt	3000565c <DrawLine+0x3a0>
300055c4:	e51b2010 	ldr	r2, [fp, #-16]
300055c8:	e1a03fa2 	lsr	r3, r2, #31
300055cc:	e0833002 	add	r3, r3, r2
300055d0:	e1a030c3 	asr	r3, r3, #1
300055d4:	e1a02003 	mov	r2, r3
300055d8:	e51b300c 	ldr	r3, [fp, #-12]
300055dc:	e0623003 	rsb	r3, r2, r3
300055e0:	e50b3008 	str	r3, [fp, #-8]
300055e4:	ea000017 	b	30005648 <DrawLine+0x38c>
300055e8:	e51b3018 	ldr	r3, [fp, #-24]
300055ec:	e51b201c 	ldr	r2, [fp, #-28]
300055f0:	e59bc004 	ldr	ip, [fp, #4]
300055f4:	e1a00003 	mov	r0, r3
300055f8:	e1a01002 	mov	r1, r2
300055fc:	e1a0200c 	mov	r2, ip
30005600:	ebfffed6 	bl	30005160 <PutPixel>
30005604:	e51b3008 	ldr	r3, [fp, #-8]
30005608:	e3530000 	cmp	r3, #0	; 0x0
3000560c:	da000006 	ble	3000562c <DrawLine+0x370>
30005610:	e51b301c 	ldr	r3, [fp, #-28]
30005614:	e2833001 	add	r3, r3, #1	; 0x1
30005618:	e50b301c 	str	r3, [fp, #-28]
3000561c:	e51b2008 	ldr	r2, [fp, #-8]
30005620:	e51b3010 	ldr	r3, [fp, #-16]
30005624:	e0633002 	rsb	r3, r3, r2
30005628:	e50b3008 	str	r3, [fp, #-8]
3000562c:	e51b3018 	ldr	r3, [fp, #-24]
30005630:	e2433001 	sub	r3, r3, #1	; 0x1
30005634:	e50b3018 	str	r3, [fp, #-24]
30005638:	e51b2008 	ldr	r2, [fp, #-8]
3000563c:	e51b300c 	ldr	r3, [fp, #-12]
30005640:	e0823003 	add	r3, r2, r3
30005644:	e50b3008 	str	r3, [fp, #-8]
30005648:	e51b2018 	ldr	r2, [fp, #-24]
3000564c:	e51b3020 	ldr	r3, [fp, #-32]
30005650:	e1520003 	cmp	r2, r3
30005654:	aaffffe3 	bge	300055e8 <DrawLine+0x32c>
30005658:	ea000077 	b	3000583c <DrawLine+0x580>
3000565c:	e51b200c 	ldr	r2, [fp, #-12]
30005660:	e1a03fa2 	lsr	r3, r2, #31
30005664:	e0833002 	add	r3, r3, r2
30005668:	e1a030c3 	asr	r3, r3, #1
3000566c:	e1a02003 	mov	r2, r3
30005670:	e51b3010 	ldr	r3, [fp, #-16]
30005674:	e0623003 	rsb	r3, r2, r3
30005678:	e50b3008 	str	r3, [fp, #-8]
3000567c:	ea000017 	b	300056e0 <DrawLine+0x424>
30005680:	e51b3018 	ldr	r3, [fp, #-24]
30005684:	e51b201c 	ldr	r2, [fp, #-28]
30005688:	e59bc004 	ldr	ip, [fp, #4]
3000568c:	e1a00003 	mov	r0, r3
30005690:	e1a01002 	mov	r1, r2
30005694:	e1a0200c 	mov	r2, ip
30005698:	ebfffeb0 	bl	30005160 <PutPixel>
3000569c:	e51b3008 	ldr	r3, [fp, #-8]
300056a0:	e3530000 	cmp	r3, #0	; 0x0
300056a4:	da000006 	ble	300056c4 <DrawLine+0x408>
300056a8:	e51b3018 	ldr	r3, [fp, #-24]
300056ac:	e2433001 	sub	r3, r3, #1	; 0x1
300056b0:	e50b3018 	str	r3, [fp, #-24]
300056b4:	e51b2008 	ldr	r2, [fp, #-8]
300056b8:	e51b300c 	ldr	r3, [fp, #-12]
300056bc:	e0633002 	rsb	r3, r3, r2
300056c0:	e50b3008 	str	r3, [fp, #-8]
300056c4:	e51b301c 	ldr	r3, [fp, #-28]
300056c8:	e2833001 	add	r3, r3, #1	; 0x1
300056cc:	e50b301c 	str	r3, [fp, #-28]
300056d0:	e51b2008 	ldr	r2, [fp, #-8]
300056d4:	e51b3010 	ldr	r3, [fp, #-16]
300056d8:	e0823003 	add	r3, r2, r3
300056dc:	e50b3008 	str	r3, [fp, #-8]
300056e0:	e51b201c 	ldr	r2, [fp, #-28]
300056e4:	e51b3024 	ldr	r3, [fp, #-36]
300056e8:	e1520003 	cmp	r2, r3
300056ec:	daffffe3 	ble	30005680 <DrawLine+0x3c4>
300056f0:	ea000051 	b	3000583c <DrawLine+0x580>
300056f4:	e51b300c 	ldr	r3, [fp, #-12]
300056f8:	e2633000 	rsb	r3, r3, #0	; 0x0
300056fc:	e50b300c 	str	r3, [fp, #-12]
30005700:	e51b2010 	ldr	r2, [fp, #-16]
30005704:	e51b300c 	ldr	r3, [fp, #-12]
30005708:	e1520003 	cmp	r2, r3
3000570c:	ba000025 	blt	300057a8 <DrawLine+0x4ec>
30005710:	e51b2010 	ldr	r2, [fp, #-16]
30005714:	e1a03fa2 	lsr	r3, r2, #31
30005718:	e0833002 	add	r3, r3, r2
3000571c:	e1a030c3 	asr	r3, r3, #1
30005720:	e1a02003 	mov	r2, r3
30005724:	e51b300c 	ldr	r3, [fp, #-12]
30005728:	e0623003 	rsb	r3, r2, r3
3000572c:	e50b3008 	str	r3, [fp, #-8]
30005730:	ea000017 	b	30005794 <DrawLine+0x4d8>
30005734:	e51b3018 	ldr	r3, [fp, #-24]
30005738:	e51b201c 	ldr	r2, [fp, #-28]
3000573c:	e59bc004 	ldr	ip, [fp, #4]
30005740:	e1a00003 	mov	r0, r3
30005744:	e1a01002 	mov	r1, r2
30005748:	e1a0200c 	mov	r2, ip
3000574c:	ebfffe83 	bl	30005160 <PutPixel>
30005750:	e51b3008 	ldr	r3, [fp, #-8]
30005754:	e3530000 	cmp	r3, #0	; 0x0
30005758:	da000006 	ble	30005778 <DrawLine+0x4bc>
3000575c:	e51b301c 	ldr	r3, [fp, #-28]
30005760:	e2433001 	sub	r3, r3, #1	; 0x1
30005764:	e50b301c 	str	r3, [fp, #-28]
30005768:	e51b2008 	ldr	r2, [fp, #-8]
3000576c:	e51b3010 	ldr	r3, [fp, #-16]
30005770:	e0633002 	rsb	r3, r3, r2
30005774:	e50b3008 	str	r3, [fp, #-8]
30005778:	e51b3018 	ldr	r3, [fp, #-24]
3000577c:	e2433001 	sub	r3, r3, #1	; 0x1
30005780:	e50b3018 	str	r3, [fp, #-24]
30005784:	e51b2008 	ldr	r2, [fp, #-8]
30005788:	e51b300c 	ldr	r3, [fp, #-12]
3000578c:	e0823003 	add	r3, r2, r3
30005790:	e50b3008 	str	r3, [fp, #-8]
30005794:	e51b2018 	ldr	r2, [fp, #-24]
30005798:	e51b3020 	ldr	r3, [fp, #-32]
3000579c:	e1520003 	cmp	r2, r3
300057a0:	aaffffe3 	bge	30005734 <DrawLine+0x478>
300057a4:	ea000024 	b	3000583c <DrawLine+0x580>
300057a8:	e51b200c 	ldr	r2, [fp, #-12]
300057ac:	e1a03fa2 	lsr	r3, r2, #31
300057b0:	e0833002 	add	r3, r3, r2
300057b4:	e1a030c3 	asr	r3, r3, #1
300057b8:	e1a02003 	mov	r2, r3
300057bc:	e51b3010 	ldr	r3, [fp, #-16]
300057c0:	e0623003 	rsb	r3, r2, r3
300057c4:	e50b3008 	str	r3, [fp, #-8]
300057c8:	ea000017 	b	3000582c <DrawLine+0x570>
300057cc:	e51b3018 	ldr	r3, [fp, #-24]
300057d0:	e51b201c 	ldr	r2, [fp, #-28]
300057d4:	e59bc004 	ldr	ip, [fp, #4]
300057d8:	e1a00003 	mov	r0, r3
300057dc:	e1a01002 	mov	r1, r2
300057e0:	e1a0200c 	mov	r2, ip
300057e4:	ebfffe5d 	bl	30005160 <PutPixel>
300057e8:	e51b3008 	ldr	r3, [fp, #-8]
300057ec:	e3530000 	cmp	r3, #0	; 0x0
300057f0:	da000006 	ble	30005810 <DrawLine+0x554>
300057f4:	e51b3018 	ldr	r3, [fp, #-24]
300057f8:	e2433001 	sub	r3, r3, #1	; 0x1
300057fc:	e50b3018 	str	r3, [fp, #-24]
30005800:	e51b2008 	ldr	r2, [fp, #-8]
30005804:	e51b300c 	ldr	r3, [fp, #-12]
30005808:	e0633002 	rsb	r3, r3, r2
3000580c:	e50b3008 	str	r3, [fp, #-8]
30005810:	e51b301c 	ldr	r3, [fp, #-28]
30005814:	e2433001 	sub	r3, r3, #1	; 0x1
30005818:	e50b301c 	str	r3, [fp, #-28]
3000581c:	e51b2008 	ldr	r2, [fp, #-8]
30005820:	e51b3010 	ldr	r3, [fp, #-16]
30005824:	e0823003 	add	r3, r2, r3
30005828:	e50b3008 	str	r3, [fp, #-8]
3000582c:	e51b201c 	ldr	r2, [fp, #-28]
30005830:	e51b3024 	ldr	r3, [fp, #-36]
30005834:	e1520003 	cmp	r2, r3
30005838:	aaffffe3 	bge	300057cc <DrawLine+0x510>
3000583c:	e24bd004 	sub	sp, fp, #4	; 0x4
30005840:	e8bd4800 	pop	{fp, lr}
30005844:	e12fff1e 	bx	lr

30005848 <Mire>:
30005848:	e92d4800 	push	{fp, lr}
3000584c:	e28db004 	add	fp, sp, #4	; 0x4
30005850:	e24dd018 	sub	sp, sp, #24	; 0x18
30005854:	eb0002ce 	bl	30006394 <GetLcdXsize>
30005858:	e1a03000 	mov	r3, r0
3000585c:	e50b300c 	str	r3, [fp, #-12]
30005860:	eb0002d8 	bl	300063c8 <GetLcdYsize>
30005864:	e1a03000 	mov	r3, r0
30005868:	e50b3008 	str	r3, [fp, #-8]
3000586c:	e3a03000 	mov	r3, #0	; 0x0
30005870:	e50b3018 	str	r3, [fp, #-24]
30005874:	ea000044 	b	3000598c <Mire+0x144>
30005878:	e3a03000 	mov	r3, #0	; 0x0
3000587c:	e50b301c 	str	r3, [fp, #-28]
30005880:	ea00003a 	b	30005970 <Mire+0x128>
